Archive member included to satisfy reference by file (symbol)

/usr/lib/gcc/arm-none-eabi/4.9.3/../../../arm-none-eabi/lib/armv7e-m/fpu/libc_nano.a(lib_a-atoi.o)
                              obj/main/SPRACINGF3/io/ledstrip.o (symbol from plugin) (atoi)
/usr/lib/gcc/arm-none-eabi/4.9.3/../../../arm-none-eabi/lib/armv7e-m/fpu/libc_nano.a(lib_a-ctype_.o)
                              obj/main/SPRACINGF3/flight/gps_conversion.o (symbol from plugin) (__ctype_ptr__)
/usr/lib/gcc/arm-none-eabi/4.9.3/../../../arm-none-eabi/lib/armv7e-m/fpu/libc_nano.a(lib_a-strtok.o)
                              obj/main/SPRACINGF3/io/serial_cli.o (symbol from plugin) (strtok)
/usr/lib/gcc/arm-none-eabi/4.9.3/../../../arm-none-eabi/lib/armv7e-m/fpu/libc_nano.a(lib_a-strtok_r.o)
                              /usr/lib/gcc/arm-none-eabi/4.9.3/../../../arm-none-eabi/lib/armv7e-m/fpu/libc_nano.a(lib_a-strtok.o) (__strtok_r)
/usr/lib/gcc/arm-none-eabi/4.9.3/../../../arm-none-eabi/lib/armv7e-m/fpu/libc_nano.a(lib_a-strtol.o)
                              /usr/lib/gcc/arm-none-eabi/4.9.3/../../../arm-none-eabi/lib/armv7e-m/fpu/libc_nano.a(lib_a-atoi.o) (_strtol_r)
/usr/lib/gcc/arm-none-eabi/4.9.3/../../../arm-none-eabi/lib/armv7e-m/fpu/libc_nano.a(lib_a-impure.o)
                              /usr/lib/gcc/arm-none-eabi/4.9.3/../../../arm-none-eabi/lib/armv7e-m/fpu/libc_nano.a(lib_a-strtok.o) (_impure_ptr)
/usr/lib/gcc/arm-none-eabi/4.9.3/../../../arm-none-eabi/lib/armv7e-m/fpu/libc_nano.a(lib_a-malloc.o)
                              /usr/lib/gcc/arm-none-eabi/4.9.3/../../../arm-none-eabi/lib/armv7e-m/fpu/libc_nano.a(lib_a-strtok.o) (malloc)
/usr/lib/gcc/arm-none-eabi/4.9.3/../../../arm-none-eabi/lib/armv7e-m/fpu/libc_nano.a(lib_a-nano-freer.o)
                              /usr/lib/gcc/arm-none-eabi/4.9.3/../../../arm-none-eabi/lib/armv7e-m/fpu/libc_nano.a(lib_a-malloc.o) (_free_r)
/usr/lib/gcc/arm-none-eabi/4.9.3/../../../arm-none-eabi/lib/armv7e-m/fpu/libc_nano.a(lib_a-nano-mallocr.o)
                              /usr/lib/gcc/arm-none-eabi/4.9.3/../../../arm-none-eabi/lib/armv7e-m/fpu/libc_nano.a(lib_a-malloc.o) (_malloc_r)
/usr/lib/gcc/arm-none-eabi/4.9.3/../../../arm-none-eabi/lib/armv7e-m/fpu/libc_nano.a(lib_a-sbrkr.o)
                              /usr/lib/gcc/arm-none-eabi/4.9.3/../../../arm-none-eabi/lib/armv7e-m/fpu/libc_nano.a(lib_a-nano-mallocr.o) (_sbrk_r)
/usr/lib/gcc/arm-none-eabi/4.9.3/../../../arm-none-eabi/lib/armv7e-m/fpu/libc_nano.a(lib_a-reent.o)
                              /usr/lib/gcc/arm-none-eabi/4.9.3/../../../arm-none-eabi/lib/armv7e-m/fpu/libc_nano.a(lib_a-sbrkr.o) (errno)
/usr/lib/gcc/arm-none-eabi/4.9.3/../../../arm-none-eabi/lib/armv7e-m/fpu/libnosys.a(sbrk.o)
                              /usr/lib/gcc/arm-none-eabi/4.9.3/../../../arm-none-eabi/lib/armv7e-m/fpu/libc_nano.a(lib_a-sbrkr.o) (_sbrk)
/usr/lib/gcc/arm-none-eabi/4.9.3/../../../arm-none-eabi/lib/armv7e-m/fpu/libm.a(lib_a-sf_lrint.o)
                              /tmp/ccGYWBCE.ltrans1.ltrans.o (lrintf)
/usr/lib/gcc/arm-none-eabi/4.9.3/../../../arm-none-eabi/lib/armv7e-m/fpu/libm.a(lib_a-sf_tan.o)
                              /tmp/ccGYWBCE.ltrans13.ltrans.o (tanf)
/usr/lib/gcc/arm-none-eabi/4.9.3/../../../arm-none-eabi/lib/armv7e-m/fpu/libm.a(lib_a-wf_pow.o)
                              /tmp/ccGYWBCE.ltrans17.ltrans.o (powf)
/usr/lib/gcc/arm-none-eabi/4.9.3/../../../arm-none-eabi/lib/armv7e-m/fpu/libm.a(lib_a-wf_sqrt.o)
                              /tmp/ccGYWBCE.ltrans1.ltrans.o (sqrtf)
/usr/lib/gcc/arm-none-eabi/4.9.3/../../../arm-none-eabi/lib/armv7e-m/fpu/libm.a(lib_a-ef_pow.o)
                              /usr/lib/gcc/arm-none-eabi/4.9.3/../../../arm-none-eabi/lib/armv7e-m/fpu/libm.a(lib_a-wf_pow.o) (__ieee754_powf)
/usr/lib/gcc/arm-none-eabi/4.9.3/../../../arm-none-eabi/lib/armv7e-m/fpu/libm.a(lib_a-ef_rem_pio2.o)
                              /usr/lib/gcc/arm-none-eabi/4.9.3/../../../arm-none-eabi/lib/armv7e-m/fpu/libm.a(lib_a-sf_tan.o) (__ieee754_rem_pio2f)
/usr/lib/gcc/arm-none-eabi/4.9.3/../../../arm-none-eabi/lib/armv7e-m/fpu/libm.a(lib_a-ef_sqrt.o)
                              /usr/lib/gcc/arm-none-eabi/4.9.3/../../../arm-none-eabi/lib/armv7e-m/fpu/libm.a(lib_a-wf_sqrt.o) (__ieee754_sqrtf)
/usr/lib/gcc/arm-none-eabi/4.9.3/../../../arm-none-eabi/lib/armv7e-m/fpu/libm.a(lib_a-kf_rem_pio2.o)
                              /usr/lib/gcc/arm-none-eabi/4.9.3/../../../arm-none-eabi/lib/armv7e-m/fpu/libm.a(lib_a-ef_rem_pio2.o) (__kernel_rem_pio2f)
/usr/lib/gcc/arm-none-eabi/4.9.3/../../../arm-none-eabi/lib/armv7e-m/fpu/libm.a(lib_a-kf_tan.o)
                              /usr/lib/gcc/arm-none-eabi/4.9.3/../../../arm-none-eabi/lib/armv7e-m/fpu/libm.a(lib_a-sf_tan.o) (__kernel_tanf)
/usr/lib/gcc/arm-none-eabi/4.9.3/../../../arm-none-eabi/lib/armv7e-m/fpu/libm.a(lib_a-s_lib_ver.o)
                              /usr/lib/gcc/arm-none-eabi/4.9.3/../../../arm-none-eabi/lib/armv7e-m/fpu/libm.a(lib_a-wf_pow.o) (__fdlib_version)
/usr/lib/gcc/arm-none-eabi/4.9.3/../../../arm-none-eabi/lib/armv7e-m/fpu/libm.a(lib_a-s_matherr.o)
                              /usr/lib/gcc/arm-none-eabi/4.9.3/../../../arm-none-eabi/lib/armv7e-m/fpu/libm.a(lib_a-wf_pow.o) (matherr)
/usr/lib/gcc/arm-none-eabi/4.9.3/../../../arm-none-eabi/lib/armv7e-m/fpu/libm.a(lib_a-s_rint.o)
                              /usr/lib/gcc/arm-none-eabi/4.9.3/../../../arm-none-eabi/lib/armv7e-m/fpu/libm.a(lib_a-wf_pow.o) (rint)
/usr/lib/gcc/arm-none-eabi/4.9.3/../../../arm-none-eabi/lib/armv7e-m/fpu/libm.a(lib_a-sf_fabs.o)
                              /usr/lib/gcc/arm-none-eabi/4.9.3/../../../arm-none-eabi/lib/armv7e-m/fpu/libm.a(lib_a-ef_pow.o) (fabsf)
/usr/lib/gcc/arm-none-eabi/4.9.3/../../../arm-none-eabi/lib/armv7e-m/fpu/libm.a(lib_a-sf_finite.o)
                              /usr/lib/gcc/arm-none-eabi/4.9.3/../../../arm-none-eabi/lib/armv7e-m/fpu/libm.a(lib_a-wf_pow.o) (finitef)
/usr/lib/gcc/arm-none-eabi/4.9.3/../../../arm-none-eabi/lib/armv7e-m/fpu/libm.a(lib_a-sf_floor.o)
                              /usr/lib/gcc/arm-none-eabi/4.9.3/../../../arm-none-eabi/lib/armv7e-m/fpu/libm.a(lib_a-kf_rem_pio2.o) (floorf)
/usr/lib/gcc/arm-none-eabi/4.9.3/../../../arm-none-eabi/lib/armv7e-m/fpu/libm.a(lib_a-sf_fpclassify.o)
                              /usr/lib/gcc/arm-none-eabi/4.9.3/../../../arm-none-eabi/lib/armv7e-m/fpu/libm.a(lib_a-wf_pow.o) (__fpclassifyf)
/usr/lib/gcc/arm-none-eabi/4.9.3/../../../arm-none-eabi/lib/armv7e-m/fpu/libm.a(lib_a-sf_nan.o)
                              /usr/lib/gcc/arm-none-eabi/4.9.3/../../../arm-none-eabi/lib/armv7e-m/fpu/libm.a(lib_a-ef_pow.o) (nanf)
/usr/lib/gcc/arm-none-eabi/4.9.3/../../../arm-none-eabi/lib/armv7e-m/fpu/libm.a(lib_a-sf_scalbn.o)
                              /usr/lib/gcc/arm-none-eabi/4.9.3/../../../arm-none-eabi/lib/armv7e-m/fpu/libm.a(lib_a-ef_pow.o) (scalbnf)
/usr/lib/gcc/arm-none-eabi/4.9.3/../../../arm-none-eabi/lib/armv7e-m/fpu/libm.a(lib_a-sf_copysign.o)
                              /usr/lib/gcc/arm-none-eabi/4.9.3/../../../arm-none-eabi/lib/armv7e-m/fpu/libm.a(lib_a-sf_scalbn.o) (copysignf)
/usr/lib/gcc/arm-none-eabi/4.9.3/../../../arm-none-eabi/lib/armv7e-m/fpu/libc_nano.a(lib_a-errno.o)
                              /usr/lib/gcc/arm-none-eabi/4.9.3/../../../arm-none-eabi/lib/armv7e-m/fpu/libm.a(lib_a-wf_pow.o) (__errno)
/usr/lib/gcc/arm-none-eabi/4.9.3/../../../arm-none-eabi/lib/armv7e-m/fpu/libc_nano.a(lib_a-memcmp.o)
                              /tmp/ccGYWBCE.ltrans9.ltrans.o (memcmp)
/usr/lib/gcc/arm-none-eabi/4.9.3/../../../arm-none-eabi/lib/armv7e-m/fpu/libc_nano.a(lib_a-memcpy.o)
                              /tmp/ccGYWBCE.ltrans10.ltrans.o (memcpy)
/usr/lib/gcc/arm-none-eabi/4.9.3/../../../arm-none-eabi/lib/armv7e-m/fpu/libc_nano.a(lib_a-memset.o)
                              /tmp/ccGYWBCE.ltrans0.ltrans.o (memset)
/usr/lib/gcc/arm-none-eabi/4.9.3/../../../arm-none-eabi/lib/armv7e-m/fpu/libc_nano.a(lib_a-strcasecmp.o)
                              /tmp/ccGYWBCE.ltrans12.ltrans.o (strcasecmp)
/usr/lib/gcc/arm-none-eabi/4.9.3/../../../arm-none-eabi/lib/armv7e-m/fpu/libc_nano.a(lib_a-strcat.o)
                              /tmp/ccGYWBCE.ltrans20.ltrans.o (strcat)
/usr/lib/gcc/arm-none-eabi/4.9.3/../../../arm-none-eabi/lib/armv7e-m/fpu/libc_nano.a(lib_a-strchr.o)
                              /tmp/ccGYWBCE.ltrans2.ltrans.o (strchr)
/usr/lib/gcc/arm-none-eabi/4.9.3/../../../arm-none-eabi/lib/armv7e-m/fpu/libc_nano.a(lib_a-strlen.o)
                              /tmp/ccGYWBCE.ltrans2.ltrans.o (strlen)
/usr/lib/gcc/arm-none-eabi/4.9.3/../../../arm-none-eabi/lib/armv7e-m/fpu/libc_nano.a(lib_a-strncasecmp.o)
                              /tmp/ccGYWBCE.ltrans2.ltrans.o (strncasecmp)
/usr/lib/gcc/arm-none-eabi/4.9.3/../../../arm-none-eabi/lib/armv7e-m/fpu/libc_nano.a(lib_a-strncpy.o)
                              /tmp/ccGYWBCE.ltrans19.ltrans.o (strncpy)
/usr/lib/gcc/arm-none-eabi/4.9.3/../../../arm-none-eabi/lib/armv7e-m/fpu/libc_nano.a(lib_a-strstr.o)
                              /tmp/ccGYWBCE.ltrans22.ltrans.o (strstr)
/usr/lib/gcc/arm-none-eabi/4.9.3/armv7e-m/fpu/libgcc.a(_ashrdi3.o)
                              /tmp/ccGYWBCE.ltrans13.ltrans.o (__aeabi_lasr)
/usr/lib/gcc/arm-none-eabi/4.9.3/armv7e-m/fpu/libgcc.a(_arm_addsubdf3.o)
                              /usr/lib/gcc/arm-none-eabi/4.9.3/../../../arm-none-eabi/lib/armv7e-m/fpu/libm.a(lib_a-s_rint.o) (__aeabi_dsub)
/usr/lib/gcc/arm-none-eabi/4.9.3/armv7e-m/fpu/libgcc.a(_arm_muldivdf3.o)
                              /usr/lib/gcc/arm-none-eabi/4.9.3/../../../arm-none-eabi/lib/armv7e-m/fpu/libm.a(lib_a-wf_pow.o) (__aeabi_ddiv)
/usr/lib/gcc/arm-none-eabi/4.9.3/armv7e-m/fpu/libgcc.a(_arm_cmpdf2.o)
                              /usr/lib/gcc/arm-none-eabi/4.9.3/../../../arm-none-eabi/lib/armv7e-m/fpu/libm.a(lib_a-wf_pow.o) (__aeabi_dcmpeq)
/usr/lib/gcc/arm-none-eabi/4.9.3/armv7e-m/fpu/libgcc.a(_arm_truncdfsf2.o)
                              /usr/lib/gcc/arm-none-eabi/4.9.3/../../../arm-none-eabi/lib/armv7e-m/fpu/libm.a(lib_a-wf_pow.o) (__aeabi_d2f)
/usr/lib/gcc/arm-none-eabi/4.9.3/armv7e-m/fpu/libgcc.a(_aeabi_ldivmod.o)
                              /tmp/ccGYWBCE.ltrans23.ltrans.o (__aeabi_ldivmod)
/usr/lib/gcc/arm-none-eabi/4.9.3/armv7e-m/fpu/libgcc.a(_fixsfdi.o)
                              /tmp/ccGYWBCE.ltrans13.ltrans.o (__aeabi_f2lz)
/usr/lib/gcc/arm-none-eabi/4.9.3/armv7e-m/fpu/libgcc.a(_fixunssfdi.o)
                              /usr/lib/gcc/arm-none-eabi/4.9.3/armv7e-m/fpu/libgcc.a(_fixsfdi.o) (__aeabi_f2ulz)
/usr/lib/gcc/arm-none-eabi/4.9.3/armv7e-m/fpu/libgcc.a(bpabi.o)
                              /usr/lib/gcc/arm-none-eabi/4.9.3/armv7e-m/fpu/libgcc.a(_aeabi_ldivmod.o) (__gnu_ldivmod_helper)
/usr/lib/gcc/arm-none-eabi/4.9.3/armv7e-m/fpu/libgcc.a(_dvmd_tls.o)
                              /usr/lib/gcc/arm-none-eabi/4.9.3/armv7e-m/fpu/libgcc.a(_aeabi_ldivmod.o) (__aeabi_ldiv0)
/usr/lib/gcc/arm-none-eabi/4.9.3/armv7e-m/fpu/libgcc.a(_arm_fixunsdfsi.o)
                              /usr/lib/gcc/arm-none-eabi/4.9.3/armv7e-m/fpu/libgcc.a(_fixunssfdi.o) (__aeabi_d2uiz)
/usr/lib/gcc/arm-none-eabi/4.9.3/armv7e-m/fpu/libgcc.a(_divdi3.o)
                              /usr/lib/gcc/arm-none-eabi/4.9.3/armv7e-m/fpu/libgcc.a(bpabi.o) (__divdi3)
/usr/lib/gcc/arm-none-eabi/4.9.3/armv7e-m/fpu/libgcc.a(_udivdi3.o)
                              /usr/lib/gcc/arm-none-eabi/4.9.3/armv7e-m/fpu/libgcc.a(bpabi.o) (__udivdi3)

Allocating common symbols
Common symbol       size              file

timerChannelInfo    0x11              obj/main/SPRACINGF3/drivers/timer.o (symbol from plugin)
ledGridWidth        0x1               obj/main/SPRACINGF3/io/ledstrip.o (symbol from plugin)
baro_cf_alt         0x4               obj/main/SPRACINGF3/sensors/sonar.o (symbol from plugin)
ubx_nav_status_bits
                    0x1               obj/main/SPRACINGF3/io/gps.o (symbol from plugin)
softSerialPorts     0x4a0             obj/main/SPRACINGF3/drivers/serial_softserial.o (symbol from plugin)
filteredCycleTime   0x2               obj/main/SPRACINGF3/mw.o (symbol from plugin)
telemTemperature1   0x2               obj/main/SPRACINGF3/mw.o (symbol from plugin)
sonarMaxRangeCm     0x2               obj/main/SPRACINGF3/sensors/sonar.o (symbol from plugin)
errno               0x4               /usr/lib/gcc/arm-none-eabi/4.9.3/../../../arm-none-eabi/lib/armv7e-m/fpu/libc_nano.a(lib_a-reent.o)
rcRaw               0x24              obj/main/SPRACINGF3/rx/rx.o (symbol from plugin)
escCount            0x1               obj/main/SPRACINGF3/io/serial_1wire.o (symbol from plugin)
ubx_protocol_bytes  0x1               obj/main/SPRACINGF3/io/gps.o (symbol from plugin)
inputSource_e       0x1               obj/main/SPRACINGF3/telemetry/frsky.o (symbol from plugin)
timerInfo           0x7               obj/main/SPRACINGF3/drivers/timer.o (symbol from plugin)
ledsInRingCount     0x1               obj/main/SPRACINGF3/io/ledstrip.o (symbol from plugin)
axis                0x4               obj/main/SPRACINGF3/sensors/gyro.o (symbol from plugin)
dynI8               0x3               obj/main/SPRACINGF3/flight/pid.o (symbol from plugin)
sectionTimes        0x20              obj/main/SPRACINGF3/debug.o (symbol from plugin)
cachedRccCsrValue   0x4               obj/main/SPRACINGF3/drivers/system.o (symbol from plugin)
baro_cf_vel         0x4               obj/main/SPRACINGF3/sensors/sonar.o (symbol from plugin)
ubs_nav_fix_type    0x1               obj/main/SPRACINGF3/io/gps.o (symbol from plugin)
ledGridHeight       0x1               obj/main/SPRACINGF3/io/ledstrip.o (symbol from plugin)

Discarded input sections

 .text          0x00000000       0x14 obj/main/SPRACINGF3/startup_stm32f30x_md_gcc.o
 .data          0x00000000        0x0 obj/main/SPRACINGF3/startup_stm32f30x_md_gcc.o
 .bss           0x00000000        0x0 obj/main/SPRACINGF3/startup_stm32f30x_md_gcc.o
 .text          0x00000000        0x0 obj/main/SPRACINGF3/drivers/adc.o (symbol from plugin)
 .data          0x00000000        0x0 /tmp/ccGYWBCE.ltrans0.ltrans.o
 .data          0x00000000        0x0 /tmp/ccGYWBCE.ltrans1.ltrans.o
 .data          0x00000000        0x0 /tmp/ccGYWBCE.ltrans2.ltrans.o
 .data          0x00000000       0x10 /tmp/ccGYWBCE.ltrans4.ltrans.o
 .data          0x00000000        0x0 /tmp/ccGYWBCE.ltrans7.ltrans.o
 .rodata        0x00000000        0xc /tmp/ccGYWBCE.ltrans8.ltrans.o
 .rodata.targetName
                0x00000000        0x4 /tmp/ccGYWBCE.ltrans8.ltrans.o
 .data          0x00000000        0x0 /tmp/ccGYWBCE.ltrans9.ltrans.o
 .data          0x00000000        0x0 /tmp/ccGYWBCE.ltrans10.ltrans.o
 .data          0x00000000        0x0 /tmp/ccGYWBCE.ltrans14.ltrans.o
 .data          0x00000000        0x0 /tmp/ccGYWBCE.ltrans17.ltrans.o
 .data          0x00000000        0x0 /tmp/ccGYWBCE.ltrans19.ltrans.o
 .data          0x00000000        0x0 /tmp/ccGYWBCE.ltrans20.ltrans.o
 .bss           0x00000000        0x0 /tmp/ccGYWBCE.ltrans20.ltrans.o
 .data          0x00000000        0x0 /tmp/ccGYWBCE.ltrans21.ltrans.o
 .data          0x00000000        0x0 /tmp/ccGYWBCE.ltrans23.ltrans.o
 .data          0x00000000        0x0 /tmp/ccGYWBCE.ltrans25.ltrans.o
 .data          0x00000000        0x0 /tmp/ccGYWBCE.ltrans26.ltrans.o
 .text          0x00000000        0x0 obj/main/SPRACINGF3/drivers/adc_stm32f30x.o (symbol from plugin)
 .text          0x00000000        0x0 obj/main/SPRACINGF3/drivers/bus_i2c_stm32f30x.o (symbol from plugin)
 .text          0x00000000        0x0 obj/main/SPRACINGF3/drivers/bus_spi.o (symbol from plugin)
 .text          0x00000000        0x0 obj/main/SPRACINGF3/drivers/display_ug2864hsweg01.o (symbol from plugin)
 .text          0x00000000        0x0 obj/main/SPRACINGF3/drivers/gpio_stm32f30x.o (symbol from plugin)
 .text          0x00000000        0x0 obj/main/SPRACINGF3/drivers/light_led_stm32f30x.o (symbol from plugin)
 .text          0x00000000        0x0 obj/main/SPRACINGF3/drivers/pwm_mapping.o (symbol from plugin)
 .text          0x00000000        0x0 obj/main/SPRACINGF3/drivers/pwm_output.o (symbol from plugin)
 .text          0x00000000        0x0 obj/main/SPRACINGF3/drivers/pwm_rx.o (symbol from plugin)
 .text          0x00000000        0x0 obj/main/SPRACINGF3/drivers/serial_uart.o (symbol from plugin)
 .text          0x00000000        0x0 obj/main/SPRACINGF3/drivers/serial_uart_stm32f30x.o (symbol from plugin)
 .text          0x00000000        0x0 obj/main/SPRACINGF3/drivers/sound_beeper_stm32f30x.o (symbol from plugin)
 .text          0x00000000        0x0 obj/main/SPRACINGF3/drivers/system_stm32f30x.o (symbol from plugin)
 .text          0x00000000        0x0 obj/main/SPRACINGF3/drivers/timer.o (symbol from plugin)
 .text          0x00000000        0x0 obj/main/SPRACINGF3/drivers/timer_stm32f30x.o (symbol from plugin)
 .text          0x00000000        0x0 obj/main/SPRACINGF3/drivers/accgyro_mpu.o (symbol from plugin)
 .text          0x00000000        0x0 obj/main/SPRACINGF3/drivers/accgyro_mpu6050.o (symbol from plugin)
 .text          0x00000000        0x0 obj/main/SPRACINGF3/drivers/barometer_ms5611.o (symbol from plugin)
 .text          0x00000000        0x0 obj/main/SPRACINGF3/drivers/compass_ak8975.o (symbol from plugin)
 .text          0x00000000        0x0 obj/main/SPRACINGF3/drivers/compass_hmc5883l.o (symbol from plugin)
 .text          0x00000000        0x0 obj/main/SPRACINGF3/drivers/flash_m25p16.o (symbol from plugin)
 .text          0x00000000        0x0 obj/main/SPRACINGF3/drivers/light_ws2811strip.o (symbol from plugin)
 .text          0x00000000        0x0 obj/main/SPRACINGF3/drivers/light_ws2811strip_stm32f30x.o (symbol from plugin)
 .text          0x00000000        0x0 obj/main/SPRACINGF3/drivers/serial_softserial.o (symbol from plugin)
 .text          0x00000000        0x0 obj/main/SPRACINGF3/drivers/sonar_hcsr04.o (symbol from plugin)
 .text          0x00000000        0x0 obj/main/SPRACINGF3/io/flashfs.o (symbol from plugin)
 .text          0x00000000        0x0 obj/main/SPRACINGF3/flight/gtune.o (symbol from plugin)
 .text          0x00000000        0x0 obj/main/SPRACINGF3/flight/navigation.o (symbol from plugin)
 .text          0x00000000        0x0 obj/main/SPRACINGF3/flight/gps_conversion.o (symbol from plugin)
 .text          0x00000000        0x0 obj/main/SPRACINGF3/common/colorconversion.o (symbol from plugin)
 .text          0x00000000        0x0 obj/main/SPRACINGF3/io/gps.o (symbol from plugin)
 .text          0x00000000        0x0 obj/main/SPRACINGF3/io/ledstrip.o (symbol from plugin)
 .text          0x00000000        0x0 obj/main/SPRACINGF3/io/display.o (symbol from plugin)
 .text          0x00000000        0x0 obj/main/SPRACINGF3/telemetry/telemetry.o (symbol from plugin)
 .text          0x00000000        0x0 obj/main/SPRACINGF3/telemetry/frsky.o (symbol from plugin)
 .text          0x00000000        0x0 obj/main/SPRACINGF3/telemetry/hott.o (symbol from plugin)
 .text          0x00000000        0x0 obj/main/SPRACINGF3/telemetry/smartport.o (symbol from plugin)
 .text          0x00000000        0x0 obj/main/SPRACINGF3/telemetry/ltm.o (symbol from plugin)
 .text          0x00000000        0x0 obj/main/SPRACINGF3/sensors/sonar.o (symbol from plugin)
 .text          0x00000000        0x0 obj/main/SPRACINGF3/sensors/barometer.o (symbol from plugin)
 .text          0x00000000        0x0 obj/main/SPRACINGF3/blackbox/blackbox.o (symbol from plugin)
 .text          0x00000000        0x0 obj/main/SPRACINGF3/blackbox/blackbox_io.o (symbol from plugin)
 .text          0x00000000        0x0 obj/main/SPRACINGF3/build_config.o (symbol from plugin)
 .text          0x00000000        0x0 obj/main/SPRACINGF3/debug.o (symbol from plugin)
 .text          0x00000000        0x0 obj/main/SPRACINGF3/version.o (symbol from plugin)
 .text          0x00000000        0x0 obj/main/SPRACINGF3/system_stm32f30x.o (symbol from plugin)
 .text          0x00000000        0x0 obj/main/SPRACINGF3/config/config.o (symbol from plugin)
 .text          0x00000000        0x0 obj/main/SPRACINGF3/config/runtime_config.o (symbol from plugin)
 .text          0x00000000        0x0 obj/main/SPRACINGF3/common/maths.o (symbol from plugin)
 .text          0x00000000        0x0 obj/main/SPRACINGF3/common/printf.o (symbol from plugin)
 .text          0x00000000        0x0 obj/main/SPRACINGF3/common/typeconversion.o (symbol from plugin)
 .text          0x00000000        0x0 obj/main/SPRACINGF3/common/encoding.o (symbol from plugin)
 .text          0x00000000        0x0 obj/main/SPRACINGF3/common/filter.o (symbol from plugin)
 .text          0x00000000        0x0 obj/main/SPRACINGF3/scheduler.o (symbol from plugin)
 .text          0x00000000        0x0 obj/main/SPRACINGF3/scheduler_tasks.o (symbol from plugin)
 .text          0x00000000        0x0 obj/main/SPRACINGF3/main.o (symbol from plugin)
 .text          0x00000000        0x0 obj/main/SPRACINGF3/mw.o (symbol from plugin)
 .text          0x00000000        0x0 obj/main/SPRACINGF3/flight/altitudehold.o (symbol from plugin)
 .text          0x00000000        0x0 obj/main/SPRACINGF3/flight/failsafe.o (symbol from plugin)
 .text          0x00000000        0x0 obj/main/SPRACINGF3/flight/pid.o (symbol from plugin)
 .text          0x00000000        0x0 obj/main/SPRACINGF3/flight/imu.o (symbol from plugin)
 .text          0x00000000        0x0 obj/main/SPRACINGF3/flight/mixer.o (symbol from plugin)
 .text          0x00000000        0x0 obj/main/SPRACINGF3/flight/lowpass.o (symbol from plugin)
 .text          0x00000000        0x0 obj/main/SPRACINGF3/drivers/bus_i2c_soft.o (symbol from plugin)
 .text          0x00000000        0x0 obj/main/SPRACINGF3/drivers/serial.o (symbol from plugin)
 .text          0x00000000        0x0 obj/main/SPRACINGF3/drivers/sound_beeper.o (symbol from plugin)
 .text          0x00000000        0x0 obj/main/SPRACINGF3/drivers/system.o (symbol from plugin)
 .text          0x00000000        0x0 obj/main/SPRACINGF3/drivers/dma.o (symbol from plugin)
 .text          0x00000000        0x0 obj/main/SPRACINGF3/drivers/buf_writer.o (symbol from plugin)
 .text          0x00000000        0x0 obj/main/SPRACINGF3/drivers/gyro_sync.o (symbol from plugin)
 .text          0x00000000        0x0 obj/main/SPRACINGF3/io/beeper.o (symbol from plugin)
 .text          0x00000000        0x0 obj/main/SPRACINGF3/io/rc_controls.o (symbol from plugin)
 .text          0x00000000        0x0 obj/main/SPRACINGF3/io/rc_curves.o (symbol from plugin)
 .text          0x00000000        0x0 obj/main/SPRACINGF3/io/serial.o (symbol from plugin)
 .text          0x00000000        0x0 obj/main/SPRACINGF3/io/serial_1wire.o (symbol from plugin)
 .text          0x00000000        0x0 obj/main/SPRACINGF3/io/serial_cli.o (symbol from plugin)
 .text          0x00000000        0x0 obj/main/SPRACINGF3/io/serial_msp.o (symbol from plugin)
 .text          0x00000000        0x0 obj/main/SPRACINGF3/io/statusindicator.o (symbol from plugin)
 .text          0x00000000        0x0 obj/main/SPRACINGF3/rx/rx.o (symbol from plugin)
 .text          0x00000000        0x0 obj/main/SPRACINGF3/rx/pwm.o (symbol from plugin)
 .text          0x00000000        0x0 obj/main/SPRACINGF3/rx/msp.o (symbol from plugin)
 .text          0x00000000        0x0 obj/main/SPRACINGF3/rx/sbus.o (symbol from plugin)
 .text          0x00000000        0x0 obj/main/SPRACINGF3/rx/sumd.o (symbol from plugin)
 .text          0x00000000        0x0 obj/main/SPRACINGF3/rx/sumh.o (symbol from plugin)
 .text          0x00000000        0x0 obj/main/SPRACINGF3/rx/spektrum.o (symbol from plugin)
 .text          0x00000000        0x0 obj/main/SPRACINGF3/rx/xbus.o (symbol from plugin)
 .text          0x00000000        0x0 obj/main/SPRACINGF3/rx/ibus.o (symbol from plugin)
 .text          0x00000000        0x0 obj/main/SPRACINGF3/sensors/acceleration.o (symbol from plugin)
 .text          0x00000000        0x0 obj/main/SPRACINGF3/sensors/battery.o (symbol from plugin)
 .text          0x00000000        0x0 obj/main/SPRACINGF3/sensors/boardalignment.o (symbol from plugin)
 .text          0x00000000        0x0 obj/main/SPRACINGF3/sensors/compass.o (symbol from plugin)
 .text          0x00000000        0x0 obj/main/SPRACINGF3/sensors/gyro.o (symbol from plugin)
 .text          0x00000000        0x0 obj/main/SPRACINGF3/sensors/initialisation.o (symbol from plugin)
 .text          0x00000000        0x0 obj/main/SPRACINGF3/stm32f30x_rcc.o (symbol from plugin)
 .text          0x00000000        0x0 obj/main/SPRACINGF3/stm32f30x_gpio.o (symbol from plugin)
 .text          0x00000000        0x0 obj/main/SPRACINGF3/stm32f30x_comp.o (symbol from plugin)
 .text          0x00000000        0x0 obj/main/SPRACINGF3/stm32f30x_exti.o (symbol from plugin)
 .text          0x00000000        0x0 obj/main/SPRACINGF3/stm32f30x_dma.o (symbol from plugin)
 .text          0x00000000        0x0 obj/main/SPRACINGF3/stm32f30x_dbgmcu.o (symbol from plugin)
 .text          0x00000000        0x0 obj/main/SPRACINGF3/stm32f30x_dac.o (symbol from plugin)
 .text          0x00000000        0x0 obj/main/SPRACINGF3/stm32f30x_opamp.o (symbol from plugin)
 .text          0x00000000        0x0 obj/main/SPRACINGF3/stm32f30x_pwr.o (symbol from plugin)
 .text          0x00000000        0x0 obj/main/SPRACINGF3/stm32f30x_i2c.o (symbol from plugin)
 .text          0x00000000        0x0 obj/main/SPRACINGF3/stm32f30x_flash.o (symbol from plugin)
 .text          0x00000000        0x0 obj/main/SPRACINGF3/stm32f30x_syscfg.o (symbol from plugin)
 .text          0x00000000        0x0 obj/main/SPRACINGF3/stm32f30x_spi.o (symbol from plugin)
 .text          0x00000000        0x0 obj/main/SPRACINGF3/stm32f30x_usart.o (symbol from plugin)
 .text          0x00000000        0x0 obj/main/SPRACINGF3/stm32f30x_misc.o (symbol from plugin)
 .text          0x00000000        0x0 obj/main/SPRACINGF3/stm32f30x_rtc.o (symbol from plugin)
 .text          0x00000000        0x0 obj/main/SPRACINGF3/stm32f30x_tim.o (symbol from plugin)
 .text          0x00000000        0x0 obj/main/SPRACINGF3/stm32f30x_hrtim.o (symbol from plugin)
 .text          0x00000000        0x0 obj/main/SPRACINGF3/stm32f30x_iwdg.o (symbol from plugin)
 .text          0x00000000        0x0 obj/main/SPRACINGF3/stm32f30x_adc.o (symbol from plugin)
 .text          0x00000000        0x0 obj/main/SPRACINGF3/stm32f30x_wwdg.o (symbol from plugin)
 .text          0x00000000        0x0 /usr/lib/gcc/arm-none-eabi/4.9.3/../../../arm-none-eabi/lib/armv7e-m/fpu/libc_nano.a(lib_a-atoi.o)
 .data          0x00000000        0x0 /usr/lib/gcc/arm-none-eabi/4.9.3/../../../arm-none-eabi/lib/armv7e-m/fpu/libc_nano.a(lib_a-atoi.o)
 .bss           0x00000000        0x0 /usr/lib/gcc/arm-none-eabi/4.9.3/../../../arm-none-eabi/lib/armv7e-m/fpu/libc_nano.a(lib_a-atoi.o)
 .text._atoi_r  0x00000000        0x8 /usr/lib/gcc/arm-none-eabi/4.9.3/../../../arm-none-eabi/lib/armv7e-m/fpu/libc_nano.a(lib_a-atoi.o)
 .text          0x00000000        0x0 /usr/lib/gcc/arm-none-eabi/4.9.3/../../../arm-none-eabi/lib/armv7e-m/fpu/libc_nano.a(lib_a-ctype_.o)
 .data          0x00000000        0x0 /usr/lib/gcc/arm-none-eabi/4.9.3/../../../arm-none-eabi/lib/armv7e-m/fpu/libc_nano.a(lib_a-ctype_.o)
 .bss           0x00000000        0x0 /usr/lib/gcc/arm-none-eabi/4.9.3/../../../arm-none-eabi/lib/armv7e-m/fpu/libc_nano.a(lib_a-ctype_.o)
 .text          0x00000000        0x0 /usr/lib/gcc/arm-none-eabi/4.9.3/../../../arm-none-eabi/lib/armv7e-m/fpu/libc_nano.a(lib_a-strtok.o)
 .data          0x00000000        0x0 /usr/lib/gcc/arm-none-eabi/4.9.3/../../../arm-none-eabi/lib/armv7e-m/fpu/libc_nano.a(lib_a-strtok.o)
 .bss           0x00000000        0x0 /usr/lib/gcc/arm-none-eabi/4.9.3/../../../arm-none-eabi/lib/armv7e-m/fpu/libc_nano.a(lib_a-strtok.o)
 .text          0x00000000        0x0 /usr/lib/gcc/arm-none-eabi/4.9.3/../../../arm-none-eabi/lib/armv7e-m/fpu/libc_nano.a(lib_a-strtok_r.o)
 .data          0x00000000        0x0 /usr/lib/gcc/arm-none-eabi/4.9.3/../../../arm-none-eabi/lib/armv7e-m/fpu/libc_nano.a(lib_a-strtok_r.o)
 .bss           0x00000000        0x0 /usr/lib/gcc/arm-none-eabi/4.9.3/../../../arm-none-eabi/lib/armv7e-m/fpu/libc_nano.a(lib_a-strtok_r.o)
 .text          0x00000000        0x0 /usr/lib/gcc/arm-none-eabi/4.9.3/../../../arm-none-eabi/lib/armv7e-m/fpu/libc_nano.a(lib_a-strtol.o)
 .data          0x00000000        0x0 /usr/lib/gcc/arm-none-eabi/4.9.3/../../../arm-none-eabi/lib/armv7e-m/fpu/libc_nano.a(lib_a-strtol.o)
 .bss           0x00000000        0x0 /usr/lib/gcc/arm-none-eabi/4.9.3/../../../arm-none-eabi/lib/armv7e-m/fpu/libc_nano.a(lib_a-strtol.o)
 .text          0x00000000        0x0 /usr/lib/gcc/arm-none-eabi/4.9.3/../../../arm-none-eabi/lib/armv7e-m/fpu/libc_nano.a(lib_a-impure.o)
 .data          0x00000000        0x0 /usr/lib/gcc/arm-none-eabi/4.9.3/../../../arm-none-eabi/lib/armv7e-m/fpu/libc_nano.a(lib_a-impure.o)
 .bss           0x00000000        0x0 /usr/lib/gcc/arm-none-eabi/4.9.3/../../../arm-none-eabi/lib/armv7e-m/fpu/libc_nano.a(lib_a-impure.o)
 .rodata._global_impure_ptr
                0x00000000        0x4 /usr/lib/gcc/arm-none-eabi/4.9.3/../../../arm-none-eabi/lib/armv7e-m/fpu/libc_nano.a(lib_a-impure.o)
 .text          0x00000000        0x0 /usr/lib/gcc/arm-none-eabi/4.9.3/../../../arm-none-eabi/lib/armv7e-m/fpu/libc_nano.a(lib_a-malloc.o)
 .data          0x00000000        0x0 /usr/lib/gcc/arm-none-eabi/4.9.3/../../../arm-none-eabi/lib/armv7e-m/fpu/libc_nano.a(lib_a-malloc.o)
 .bss           0x00000000        0x0 /usr/lib/gcc/arm-none-eabi/4.9.3/../../../arm-none-eabi/lib/armv7e-m/fpu/libc_nano.a(lib_a-malloc.o)
 .text.free     0x00000000       0x10 /usr/lib/gcc/arm-none-eabi/4.9.3/../../../arm-none-eabi/lib/armv7e-m/fpu/libc_nano.a(lib_a-malloc.o)
 .text          0x00000000        0x0 /usr/lib/gcc/arm-none-eabi/4.9.3/../../../arm-none-eabi/lib/armv7e-m/fpu/libc_nano.a(lib_a-nano-freer.o)
 .data          0x00000000        0x0 /usr/lib/gcc/arm-none-eabi/4.9.3/../../../arm-none-eabi/lib/armv7e-m/fpu/libc_nano.a(lib_a-nano-freer.o)
 .bss           0x00000000        0x0 /usr/lib/gcc/arm-none-eabi/4.9.3/../../../arm-none-eabi/lib/armv7e-m/fpu/libc_nano.a(lib_a-nano-freer.o)
 .text._free_r  0x00000000       0x88 /usr/lib/gcc/arm-none-eabi/4.9.3/../../../arm-none-eabi/lib/armv7e-m/fpu/libc_nano.a(lib_a-nano-freer.o)
 .debug_info    0x00000000      0x81a /usr/lib/gcc/arm-none-eabi/4.9.3/../../../arm-none-eabi/lib/armv7e-m/fpu/libc_nano.a(lib_a-nano-freer.o)
 .debug_abbrev  0x00000000      0x1b6 /usr/lib/gcc/arm-none-eabi/4.9.3/../../../arm-none-eabi/lib/armv7e-m/fpu/libc_nano.a(lib_a-nano-freer.o)
 .debug_loc     0x00000000      0x172 /usr/lib/gcc/arm-none-eabi/4.9.3/../../../arm-none-eabi/lib/armv7e-m/fpu/libc_nano.a(lib_a-nano-freer.o)
 .debug_aranges
                0x00000000       0x20 /usr/lib/gcc/arm-none-eabi/4.9.3/../../../arm-none-eabi/lib/armv7e-m/fpu/libc_nano.a(lib_a-nano-freer.o)
 .debug_ranges  0x00000000       0x28 /usr/lib/gcc/arm-none-eabi/4.9.3/../../../arm-none-eabi/lib/armv7e-m/fpu/libc_nano.a(lib_a-nano-freer.o)
 .debug_line    0x00000000      0x14c /usr/lib/gcc/arm-none-eabi/4.9.3/../../../arm-none-eabi/lib/armv7e-m/fpu/libc_nano.a(lib_a-nano-freer.o)
 .debug_str     0x00000000      0x5e3 /usr/lib/gcc/arm-none-eabi/4.9.3/../../../arm-none-eabi/lib/armv7e-m/fpu/libc_nano.a(lib_a-nano-freer.o)
 .comment       0x00000000       0x39 /usr/lib/gcc/arm-none-eabi/4.9.3/../../../arm-none-eabi/lib/armv7e-m/fpu/libc_nano.a(lib_a-nano-freer.o)
 .debug_frame   0x00000000       0x2c /usr/lib/gcc/arm-none-eabi/4.9.3/../../../arm-none-eabi/lib/armv7e-m/fpu/libc_nano.a(lib_a-nano-freer.o)
 .ARM.attributes
                0x00000000       0x34 /usr/lib/gcc/arm-none-eabi/4.9.3/../../../arm-none-eabi/lib/armv7e-m/fpu/libc_nano.a(lib_a-nano-freer.o)
 .text          0x00000000        0x0 /usr/lib/gcc/arm-none-eabi/4.9.3/../../../arm-none-eabi/lib/armv7e-m/fpu/libc_nano.a(lib_a-nano-mallocr.o)
 .data          0x00000000        0x0 /usr/lib/gcc/arm-none-eabi/4.9.3/../../../arm-none-eabi/lib/armv7e-m/fpu/libc_nano.a(lib_a-nano-mallocr.o)
 .bss           0x00000000        0x0 /usr/lib/gcc/arm-none-eabi/4.9.3/../../../arm-none-eabi/lib/armv7e-m/fpu/libc_nano.a(lib_a-nano-mallocr.o)
 .text          0x00000000        0x0 /usr/lib/gcc/arm-none-eabi/4.9.3/../../../arm-none-eabi/lib/armv7e-m/fpu/libc_nano.a(lib_a-sbrkr.o)
 .data          0x00000000        0x0 /usr/lib/gcc/arm-none-eabi/4.9.3/../../../arm-none-eabi/lib/armv7e-m/fpu/libc_nano.a(lib_a-sbrkr.o)
 .bss           0x00000000        0x0 /usr/lib/gcc/arm-none-eabi/4.9.3/../../../arm-none-eabi/lib/armv7e-m/fpu/libc_nano.a(lib_a-sbrkr.o)
 .text          0x00000000        0x0 /usr/lib/gcc/arm-none-eabi/4.9.3/../../../arm-none-eabi/lib/armv7e-m/fpu/libc_nano.a(lib_a-reent.o)
 .data          0x00000000        0x0 /usr/lib/gcc/arm-none-eabi/4.9.3/../../../arm-none-eabi/lib/armv7e-m/fpu/libc_nano.a(lib_a-reent.o)
 .bss           0x00000000        0x0 /usr/lib/gcc/arm-none-eabi/4.9.3/../../../arm-none-eabi/lib/armv7e-m/fpu/libc_nano.a(lib_a-reent.o)
 .text.cleanup_glue
                0x00000000       0x1a /usr/lib/gcc/arm-none-eabi/4.9.3/../../../arm-none-eabi/lib/armv7e-m/fpu/libc_nano.a(lib_a-reent.o)
 .text._reclaim_reent
                0x00000000       0xb4 /usr/lib/gcc/arm-none-eabi/4.9.3/../../../arm-none-eabi/lib/armv7e-m/fpu/libc_nano.a(lib_a-reent.o)
 .text          0x00000000        0x0 /usr/lib/gcc/arm-none-eabi/4.9.3/../../../arm-none-eabi/lib/armv7e-m/fpu/libnosys.a(sbrk.o)
 .data          0x00000000        0x0 /usr/lib/gcc/arm-none-eabi/4.9.3/../../../arm-none-eabi/lib/armv7e-m/fpu/libnosys.a(sbrk.o)
 .bss           0x00000000        0x0 /usr/lib/gcc/arm-none-eabi/4.9.3/../../../arm-none-eabi/lib/armv7e-m/fpu/libnosys.a(sbrk.o)
 .text          0x00000000        0x0 /usr/lib/gcc/arm-none-eabi/4.9.3/../../../arm-none-eabi/lib/armv7e-m/fpu/libm.a(lib_a-sf_lrint.o)
 .data          0x00000000        0x0 /usr/lib/gcc/arm-none-eabi/4.9.3/../../../arm-none-eabi/lib/armv7e-m/fpu/libm.a(lib_a-sf_lrint.o)
 .bss           0x00000000        0x0 /usr/lib/gcc/arm-none-eabi/4.9.3/../../../arm-none-eabi/lib/armv7e-m/fpu/libm.a(lib_a-sf_lrint.o)
 .text          0x00000000        0x0 /usr/lib/gcc/arm-none-eabi/4.9.3/../../../arm-none-eabi/lib/armv7e-m/fpu/libm.a(lib_a-sf_tan.o)
 .data          0x00000000        0x0 /usr/lib/gcc/arm-none-eabi/4.9.3/../../../arm-none-eabi/lib/armv7e-m/fpu/libm.a(lib_a-sf_tan.o)
 .bss           0x00000000        0x0 /usr/lib/gcc/arm-none-eabi/4.9.3/../../../arm-none-eabi/lib/armv7e-m/fpu/libm.a(lib_a-sf_tan.o)
 .text          0x00000000        0x0 /usr/lib/gcc/arm-none-eabi/4.9.3/../../../arm-none-eabi/lib/armv7e-m/fpu/libm.a(lib_a-wf_pow.o)
 .data          0x00000000        0x0 /usr/lib/gcc/arm-none-eabi/4.9.3/../../../arm-none-eabi/lib/armv7e-m/fpu/libm.a(lib_a-wf_pow.o)
 .bss           0x00000000        0x0 /usr/lib/gcc/arm-none-eabi/4.9.3/../../../arm-none-eabi/lib/armv7e-m/fpu/libm.a(lib_a-wf_pow.o)
 .text          0x00000000        0x0 /usr/lib/gcc/arm-none-eabi/4.9.3/../../../arm-none-eabi/lib/armv7e-m/fpu/libm.a(lib_a-wf_sqrt.o)
 .data          0x00000000        0x0 /usr/lib/gcc/arm-none-eabi/4.9.3/../../../arm-none-eabi/lib/armv7e-m/fpu/libm.a(lib_a-wf_sqrt.o)
 .bss           0x00000000        0x0 /usr/lib/gcc/arm-none-eabi/4.9.3/../../../arm-none-eabi/lib/armv7e-m/fpu/libm.a(lib_a-wf_sqrt.o)
 .text          0x00000000        0x0 /usr/lib/gcc/arm-none-eabi/4.9.3/../../../arm-none-eabi/lib/armv7e-m/fpu/libm.a(lib_a-ef_pow.o)
 .data          0x00000000        0x0 /usr/lib/gcc/arm-none-eabi/4.9.3/../../../arm-none-eabi/lib/armv7e-m/fpu/libm.a(lib_a-ef_pow.o)
 .bss           0x00000000        0x0 /usr/lib/gcc/arm-none-eabi/4.9.3/../../../arm-none-eabi/lib/armv7e-m/fpu/libm.a(lib_a-ef_pow.o)
 .text          0x00000000        0x0 /usr/lib/gcc/arm-none-eabi/4.9.3/../../../arm-none-eabi/lib/armv7e-m/fpu/libm.a(lib_a-ef_rem_pio2.o)
 .data          0x00000000        0x0 /usr/lib/gcc/arm-none-eabi/4.9.3/../../../arm-none-eabi/lib/armv7e-m/fpu/libm.a(lib_a-ef_rem_pio2.o)
 .bss           0x00000000        0x0 /usr/lib/gcc/arm-none-eabi/4.9.3/../../../arm-none-eabi/lib/armv7e-m/fpu/libm.a(lib_a-ef_rem_pio2.o)
 .text          0x00000000        0x0 /usr/lib/gcc/arm-none-eabi/4.9.3/../../../arm-none-eabi/lib/armv7e-m/fpu/libm.a(lib_a-ef_sqrt.o)
 .data          0x00000000        0x0 /usr/lib/gcc/arm-none-eabi/4.9.3/../../../arm-none-eabi/lib/armv7e-m/fpu/libm.a(lib_a-ef_sqrt.o)
 .bss           0x00000000        0x0 /usr/lib/gcc/arm-none-eabi/4.9.3/../../../arm-none-eabi/lib/armv7e-m/fpu/libm.a(lib_a-ef_sqrt.o)
 .text          0x00000000        0x0 /usr/lib/gcc/arm-none-eabi/4.9.3/../../../arm-none-eabi/lib/armv7e-m/fpu/libm.a(lib_a-kf_rem_pio2.o)
 .data          0x00000000        0x0 /usr/lib/gcc/arm-none-eabi/4.9.3/../../../arm-none-eabi/lib/armv7e-m/fpu/libm.a(lib_a-kf_rem_pio2.o)
 .bss           0x00000000        0x0 /usr/lib/gcc/arm-none-eabi/4.9.3/../../../arm-none-eabi/lib/armv7e-m/fpu/libm.a(lib_a-kf_rem_pio2.o)
 .text          0x00000000        0x0 /usr/lib/gcc/arm-none-eabi/4.9.3/../../../arm-none-eabi/lib/armv7e-m/fpu/libm.a(lib_a-kf_tan.o)
 .data          0x00000000        0x0 /usr/lib/gcc/arm-none-eabi/4.9.3/../../../arm-none-eabi/lib/armv7e-m/fpu/libm.a(lib_a-kf_tan.o)
 .bss           0x00000000        0x0 /usr/lib/gcc/arm-none-eabi/4.9.3/../../../arm-none-eabi/lib/armv7e-m/fpu/libm.a(lib_a-kf_tan.o)
 .text          0x00000000        0x0 /usr/lib/gcc/arm-none-eabi/4.9.3/../../../arm-none-eabi/lib/armv7e-m/fpu/libm.a(lib_a-s_lib_ver.o)
 .data          0x00000000        0x0 /usr/lib/gcc/arm-none-eabi/4.9.3/../../../arm-none-eabi/lib/armv7e-m/fpu/libm.a(lib_a-s_lib_ver.o)
 .bss           0x00000000        0x0 /usr/lib/gcc/arm-none-eabi/4.9.3/../../../arm-none-eabi/lib/armv7e-m/fpu/libm.a(lib_a-s_lib_ver.o)
 .text          0x00000000        0x0 /usr/lib/gcc/arm-none-eabi/4.9.3/../../../arm-none-eabi/lib/armv7e-m/fpu/libm.a(lib_a-s_matherr.o)
 .data          0x00000000        0x0 /usr/lib/gcc/arm-none-eabi/4.9.3/../../../arm-none-eabi/lib/armv7e-m/fpu/libm.a(lib_a-s_matherr.o)
 .bss           0x00000000        0x0 /usr/lib/gcc/arm-none-eabi/4.9.3/../../../arm-none-eabi/lib/armv7e-m/fpu/libm.a(lib_a-s_matherr.o)
 .text          0x00000000        0x0 /usr/lib/gcc/arm-none-eabi/4.9.3/../../../arm-none-eabi/lib/armv7e-m/fpu/libm.a(lib_a-s_rint.o)
 .data          0x00000000        0x0 /usr/lib/gcc/arm-none-eabi/4.9.3/../../../arm-none-eabi/lib/armv7e-m/fpu/libm.a(lib_a-s_rint.o)
 .bss           0x00000000        0x0 /usr/lib/gcc/arm-none-eabi/4.9.3/../../../arm-none-eabi/lib/armv7e-m/fpu/libm.a(lib_a-s_rint.o)
 .text          0x00000000        0x0 /usr/lib/gcc/arm-none-eabi/4.9.3/../../../arm-none-eabi/lib/armv7e-m/fpu/libm.a(lib_a-sf_fabs.o)
 .data          0x00000000        0x0 /usr/lib/gcc/arm-none-eabi/4.9.3/../../../arm-none-eabi/lib/armv7e-m/fpu/libm.a(lib_a-sf_fabs.o)
 .bss           0x00000000        0x0 /usr/lib/gcc/arm-none-eabi/4.9.3/../../../arm-none-eabi/lib/armv7e-m/fpu/libm.a(lib_a-sf_fabs.o)
 .text          0x00000000        0x0 /usr/lib/gcc/arm-none-eabi/4.9.3/../../../arm-none-eabi/lib/armv7e-m/fpu/libm.a(lib_a-sf_finite.o)
 .data          0x00000000        0x0 /usr/lib/gcc/arm-none-eabi/4.9.3/../../../arm-none-eabi/lib/armv7e-m/fpu/libm.a(lib_a-sf_finite.o)
 .bss           0x00000000        0x0 /usr/lib/gcc/arm-none-eabi/4.9.3/../../../arm-none-eabi/lib/armv7e-m/fpu/libm.a(lib_a-sf_finite.o)
 .text          0x00000000        0x0 /usr/lib/gcc/arm-none-eabi/4.9.3/../../../arm-none-eabi/lib/armv7e-m/fpu/libm.a(lib_a-sf_floor.o)
 .data          0x00000000        0x0 /usr/lib/gcc/arm-none-eabi/4.9.3/../../../arm-none-eabi/lib/armv7e-m/fpu/libm.a(lib_a-sf_floor.o)
 .bss           0x00000000        0x0 /usr/lib/gcc/arm-none-eabi/4.9.3/../../../arm-none-eabi/lib/armv7e-m/fpu/libm.a(lib_a-sf_floor.o)
 .text          0x00000000        0x0 /usr/lib/gcc/arm-none-eabi/4.9.3/../../../arm-none-eabi/lib/armv7e-m/fpu/libm.a(lib_a-sf_fpclassify.o)
 .data          0x00000000        0x0 /usr/lib/gcc/arm-none-eabi/4.9.3/../../../arm-none-eabi/lib/armv7e-m/fpu/libm.a(lib_a-sf_fpclassify.o)
 .bss           0x00000000        0x0 /usr/lib/gcc/arm-none-eabi/4.9.3/../../../arm-none-eabi/lib/armv7e-m/fpu/libm.a(lib_a-sf_fpclassify.o)
 .text          0x00000000        0x0 /usr/lib/gcc/arm-none-eabi/4.9.3/../../../arm-none-eabi/lib/armv7e-m/fpu/libm.a(lib_a-sf_nan.o)
 .data          0x00000000        0x0 /usr/lib/gcc/arm-none-eabi/4.9.3/../../../arm-none-eabi/lib/armv7e-m/fpu/libm.a(lib_a-sf_nan.o)
 .bss           0x00000000        0x0 /usr/lib/gcc/arm-none-eabi/4.9.3/../../../arm-none-eabi/lib/armv7e-m/fpu/libm.a(lib_a-sf_nan.o)
 .text          0x00000000        0x0 /usr/lib/gcc/arm-none-eabi/4.9.3/../../../arm-none-eabi/lib/armv7e-m/fpu/libm.a(lib_a-sf_scalbn.o)
 .data          0x00000000        0x0 /usr/lib/gcc/arm-none-eabi/4.9.3/../../../arm-none-eabi/lib/armv7e-m/fpu/libm.a(lib_a-sf_scalbn.o)
 .bss           0x00000000        0x0 /usr/lib/gcc/arm-none-eabi/4.9.3/../../../arm-none-eabi/lib/armv7e-m/fpu/libm.a(lib_a-sf_scalbn.o)
 .text          0x00000000        0x0 /usr/lib/gcc/arm-none-eabi/4.9.3/../../../arm-none-eabi/lib/armv7e-m/fpu/libm.a(lib_a-sf_copysign.o)
 .data          0x00000000        0x0 /usr/lib/gcc/arm-none-eabi/4.9.3/../../../arm-none-eabi/lib/armv7e-m/fpu/libm.a(lib_a-sf_copysign.o)
 .bss           0x00000000        0x0 /usr/lib/gcc/arm-none-eabi/4.9.3/../../../arm-none-eabi/lib/armv7e-m/fpu/libm.a(lib_a-sf_copysign.o)
 .text          0x00000000        0x0 /usr/lib/gcc/arm-none-eabi/4.9.3/../../../arm-none-eabi/lib/armv7e-m/fpu/libc_nano.a(lib_a-errno.o)
 .data          0x00000000        0x0 /usr/lib/gcc/arm-none-eabi/4.9.3/../../../arm-none-eabi/lib/armv7e-m/fpu/libc_nano.a(lib_a-errno.o)
 .bss           0x00000000        0x0 /usr/lib/gcc/arm-none-eabi/4.9.3/../../../arm-none-eabi/lib/armv7e-m/fpu/libc_nano.a(lib_a-errno.o)
 .text          0x00000000        0x0 /usr/lib/gcc/arm-none-eabi/4.9.3/../../../arm-none-eabi/lib/armv7e-m/fpu/libc_nano.a(lib_a-memcmp.o)
 .data          0x00000000        0x0 /usr/lib/gcc/arm-none-eabi/4.9.3/../../../arm-none-eabi/lib/armv7e-m/fpu/libc_nano.a(lib_a-memcmp.o)
 .bss           0x00000000        0x0 /usr/lib/gcc/arm-none-eabi/4.9.3/../../../arm-none-eabi/lib/armv7e-m/fpu/libc_nano.a(lib_a-memcmp.o)
 .text          0x00000000        0x0 /usr/lib/gcc/arm-none-eabi/4.9.3/../../../arm-none-eabi/lib/armv7e-m/fpu/libc_nano.a(lib_a-memcpy.o)
 .data          0x00000000        0x0 /usr/lib/gcc/arm-none-eabi/4.9.3/../../../arm-none-eabi/lib/armv7e-m/fpu/libc_nano.a(lib_a-memcpy.o)
 .bss           0x00000000        0x0 /usr/lib/gcc/arm-none-eabi/4.9.3/../../../arm-none-eabi/lib/armv7e-m/fpu/libc_nano.a(lib_a-memcpy.o)
 .text          0x00000000        0x0 /usr/lib/gcc/arm-none-eabi/4.9.3/../../../arm-none-eabi/lib/armv7e-m/fpu/libc_nano.a(lib_a-memset.o)
 .data          0x00000000        0x0 /usr/lib/gcc/arm-none-eabi/4.9.3/../../../arm-none-eabi/lib/armv7e-m/fpu/libc_nano.a(lib_a-memset.o)
 .bss           0x00000000        0x0 /usr/lib/gcc/arm-none-eabi/4.9.3/../../../arm-none-eabi/lib/armv7e-m/fpu/libc_nano.a(lib_a-memset.o)
 .text          0x00000000        0x0 /usr/lib/gcc/arm-none-eabi/4.9.3/../../../arm-none-eabi/lib/armv7e-m/fpu/libc_nano.a(lib_a-strcasecmp.o)
 .data          0x00000000        0x0 /usr/lib/gcc/arm-none-eabi/4.9.3/../../../arm-none-eabi/lib/armv7e-m/fpu/libc_nano.a(lib_a-strcasecmp.o)
 .bss           0x00000000        0x0 /usr/lib/gcc/arm-none-eabi/4.9.3/../../../arm-none-eabi/lib/armv7e-m/fpu/libc_nano.a(lib_a-strcasecmp.o)
 .text          0x00000000        0x0 /usr/lib/gcc/arm-none-eabi/4.9.3/../../../arm-none-eabi/lib/armv7e-m/fpu/libc_nano.a(lib_a-strcat.o)
 .data          0x00000000        0x0 /usr/lib/gcc/arm-none-eabi/4.9.3/../../../arm-none-eabi/lib/armv7e-m/fpu/libc_nano.a(lib_a-strcat.o)
 .bss           0x00000000        0x0 /usr/lib/gcc/arm-none-eabi/4.9.3/../../../arm-none-eabi/lib/armv7e-m/fpu/libc_nano.a(lib_a-strcat.o)
 .text          0x00000000        0x0 /usr/lib/gcc/arm-none-eabi/4.9.3/../../../arm-none-eabi/lib/armv7e-m/fpu/libc_nano.a(lib_a-strchr.o)
 .data          0x00000000        0x0 /usr/lib/gcc/arm-none-eabi/4.9.3/../../../arm-none-eabi/lib/armv7e-m/fpu/libc_nano.a(lib_a-strchr.o)
 .bss           0x00000000        0x0 /usr/lib/gcc/arm-none-eabi/4.9.3/../../../arm-none-eabi/lib/armv7e-m/fpu/libc_nano.a(lib_a-strchr.o)
 .text          0x00000000        0x0 /usr/lib/gcc/arm-none-eabi/4.9.3/../../../arm-none-eabi/lib/armv7e-m/fpu/libc_nano.a(lib_a-strlen.o)
 .data          0x00000000        0x0 /usr/lib/gcc/arm-none-eabi/4.9.3/../../../arm-none-eabi/lib/armv7e-m/fpu/libc_nano.a(lib_a-strlen.o)
 .bss           0x00000000        0x0 /usr/lib/gcc/arm-none-eabi/4.9.3/../../../arm-none-eabi/lib/armv7e-m/fpu/libc_nano.a(lib_a-strlen.o)
 .text          0x00000000        0x0 /usr/lib/gcc/arm-none-eabi/4.9.3/../../../arm-none-eabi/lib/armv7e-m/fpu/libc_nano.a(lib_a-strncasecmp.o)
 .data          0x00000000        0x0 /usr/lib/gcc/arm-none-eabi/4.9.3/../../../arm-none-eabi/lib/armv7e-m/fpu/libc_nano.a(lib_a-strncasecmp.o)
 .bss           0x00000000        0x0 /usr/lib/gcc/arm-none-eabi/4.9.3/../../../arm-none-eabi/lib/armv7e-m/fpu/libc_nano.a(lib_a-strncasecmp.o)
 .text          0x00000000        0x0 /usr/lib/gcc/arm-none-eabi/4.9.3/../../../arm-none-eabi/lib/armv7e-m/fpu/libc_nano.a(lib_a-strncpy.o)
 .data          0x00000000        0x0 /usr/lib/gcc/arm-none-eabi/4.9.3/../../../arm-none-eabi/lib/armv7e-m/fpu/libc_nano.a(lib_a-strncpy.o)
 .bss           0x00000000        0x0 /usr/lib/gcc/arm-none-eabi/4.9.3/../../../arm-none-eabi/lib/armv7e-m/fpu/libc_nano.a(lib_a-strncpy.o)
 .text          0x00000000        0x0 /usr/lib/gcc/arm-none-eabi/4.9.3/../../../arm-none-eabi/lib/armv7e-m/fpu/libc_nano.a(lib_a-strstr.o)
 .data          0x00000000        0x0 /usr/lib/gcc/arm-none-eabi/4.9.3/../../../arm-none-eabi/lib/armv7e-m/fpu/libc_nano.a(lib_a-strstr.o)
 .bss           0x00000000        0x0 /usr/lib/gcc/arm-none-eabi/4.9.3/../../../arm-none-eabi/lib/armv7e-m/fpu/libc_nano.a(lib_a-strstr.o)
 .data          0x00000000        0x0 /usr/lib/gcc/arm-none-eabi/4.9.3/armv7e-m/fpu/libgcc.a(_ashrdi3.o)
 .bss           0x00000000        0x0 /usr/lib/gcc/arm-none-eabi/4.9.3/armv7e-m/fpu/libgcc.a(_ashrdi3.o)
 .data          0x00000000        0x0 /usr/lib/gcc/arm-none-eabi/4.9.3/armv7e-m/fpu/libgcc.a(_arm_addsubdf3.o)
 .bss           0x00000000        0x0 /usr/lib/gcc/arm-none-eabi/4.9.3/armv7e-m/fpu/libgcc.a(_arm_addsubdf3.o)
 .data          0x00000000        0x0 /usr/lib/gcc/arm-none-eabi/4.9.3/armv7e-m/fpu/libgcc.a(_arm_muldivdf3.o)
 .bss           0x00000000        0x0 /usr/lib/gcc/arm-none-eabi/4.9.3/armv7e-m/fpu/libgcc.a(_arm_muldivdf3.o)
 .data          0x00000000        0x0 /usr/lib/gcc/arm-none-eabi/4.9.3/armv7e-m/fpu/libgcc.a(_arm_cmpdf2.o)
 .bss           0x00000000        0x0 /usr/lib/gcc/arm-none-eabi/4.9.3/armv7e-m/fpu/libgcc.a(_arm_cmpdf2.o)
 .data          0x00000000        0x0 /usr/lib/gcc/arm-none-eabi/4.9.3/armv7e-m/fpu/libgcc.a(_arm_truncdfsf2.o)
 .bss           0x00000000        0x0 /usr/lib/gcc/arm-none-eabi/4.9.3/armv7e-m/fpu/libgcc.a(_arm_truncdfsf2.o)
 .data          0x00000000        0x0 /usr/lib/gcc/arm-none-eabi/4.9.3/armv7e-m/fpu/libgcc.a(_aeabi_ldivmod.o)
 .bss           0x00000000        0x0 /usr/lib/gcc/arm-none-eabi/4.9.3/armv7e-m/fpu/libgcc.a(_aeabi_ldivmod.o)
 .data          0x00000000        0x0 /usr/lib/gcc/arm-none-eabi/4.9.3/armv7e-m/fpu/libgcc.a(_fixsfdi.o)
 .bss           0x00000000        0x0 /usr/lib/gcc/arm-none-eabi/4.9.3/armv7e-m/fpu/libgcc.a(_fixsfdi.o)
 .data          0x00000000        0x0 /usr/lib/gcc/arm-none-eabi/4.9.3/armv7e-m/fpu/libgcc.a(_fixunssfdi.o)
 .bss           0x00000000        0x0 /usr/lib/gcc/arm-none-eabi/4.9.3/armv7e-m/fpu/libgcc.a(_fixunssfdi.o)
 .data          0x00000000        0x0 /usr/lib/gcc/arm-none-eabi/4.9.3/armv7e-m/fpu/libgcc.a(bpabi.o)
 .bss           0x00000000        0x0 /usr/lib/gcc/arm-none-eabi/4.9.3/armv7e-m/fpu/libgcc.a(bpabi.o)
 .data          0x00000000        0x0 /usr/lib/gcc/arm-none-eabi/4.9.3/armv7e-m/fpu/libgcc.a(_dvmd_tls.o)
 .bss           0x00000000        0x0 /usr/lib/gcc/arm-none-eabi/4.9.3/armv7e-m/fpu/libgcc.a(_dvmd_tls.o)
 .data          0x00000000        0x0 /usr/lib/gcc/arm-none-eabi/4.9.3/armv7e-m/fpu/libgcc.a(_arm_fixunsdfsi.o)
 .bss           0x00000000        0x0 /usr/lib/gcc/arm-none-eabi/4.9.3/armv7e-m/fpu/libgcc.a(_arm_fixunsdfsi.o)
 .data          0x00000000        0x0 /usr/lib/gcc/arm-none-eabi/4.9.3/armv7e-m/fpu/libgcc.a(_divdi3.o)
 .bss           0x00000000        0x0 /usr/lib/gcc/arm-none-eabi/4.9.3/armv7e-m/fpu/libgcc.a(_divdi3.o)
 .ARM.extab     0x00000000        0x0 /usr/lib/gcc/arm-none-eabi/4.9.3/armv7e-m/fpu/libgcc.a(_divdi3.o)
 .data          0x00000000        0x0 /usr/lib/gcc/arm-none-eabi/4.9.3/armv7e-m/fpu/libgcc.a(_udivdi3.o)
 .bss           0x00000000        0x0 /usr/lib/gcc/arm-none-eabi/4.9.3/armv7e-m/fpu/libgcc.a(_udivdi3.o)
 .ARM.extab     0x00000000        0x0 /usr/lib/gcc/arm-none-eabi/4.9.3/armv7e-m/fpu/libgcc.a(_udivdi3.o)

Memory Configuration

Name             Origin             Length             Attributes
FLASH            0x08000000         0x0003f000         xr
RAM              0x20000000         0x0000a000         xrw
MEMORY_B1        0x60000000         0x00000000         xr
*default*        0x00000000         0xffffffff

Linker script and memory map

LOAD obj/main/SPRACINGF3/startup_stm32f30x_md_gcc.o
LOAD obj/main/SPRACINGF3/drivers/adc.o
LOAD /tmp/ccGYWBCE.ltrans0.ltrans.o
LOAD /tmp/ccGYWBCE.ltrans1.ltrans.o
LOAD /tmp/ccGYWBCE.ltrans2.ltrans.o
LOAD /tmp/ccGYWBCE.ltrans3.ltrans.o
LOAD /tmp/ccGYWBCE.ltrans4.ltrans.o
LOAD /tmp/ccGYWBCE.ltrans5.ltrans.o
LOAD /tmp/ccGYWBCE.ltrans6.ltrans.o
LOAD /tmp/ccGYWBCE.ltrans7.ltrans.o
LOAD /tmp/ccGYWBCE.ltrans8.ltrans.o
LOAD /tmp/ccGYWBCE.ltrans9.ltrans.o
LOAD /tmp/ccGYWBCE.ltrans10.ltrans.o
LOAD /tmp/ccGYWBCE.ltrans11.ltrans.o
LOAD /tmp/ccGYWBCE.ltrans12.ltrans.o
LOAD /tmp/ccGYWBCE.ltrans13.ltrans.o
LOAD /tmp/ccGYWBCE.ltrans14.ltrans.o
LOAD /tmp/ccGYWBCE.ltrans15.ltrans.o
LOAD /tmp/ccGYWBCE.ltrans16.ltrans.o
LOAD /tmp/ccGYWBCE.ltrans17.ltrans.o
LOAD /tmp/ccGYWBCE.ltrans18.ltrans.o
LOAD /tmp/ccGYWBCE.ltrans19.ltrans.o
LOAD /tmp/ccGYWBCE.ltrans20.ltrans.o
LOAD /tmp/ccGYWBCE.ltrans21.ltrans.o
LOAD /tmp/ccGYWBCE.ltrans22.ltrans.o
LOAD /tmp/ccGYWBCE.ltrans23.ltrans.o
LOAD /tmp/ccGYWBCE.ltrans24.ltrans.o
LOAD /tmp/ccGYWBCE.ltrans25.ltrans.o
LOAD /tmp/ccGYWBCE.ltrans26.ltrans.o
LOAD obj/main/SPRACINGF3/drivers/adc_stm32f30x.o
LOAD obj/main/SPRACINGF3/drivers/bus_i2c_stm32f30x.o
LOAD obj/main/SPRACINGF3/drivers/bus_spi.o
LOAD obj/main/SPRACINGF3/drivers/display_ug2864hsweg01.o
LOAD obj/main/SPRACINGF3/drivers/gpio_stm32f30x.o
LOAD obj/main/SPRACINGF3/drivers/light_led_stm32f30x.o
LOAD obj/main/SPRACINGF3/drivers/pwm_mapping.o
LOAD obj/main/SPRACINGF3/drivers/pwm_output.o
LOAD obj/main/SPRACINGF3/drivers/pwm_rx.o
LOAD obj/main/SPRACINGF3/drivers/serial_uart.o
LOAD obj/main/SPRACINGF3/drivers/serial_uart_stm32f30x.o
LOAD obj/main/SPRACINGF3/drivers/sound_beeper_stm32f30x.o
LOAD obj/main/SPRACINGF3/drivers/system_stm32f30x.o
LOAD obj/main/SPRACINGF3/drivers/timer.o
LOAD obj/main/SPRACINGF3/drivers/timer_stm32f30x.o
LOAD obj/main/SPRACINGF3/drivers/accgyro_mpu.o
LOAD obj/main/SPRACINGF3/drivers/accgyro_mpu6050.o
LOAD obj/main/SPRACINGF3/drivers/barometer_ms5611.o
LOAD obj/main/SPRACINGF3/drivers/compass_ak8975.o
LOAD obj/main/SPRACINGF3/drivers/compass_hmc5883l.o
LOAD obj/main/SPRACINGF3/drivers/flash_m25p16.o
LOAD obj/main/SPRACINGF3/drivers/light_ws2811strip.o
LOAD obj/main/SPRACINGF3/drivers/light_ws2811strip_stm32f30x.o
LOAD obj/main/SPRACINGF3/drivers/serial_softserial.o
LOAD obj/main/SPRACINGF3/drivers/sonar_hcsr04.o
LOAD obj/main/SPRACINGF3/io/flashfs.o
LOAD obj/main/SPRACINGF3/flight/gtune.o
LOAD obj/main/SPRACINGF3/flight/navigation.o
LOAD obj/main/SPRACINGF3/flight/gps_conversion.o
LOAD obj/main/SPRACINGF3/common/colorconversion.o
LOAD obj/main/SPRACINGF3/io/gps.o
LOAD obj/main/SPRACINGF3/io/ledstrip.o
LOAD obj/main/SPRACINGF3/io/display.o
LOAD obj/main/SPRACINGF3/telemetry/telemetry.o
LOAD obj/main/SPRACINGF3/telemetry/frsky.o
LOAD obj/main/SPRACINGF3/telemetry/hott.o
LOAD obj/main/SPRACINGF3/telemetry/smartport.o
LOAD obj/main/SPRACINGF3/telemetry/ltm.o
LOAD obj/main/SPRACINGF3/sensors/sonar.o
LOAD obj/main/SPRACINGF3/sensors/barometer.o
LOAD obj/main/SPRACINGF3/blackbox/blackbox.o
LOAD obj/main/SPRACINGF3/blackbox/blackbox_io.o
LOAD obj/main/SPRACINGF3/build_config.o
LOAD obj/main/SPRACINGF3/debug.o
LOAD obj/main/SPRACINGF3/version.o
LOAD obj/main/SPRACINGF3/system_stm32f30x.o
LOAD obj/main/SPRACINGF3/config/config.o
LOAD obj/main/SPRACINGF3/config/runtime_config.o
LOAD obj/main/SPRACINGF3/common/maths.o
LOAD obj/main/SPRACINGF3/common/printf.o
LOAD obj/main/SPRACINGF3/common/typeconversion.o
LOAD obj/main/SPRACINGF3/common/encoding.o
LOAD obj/main/SPRACINGF3/common/filter.o
LOAD obj/main/SPRACINGF3/scheduler.o
LOAD obj/main/SPRACINGF3/scheduler_tasks.o
LOAD obj/main/SPRACINGF3/main.o
LOAD obj/main/SPRACINGF3/mw.o
LOAD obj/main/SPRACINGF3/flight/altitudehold.o
LOAD obj/main/SPRACINGF3/flight/failsafe.o
LOAD obj/main/SPRACINGF3/flight/pid.o
LOAD obj/main/SPRACINGF3/flight/imu.o
LOAD obj/main/SPRACINGF3/flight/mixer.o
LOAD obj/main/SPRACINGF3/flight/lowpass.o
LOAD obj/main/SPRACINGF3/drivers/bus_i2c_soft.o
LOAD obj/main/SPRACINGF3/drivers/serial.o
LOAD obj/main/SPRACINGF3/drivers/sound_beeper.o
LOAD obj/main/SPRACINGF3/drivers/system.o
LOAD obj/main/SPRACINGF3/drivers/dma.o
LOAD obj/main/SPRACINGF3/drivers/buf_writer.o
LOAD obj/main/SPRACINGF3/drivers/gyro_sync.o
LOAD obj/main/SPRACINGF3/io/beeper.o
LOAD obj/main/SPRACINGF3/io/rc_controls.o
LOAD obj/main/SPRACINGF3/io/rc_curves.o
LOAD obj/main/SPRACINGF3/io/serial.o
LOAD obj/main/SPRACINGF3/io/serial_1wire.o
LOAD obj/main/SPRACINGF3/io/serial_cli.o
LOAD obj/main/SPRACINGF3/io/serial_msp.o
LOAD obj/main/SPRACINGF3/io/statusindicator.o
LOAD obj/main/SPRACINGF3/rx/rx.o
LOAD obj/main/SPRACINGF3/rx/pwm.o
LOAD obj/main/SPRACINGF3/rx/msp.o
LOAD obj/main/SPRACINGF3/rx/sbus.o
LOAD obj/main/SPRACINGF3/rx/sumd.o
LOAD obj/main/SPRACINGF3/rx/sumh.o
LOAD obj/main/SPRACINGF3/rx/spektrum.o
LOAD obj/main/SPRACINGF3/rx/xbus.o
LOAD obj/main/SPRACINGF3/rx/ibus.o
LOAD obj/main/SPRACINGF3/sensors/acceleration.o
LOAD obj/main/SPRACINGF3/sensors/battery.o
LOAD obj/main/SPRACINGF3/sensors/boardalignment.o
LOAD obj/main/SPRACINGF3/sensors/compass.o
LOAD obj/main/SPRACINGF3/sensors/gyro.o
LOAD obj/main/SPRACINGF3/sensors/initialisation.o
LOAD obj/main/SPRACINGF3/stm32f30x_rcc.o
LOAD obj/main/SPRACINGF3/stm32f30x_gpio.o
LOAD obj/main/SPRACINGF3/stm32f30x_comp.o
LOAD obj/main/SPRACINGF3/stm32f30x_exti.o
LOAD obj/main/SPRACINGF3/stm32f30x_dma.o
LOAD obj/main/SPRACINGF3/stm32f30x_dbgmcu.o
LOAD obj/main/SPRACINGF3/stm32f30x_dac.o
LOAD obj/main/SPRACINGF3/stm32f30x_opamp.o
LOAD obj/main/SPRACINGF3/stm32f30x_pwr.o
LOAD obj/main/SPRACINGF3/stm32f30x_i2c.o
LOAD obj/main/SPRACINGF3/stm32f30x_flash.o
LOAD obj/main/SPRACINGF3/stm32f30x_syscfg.o
LOAD obj/main/SPRACINGF3/stm32f30x_spi.o
LOAD obj/main/SPRACINGF3/stm32f30x_usart.o
LOAD obj/main/SPRACINGF3/stm32f30x_misc.o
LOAD obj/main/SPRACINGF3/stm32f30x_rtc.o
LOAD obj/main/SPRACINGF3/stm32f30x_tim.o
LOAD obj/main/SPRACINGF3/stm32f30x_hrtim.o
LOAD obj/main/SPRACINGF3/stm32f30x_iwdg.o
LOAD obj/main/SPRACINGF3/stm32f30x_adc.o
LOAD obj/main/SPRACINGF3/stm32f30x_wwdg.o
LOAD /usr/lib/gcc/arm-none-eabi/4.9.3/../../../arm-none-eabi/lib/armv7e-m/fpu/libm.a
LOAD /usr/lib/gcc/arm-none-eabi/4.9.3/../../../arm-none-eabi/lib/armv7e-m/fpu/libc_nano.a
LOAD /usr/lib/gcc/arm-none-eabi/4.9.3/../../../arm-none-eabi/lib/armv7e-m/fpu/libnosys.a
START GROUP
LOAD /usr/lib/gcc/arm-none-eabi/4.9.3/armv7e-m/fpu/libgcc.a
LOAD /usr/lib/gcc/arm-none-eabi/4.9.3/../../../arm-none-eabi/lib/armv7e-m/fpu/libg_nano.a
LOAD /usr/lib/gcc/arm-none-eabi/4.9.3/../../../arm-none-eabi/lib/armv7e-m/fpu/libc_nano.a
END GROUP
START GROUP
LOAD /usr/lib/gcc/arm-none-eabi/4.9.3/armv7e-m/fpu/libgcc.a
LOAD /usr/lib/gcc/arm-none-eabi/4.9.3/../../../arm-none-eabi/lib/armv7e-m/fpu/libc_nano.a
END GROUP
                0x2000a000                _estack = (ORIGIN (RAM) + LENGTH (RAM))
                0x00000000                _Min_Heap_Size = 0x0
                0x00000400                _Min_Stack_Size = 0x400

.isr_vector     0x08000000      0x188
                0x08000000                . = ALIGN (0x4)
                [!provide]                PROVIDE (isr_vector_table_base, .)
 *(.isr_vector)
 .isr_vector    0x08000000      0x188 obj/main/SPRACINGF3/startup_stm32f30x_md_gcc.o
                0x08000000                g_pfnVectors
                0x08000188                . = ALIGN (0x4)

.text           0x08000188    0x1c7d8
                0x08000188                . = ALIGN (0x4)
 *(.text)
 .text          0x08000188     0x22f4 /tmp/ccGYWBCE.ltrans0.ltrans.o
                0x08000188                init
 .text          0x0800247c     0x1d3c /tmp/ccGYWBCE.ltrans1.ltrans.o
                0x0800247c                taskMainPidLoopChecker
 .text          0x080041b8     0x221c /tmp/ccGYWBCE.ltrans2.ltrans.o
                0x080041b8                taskHandleSerial
 .text          0x080063d4     0x129c /tmp/ccGYWBCE.ltrans3.ltrans.o
                0x080063d4                taskUpdateRxMain
 .text          0x08007670      0xd44 /tmp/ccGYWBCE.ltrans4.ltrans.o
                0x08007670                pwmOverflowCallback.lto_priv.440
                0x08007698                ppmEdgeCallback.lto_priv.441
                0x08007778                ppmOverflowCallback.lto_priv.442
                0x08007788                pwmWriteStandard.lto_priv.437
                0x08007798                pwmWriteBrushed.lto_priv.438
                0x080077e0                uartReconfigure.lto_priv.540
                0x08007908                uartOpen
                0x08007d68                pwmICConfig
                0x08007da4                pwmEdgeCallback.lto_priv.439
                0x08007dfc                pwmWriteServo
                0x08007e14                gpioInit
                0x08007e66                pwmOutConfig.lto_priv.473
                0x08008048                i2cRead
                0x08008140                i2cWrite
                0x0800821c                i2c_OLED_send_byte.lto_priv.514
                0x08008224                i2c_OLED_send_char
                0x08008258                i2c_OLED_send_string
                0x0800826a                i2c_OLED_send_cmd.lto_priv.472
                0x08008272                ug2864hsweg01InitI2C.part.0.lto_priv.471
                0x08008350                i2c_OLED_set_line
                0x08008368                i2c_OLED_set_xy
                0x08008392                i2cGetErrorCounter
 .text          0x080083b4      0xcf0 /tmp/ccGYWBCE.ltrans5.ltrans.o
                0x080083b4                taskTelemetry
 .text          0x080090a4      0x634 /tmp/ccGYWBCE.ltrans6.ltrans.o
                0x080090a4                taskLedStrip
 .text          0x080096d8      0xc94 /tmp/ccGYWBCE.ltrans7.ltrans.o
                0x080096d8                dmaNoOpHandler
                0x08009730                cliShowArgumentRangeError.lto_priv.200
                0x0800974c                cliAux.lto_priv.183
                0x08009838                cliShowParseError.lto_priv.201
                0x08009844                cliMotorMix.lto_priv.191
                0x08009a54                cliAdjustmentRange.lto_priv.182
                0x08009bb0                cliRxFail.lto_priv.193
                0x08009ce0                closeSerialPort
                0x08009d08                openSerialPort
                0x08009da8                serialFindPortConfiguration
                0x08009dd0                cliSerial.lto_priv.194
                0x08009f14                determinePortSharing
                0x08009f28                findNextSerialPortConfig
                0x08009f5c                findSerialPortConfig
                0x08009f68                generateThrottleCurve
                0x08009ffc                generatePitchRollCurve
                0x0800a030                isRangeActive.part.3.lto_priv.271
                0x0800a07c                isModeActivationConditionPresent
                0x0800a09e                calculateThrottleStatus
                0x0800a0d4                blackboxLogInflightAdjustmentEvent
                0x0800a0fc                beeperSilence
                0x0800a124                beeper
                0x0800a168                beeperConfirmationBeeps
                0x0800a198                bufWriterFlush
                0x0800a1b0                cliPrompt.lto_priv.339
                0x0800a1cc                bufWriterAppend
                0x0800a1e8                DMA1_Channel7_IRQHandler
                0x0800a1f8                DMA1_Channel6_IRQHandler
                0x0800a208                DMA1_Channel3_IRQHandler
                0x0800a218                DMA1_Channel2_IRQHandler
                0x0800a228                micros
                0x0800a260                delayMicroseconds
                0x0800a276                delay
                0x0800a28a                waitForSerialPortToFinishTransmitting
                0x0800a2a0                failureMode
                0x0800a330                SysTick_Handler
                0x0800a340                EXTI15_10_IRQHandler
 .text          0x0800a36c      0xcf0 /tmp/ccGYWBCE.ltrans8.ltrans.o
                0x0800a36c                ibusReadRawRC.lto_priv.412
                0x0800a378                xBusReadRawRC.lto_priv.410
                0x0800a438                spektrumReadRawRC.lto_priv.172
                0x0800a464                sumhReadRawRC.lto_priv.403
                0x0800a47c                sumdReadRawRC.lto_priv.401
                0x0800a490                sbusReadRawRC.lto_priv.399
                0x0800a4c4                rxMspReadRawRC.lto_priv.414
                0x0800a4d4                ppmReadRawRC.lto_priv.416
                0x0800a4e4                pwmReadRawRC.lto_priv.415
                0x0800a4f4                nullReadRawRC.lto_priv.174
                0x0800a4f8                ibusDataReceive.lto_priv.413
                0x0800a544                xBusDataReceive.lto_priv.411
                0x0800a620                spektrumDataReceive.lto_priv.173
                0x0800a670                sumhDataReceive.lto_priv.404
                0x0800a6bc                sumdDataReceive.lto_priv.402
                0x0800a768                sbusDataReceive.lto_priv.400
                0x0800a7c0                cliVersion.lto_priv.198
                0x0800a7f4                cliTasks.lto_priv.197
                0x0800a83c                RCC_GetClocksFreq
                0x0800ab18                alignSensors
                0x0800ac50                calculateBatteryCapacityRemainingPercentage
                0x0800ac9c                batteryAdcToVoltage
                0x0800acc8                updateBatteryVoltage.lto_priv.304
                0x0800acf8                getRxfailValue.lto_priv.273
                0x0800ad58                resumeRxSignal
                0x0800ad80                suspendRxSignal
                0x0800adac                warningLedRefresh
                0x0800adf8                packFlightModeFlags.lto_priv.338
                0x0800af20                mspReleasePortIfAllocated
                0x0800af60                read8.lto_priv.333
                0x0800af78                read16.lto_priv.334
                0x0800af8c                read32.lto_priv.335
                0x0800af9e                serialize8.lto_priv.332
                0x0800afc0                tailSerialReply.lto_priv.330
                0x0800afe4                headSerialResponse.lto_priv.176
                0x0800b030                headSerialReply.lto_priv.331
                0x0800b036                serialize16.lto_priv.336
                0x0800b048                serialize32.lto_priv.337
 .text          0x0800b05c      0xa84 /tmp/ccGYWBCE.ltrans9.ltrans.o
                0x0800b1a4                blackboxWrite
                0x0800b33c                blackboxAdvanceIterationTimers.lto_priv.358
                0x0800b378                blackboxLogEvent
                0x0800b428                blackboxLogIteration.lto_priv.359
                0x0800b984                sendFieldDefinition.lto_priv.360
 .text          0x0800bae0      0xd70 /tmp/ccGYWBCE.ltrans10.ltrans.o
                0x0800bae6                activateControlRateConfig
                0x0800bb2c                isEEPROMContentValid.lto_priv.474
                0x0800bb70                readEEPROM
                0x0800bf18                resetConf.lto_priv.199
                0x0800c4a4                SystemInit
                0x0800c50c                blackboxDeviceReserveBufferSpace
                0x0800c56c                isBlackboxDeviceFull
                0x0800c598                blackboxDeviceFlushForce
                0x0800c5bc                blackboxWriteTag2_3S32
                0x0800c6de                blackboxWriteUnsignedVB
                0x0800c6fe                blackboxWriteSignedVB
                0x0800c706                blackboxPrint
                0x0800c7dc                blackboxPrintfHeaderLine
                0x0800c82c                blackboxPrintf
 .text          0x0800c850      0xd74 /tmp/ccGYWBCE.ltrans11.ltrans.o
                0x0800c868                gpsNewFrame
                0x0800ce10                gpsSetState.lto_priv.257
                0x0800ce2c                GPS_distance_cm_bearing.isra.3.lto_priv.533
                0x0800ceb4                gpsNewData.part.2.lto_priv.202
 .text          0x0800d5c4      0xd74 /tmp/ccGYWBCE.ltrans12.ltrans.o
                0x0800d5c4                cliFeature.lto_priv.187
                0x0800d6b0                cliExit.lto_priv.186
                0x0800d728                cliFlashErase.lto_priv.188
                0x0800d754                cliFlashInfo.lto_priv.189
                0x0800d78c                cliServo.lto_priv.195
                0x0800d8d0                cliServoMix.lto_priv.196
                0x0800dbec                cliRxRange.lto_priv.192
                0x0800dccc                cliColor.lto_priv.184
                0x0800ddb0                cliLed.lto_priv.190
                0x0800dfd0                cliDump.lto_priv.185
 .text          0x0800e338      0xe6c /tmp/ccGYWBCE.ltrans13.ltrans.o
                0x0800e338                beepInverted.lto_priv.444
                0x0800e34c                beepNormal.lto_priv.445
                0x0800ec6c                registerExtiCallbackHandler
                0x0800ec98                systemBeep
                0x0800eca4                serialSetMode
                0x0800ecaa                isSerialTransmitBufferEmpty
                0x0800ecb0                serialSetBaudRate
                0x0800ecb6                serialRead
                0x0800ecbc                serialRxBytesWaiting
                0x0800ecc2                serialWrite
                0x0800ecc8                serialWriteBufShim
                0x0800ed04                lowpassFixed
                0x0800ef1c                writeMotors
                0x0800efbc                stopMotors
                0x0800f004                mixerResetDisarmedMotors
                0x0800f03c                loadCustomServoMixer
                0x0800f08c                determineServoMiddleOrForwardFromChannel
                0x0800f0c0                imuComputeRotationMatrix.lto_priv.363
                0x0800f180                pidSetController
 .text          0x0800f1a4      0xabc /tmp/ccGYWBCE.ltrans14.ltrans.o
                0x0800f4a0                wrap_18000.lto_priv.362
                0x0800f4c4                GPS_set_next_wp
                0x0800f558                gpsUsePIDs
                0x0800f61c                GPS_reset_home_position
                0x0800f670                calculate_Gtune
                0x0800f828                flashfsAdvanceTailInBuffer.lto_priv.492
                0x0800f858                flashfsGetDirtyDataBuffers.lto_priv.490
                0x0800f890                flashfsGetOffset
                0x0800f8b0                flashfsWriteBuffers.lto_priv.491
                0x0800f9fc                flashfsFlushSync
                0x0800fa34                flashfsFlushAsync
                0x0800fa78                flashfsTransmitBufferUsed.lto_priv.361
                0x0800fa98                flashfsEraseCompletely
                0x0800fad4                EXTI9_5_IRQHandler
                0x0800fad8                EXTI1_IRQHandler
                0x0800fadc                EXTI0_IRQHandler
                0x0800fae0                openSoftSerial
 .text          0x0800fc60      0xa60 /tmp/ccGYWBCE.ltrans15.ltrans.o
                0x0800fc60                ws2811DMAHandler
                0x0800fc88                ms5611_calculate.lto_priv.428
                0x0800fe48                mpuIsDataReady
                0x0800fe5c                mpuGyroRead
                0x0800fea4                mpuAccRead
                0x0800feec                hmc5883lRead
                0x0800ffac                ms5611_get_up.lto_priv.427
                0x0800ffbc                ms5611_get_ut.lto_priv.425
                0x0800ffcc                mpuReadRegisterI2C.lto_priv.421
                0x0800ffe2                ak8975Read
                0x08010076                ak8975Init
                0x080100e6                ms5611_start_up.lto_priv.426
                0x080100f0                ms5611_start_ut.lto_priv.424
                0x080100fa                mpuWriteRegisterI2C.lto_priv.422
                0x08010130                hmc5883lInit
                0x08010344                mpu6050GyroInit.lto_priv.423
                0x080103a8                mpu6050AccInit.lto_priv.429
                0x080103d4                serialICConfig.lto_priv.535
                0x080103fa                setTxSignal
                0x08010418                ws2811UpdateStrip
                0x080105d4                m25p16_isReady
                0x0801061c                m25p16_waitForReady
                0x0801063c                m25p16_readBytes
                0x08010688                m25p16_performOneByteCommand.lto_priv.534
 .text          0x080106c0      0x9d0 /tmp/ccGYWBCE.ltrans16.ltrans.o
                0x080106e8                spiTransfer.constprop.142
                0x08010728                NVIC_Init.part.0.constprop.132
                0x08010764                EXTI_Init.part.0.constprop.125
                0x08010840                GPS_coord_to_degrees.constprop.105
                0x08010900                grab_fields.constprop.104
                0x08010944                drawRxChannel.constprop.100
                0x08010990                blackboxWriteSigned16VBArray.constprop.74
                0x080109b0                blackboxWriteSignedVBArray.constprop.73
                0x080109ca                mspAllocateSerialPorts.constprop.71
                0x08010a44                resetSerialConfig.constprop.66
                0x08010aa0                FLASH_WaitForLastOperation.constprop.57
                0x08010ac4                parseRcChannels.constprop.54
                0x08010b00                itoa.constprop.49
                0x08010b22                spektrumInit.constprop.37
                0x08010ba4                findNextSharedSerialPort.constprop.16
                0x08010c0c                setAdjustment.constprop.14
                0x08010ca4                headSerialError.constprop.9
                0x08010cac                TIM_ICInit
                0x08010db6                TIM_OC1Init
                0x08010e30                SYSCFG_EXTILineConfig
                0x08010e5a                I2C_Init
                0x08010eb8                DMA_StructInit
                0x08010ed2                DMA_Init
                0x08010f0e                DMA_DeInit
                0x08011000                EXTI_ClearITPendingBit
                0x08011018                GPIO_Init
 .text          0x08011090      0x954 /tmp/ccGYWBCE.ltrans17.ltrans.o
                0x08011090                taskUpdateBaro
                0x0801116c                taskUpdateDisplay
                0x08011180                taskCalculateAltitude
                0x080115c4                taskUpdateSonar
                0x08011608                taskUpdateCompass
                0x0801174c                taskProcessGPS
 .text          0x080119e4      0x40c /tmp/ccGYWBCE.ltrans18.ltrans.o
                0x080119e4                mwArm
                0x08011d6c                mwDisarm
                0x08011dd4                HardFault_Handler
 .text          0x08011df0      0x980 /tmp/ccGYWBCE.ltrans19.ltrans.o
                0x08011e3c                drawHorizonalPercentageBar
                0x08011e8e                updateDisplay
                0x080125d0                applyDirectionalModeColor
                0x080126b0                reevalulateLedConfig
 .text          0x08012770      0xac8 /tmp/ccGYWBCE.ltrans20.ltrans.o
                0x08012770                taskSystem
                0x080128d6                _putc.lto_priv.447
                0x080128e4                applyBiQuadFilter
                0x08012936                BiQuadNewLpf
                0x080129ec                fastA2F
                0x08012b00                ftoa
                0x08012bd4                _i2a.lto_priv.175
                0x08012bfc                tfp_format
                0x08012dd6                tfp_sprintf
                0x08012e00                applyDeadband
                0x08012e1e                acosf
                0x08012e84                atan2f
                0x08012f68                sinf
                0x0801302c                cosf
                0x0801303c                disableFlightMode
                0x0801305c                enableFlightMode
                0x0801307c                featureClear
                0x0801308c                featureSet
                0x0801309c                handleOneshotFeatureChangeOnRestart
                0x080130f0                writeEEPROM
                0x08013224                saveConfigAndNotify
 .text          0x08013238      0x5bc /tmp/ccGYWBCE.ltrans21.ltrans.o
                0x080132a6                uartRead
                0x080132d6                isUartTransmitBufferEmpty
                0x080132ec                uartTotalTxBytesFree
                0x08013314                uartTotalRxBytesWaiting
                0x08013366                uartWrite
                0x0801344a                uartSetMode
                0x08013450                uartSetBaudRate
                0x08013456                mpuIntExtiInit
                0x08013518                TIM1_TRG_COM_TIM17_IRQHandler
                0x08013528                TIM1_BRK_TIM15_IRQHandler
                0x08013538                TIM4_IRQHandler
                0x08013548                TIM3_IRQHandler
                0x08013558                TIM2_IRQHandler
                0x08013564                TIM1_UP_TIM16_IRQHandler
                0x08013588                TIM1_CC_IRQHandler
                0x08013598                configTimeBase
                0x08013634                timerConfigure
                0x08013688                lookupTimerIndex.lto_priv.232
                0x080136e0                timerChConfigCallbacks
                0x08013794                USART3_IRQHandler
                0x0801379c                USART2_IRQHandler
                0x080137a4                USART1_IRQHandler
                0x080137ac                DMA1_Channel4_IRQHandler
 .text          0x080137f4      0x914 /tmp/ccGYWBCE.ltrans22.ltrans.o
                0x080137f8                cliGpsPassthrough.lto_priv.321
                0x0801389c                cliWrite.lto_priv.209
                0x080138ac                cliPrintf.lto_priv.180
                0x080138d4                cliPrintVar.lto_priv.210
                0x080139cc                cliRateProfile.lto_priv.207
                0x08013a14                cliProfile.lto_priv.208
                0x08013a50                cliPlaySound.lto_priv.326
                0x08013af0                cliMotor.lto_priv.325
                0x08013b90                cliPrint.lto_priv.205
                0x08013bac                cliStatus.lto_priv.329
                0x08013ca0                cliGet.lto_priv.320
                0x08013cf8                cliSet.lto_priv.328
                0x08013f14                cliMixer.lto_priv.324
                0x08013fb4                cliMap.lto_priv.323
                0x08014058                cliHelp.lto_priv.322
                0x0801409c                cliReboot.lto_priv.206
                0x080140d4                cliDefaults.lto_priv.319
                0x080140f0                cliSave.lto_priv.327
 .text          0x08014108      0x7bc /tmp/ccGYWBCE.ltrans23.ltrans.o
                0x08014108                taskUpdateRxCheck
                0x0801458c                taskUpdateBattery
                0x08014794                taskUpdateBeeper
 .text          0x080148c4      0x53c /tmp/ccGYWBCE.ltrans24.ltrans.o
                0x080149b8                sonarRead
                0x08014a40                ltm_finalise.lto_priv.247
                0x08014a58                ltm_serialise_8.lto_priv.248
                0x08014a7c                ltm_serialise_32.lto_priv.249
                0x08014a9e                ltm_serialise_16.lto_priv.251
                0x08014ab0                ltm_initialise_packet.lto_priv.250
                0x08014ae4                smartPortSendPackage.lto_priv.246
                0x08014b4c                workAroundForHottTelemetryOnUsart.isra.0.lto_priv.245
                0x08014b78                flushHottRxBuffer.lto_priv.244
                0x08014b94                serialize16.lto_priv.241
                0x08014ba8                sendTelemetryTail.lto_priv.240
                0x08014bb8                sendDataHead.lto_priv.242
                0x08014bd8                sendLatLong.lto_priv.243
                0x08014c50                telemetryCheckState
 .text          0x08014e00      0x1e4 /tmp/ccGYWBCE.ltrans25.ltrans.o
                0x08014e00                taskUpdateAccelerometer
 .text          0x08014fe4       0x9c /tmp/ccGYWBCE.ltrans26.ltrans.o
                0x08014fe4                filterIsSetCheck
                0x08015028                pidResetErrorAngle
                0x08015044                failsafeActivate.lto_priv.272
 .text          0x08015080       0x1c /usr/lib/gcc/arm-none-eabi/4.9.3/armv7e-m/fpu/libgcc.a(_ashrdi3.o)
                0x08015080                __ashrdi3
                0x08015080                __aeabi_lasr
 .text          0x0801509c      0x370 /usr/lib/gcc/arm-none-eabi/4.9.3/armv7e-m/fpu/libgcc.a(_arm_addsubdf3.o)
                0x0801509c                __aeabi_drsub
                0x080150a4                __aeabi_dsub
                0x080150a4                __subdf3
                0x080150a8                __adddf3
                0x080150a8                __aeabi_dadd
                0x08015320                __aeabi_ui2d
                0x08015320                __floatunsidf
                0x08015340                __floatsidf
                0x08015340                __aeabi_i2d
                0x08015364                __extendsfdf2
                0x08015364                __aeabi_f2d
                0x080153a0                __aeabi_ul2d
                0x080153a0                __floatundidf
                0x080153b0                __floatdidf
                0x080153b0                __aeabi_l2d
 .text          0x0801540c      0x424 /usr/lib/gcc/arm-none-eabi/4.9.3/armv7e-m/fpu/libgcc.a(_arm_muldivdf3.o)
                0x0801540c                __aeabi_dmul
                0x0801540c                __muldf3
                0x08015660                __aeabi_ddiv
                0x08015660                __divdf3
 .text          0x08015830      0x110 /usr/lib/gcc/arm-none-eabi/4.9.3/armv7e-m/fpu/libgcc.a(_arm_cmpdf2.o)
                0x08015830                __gtdf2
                0x08015830                __gedf2
                0x08015838                __ltdf2
                0x08015838                __ledf2
                0x08015840                __cmpdf2
                0x08015840                __eqdf2
                0x08015840                __nedf2
                0x080158bc                __aeabi_cdrcmple
                0x080158cc                __aeabi_cdcmple
                0x080158cc                __aeabi_cdcmpeq
                0x080158dc                __aeabi_dcmpeq
                0x080158f0                __aeabi_dcmplt
                0x08015904                __aeabi_dcmple
                0x08015918                __aeabi_dcmpge
                0x0801592c                __aeabi_dcmpgt
 .text          0x08015940       0xa0 /usr/lib/gcc/arm-none-eabi/4.9.3/armv7e-m/fpu/libgcc.a(_arm_truncdfsf2.o)
                0x08015940                __aeabi_d2f
                0x08015940                __truncdfsf2
 .text          0x080159e0       0x38 /usr/lib/gcc/arm-none-eabi/4.9.3/armv7e-m/fpu/libgcc.a(_aeabi_ldivmod.o)
                0x080159e0                __aeabi_ldivmod
 .text          0x08015a18       0x24 /usr/lib/gcc/arm-none-eabi/4.9.3/armv7e-m/fpu/libgcc.a(_fixsfdi.o)
                0x08015a18                __aeabi_f2lz
                0x08015a18                __fixsfdi
 .text          0x08015a3c       0x4c /usr/lib/gcc/arm-none-eabi/4.9.3/armv7e-m/fpu/libgcc.a(_fixunssfdi.o)
                0x08015a3c                __aeabi_f2ulz
                0x08015a3c                __fixunssfdi
 .text          0x08015a88       0x60 /usr/lib/gcc/arm-none-eabi/4.9.3/armv7e-m/fpu/libgcc.a(bpabi.o)
                0x08015a88                __gnu_ldivmod_helper
                0x08015ab8                __gnu_uldivmod_helper
 .text          0x08015ae8        0x4 /usr/lib/gcc/arm-none-eabi/4.9.3/armv7e-m/fpu/libgcc.a(_dvmd_tls.o)
                0x08015ae8                __aeabi_ldiv0
                0x08015ae8                __aeabi_idiv0
 .text          0x08015aec       0x40 /usr/lib/gcc/arm-none-eabi/4.9.3/armv7e-m/fpu/libgcc.a(_arm_fixunsdfsi.o)
                0x08015aec                __fixunsdfsi
                0x08015aec                __aeabi_d2uiz
 .text          0x08015b2c      0x29c /usr/lib/gcc/arm-none-eabi/4.9.3/armv7e-m/fpu/libgcc.a(_divdi3.o)
                0x08015b2c                __divdi3
 .text          0x08015dc8      0x26c /usr/lib/gcc/arm-none-eabi/4.9.3/armv7e-m/fpu/libgcc.a(_udivdi3.o)
                0x08015dc8                __udivdi3
 *(.text*)
 .text.Reset_Handler
                0x08016034       0x68 obj/main/SPRACINGF3/startup_stm32f30x_md_gcc.o
                0x08016034                Reset_Handler
 .text.Default_Handler
                0x0801609c        0x2 obj/main/SPRACINGF3/startup_stm32f30x_md_gcc.o
                0x0801609c                RTC_Alarm_IRQHandler
                0x0801609c                TIM8_TRG_COM_IRQHandler
                0x0801609c                TIM8_CC_IRQHandler
                0x0801609c                DebugMon_Handler
                0x0801609c                USB_HP_IRQHandler
                0x0801609c                PVD_IRQHandler
                0x0801609c                PendSV_Handler
                0x0801609c                NMI_Handler
                0x0801609c                EXTI3_IRQHandler
                0x0801609c                I2C2_EV_IRQHandler
                0x0801609c                FPU_IRQHandler
                0x0801609c                EXTI2_TS_IRQHandler
                0x0801609c                UsageFault_Handler
                0x0801609c                ADC1_2_IRQHandler
                0x0801609c                SPI1_IRQHandler
                0x0801609c                TIM6_DAC_IRQHandler
                0x0801609c                TIM8_UP_IRQHandler
                0x0801609c                DMA2_Channel2_IRQHandler
                0x0801609c                CAN1_RX1_IRQHandler
                0x0801609c                UART5_IRQHandler
                0x0801609c                ADC3_IRQHandler
                0x0801609c                DMA2_Channel1_IRQHandler
                0x0801609c                I2C1_EV_IRQHandler
                0x0801609c                UART4_IRQHandler
                0x0801609c                DMA2_Channel4_IRQHandler
                0x0801609c                RCC_IRQHandler
                0x0801609c                DMA1_Channel1_IRQHandler
                0x0801609c                Default_Handler
                0x0801609c                USBWakeUp_RMP_IRQHandler
                0x0801609c                TIM7_IRQHandler
                0x0801609c                TAMPER_STAMP_IRQHandler
                0x0801609c                RTC_WKUP_IRQHandler
                0x0801609c                SPI2_IRQHandler
                0x0801609c                MemManage_Handler
                0x0801609c                SVC_Handler
                0x0801609c                DMA2_Channel5_IRQHandler
                0x0801609c                DMA1_Channel5_IRQHandler
                0x0801609c                USB_LP_IRQHandler
                0x0801609c                EXTI4_IRQHandler
                0x0801609c                USB_LP_CAN1_RX0_IRQHandler
                0x0801609c                USB_HP_CAN1_TX_IRQHandler
                0x0801609c                ADC4_IRQHandler
                0x0801609c                WWDG_IRQHandler
                0x0801609c                COMP7_IRQHandler
                0x0801609c                COMP1_2_3_IRQHandler
                0x0801609c                COMP4_5_6_IRQHandler
                0x0801609c                I2C2_ER_IRQHandler
                0x0801609c                TIM8_BRK_IRQHandler
                0x0801609c                CAN1_SCE_IRQHandler
                0x0801609c                FLASH_IRQHandler
                0x0801609c                BusFault_Handler
                0x0801609c                SPI3_IRQHandler
                0x0801609c                I2C1_ER_IRQHandler
                0x0801609c                USBWakeUp_IRQHandler
                0x0801609c                DMA2_Channel3_IRQHandler
 *fill*         0x0801609e        0x2 
 .text.startup  0x080160a0      0x218 /tmp/ccGYWBCE.ltrans18.ltrans.o
                0x080160a0                main
 .text.atoi     0x080162b8        0x8 /usr/lib/gcc/arm-none-eabi/4.9.3/../../../arm-none-eabi/lib/armv7e-m/fpu/libc_nano.a(lib_a-atoi.o)
                0x080162b8                atoi
 .text.strtok   0x080162c0       0x64 /usr/lib/gcc/arm-none-eabi/4.9.3/../../../arm-none-eabi/lib/armv7e-m/fpu/libc_nano.a(lib_a-strtok.o)
                0x080162c0                strtok
 .text.__strtok_r
                0x08016324       0x56 /usr/lib/gcc/arm-none-eabi/4.9.3/../../../arm-none-eabi/lib/armv7e-m/fpu/libc_nano.a(lib_a-strtok_r.o)
                0x08016324                __strtok_r
 .text.strtok_r
                0x0801637a        0x6 /usr/lib/gcc/arm-none-eabi/4.9.3/../../../arm-none-eabi/lib/armv7e-m/fpu/libc_nano.a(lib_a-strtok_r.o)
                0x0801637a                strtok_r
 .text._strtol_r
                0x08016380      0x10c /usr/lib/gcc/arm-none-eabi/4.9.3/../../../arm-none-eabi/lib/armv7e-m/fpu/libc_nano.a(lib_a-strtol.o)
                0x08016380                _strtol_r
 .text.strtol   0x0801648c       0x1c /usr/lib/gcc/arm-none-eabi/4.9.3/../../../arm-none-eabi/lib/armv7e-m/fpu/libc_nano.a(lib_a-strtol.o)
                0x0801648c                strtol
 .text.malloc   0x080164a8       0x10 /usr/lib/gcc/arm-none-eabi/4.9.3/../../../arm-none-eabi/lib/armv7e-m/fpu/libc_nano.a(lib_a-malloc.o)
                0x080164a8                malloc
 .text._malloc_r
                0x080164b8       0xac /usr/lib/gcc/arm-none-eabi/4.9.3/../../../arm-none-eabi/lib/armv7e-m/fpu/libc_nano.a(lib_a-nano-mallocr.o)
                0x080164b8                _malloc_r
 .text._sbrk_r  0x08016564       0x20 /usr/lib/gcc/arm-none-eabi/4.9.3/../../../arm-none-eabi/lib/armv7e-m/fpu/libc_nano.a(lib_a-sbrkr.o)
                0x08016564                _sbrk_r
 .text._sbrk    0x08016584       0x1c /usr/lib/gcc/arm-none-eabi/4.9.3/../../../arm-none-eabi/lib/armv7e-m/fpu/libnosys.a(sbrk.o)
                0x08016584                _sbrk
 .text.lrintf   0x080165a0       0x8c /usr/lib/gcc/arm-none-eabi/4.9.3/../../../arm-none-eabi/lib/armv7e-m/fpu/libm.a(lib_a-sf_lrint.o)
                0x080165a0                lrintf
 .text.tanf     0x0801662c       0x5c /usr/lib/gcc/arm-none-eabi/4.9.3/../../../arm-none-eabi/lib/armv7e-m/fpu/libm.a(lib_a-sf_tan.o)
                0x0801662c                tanf
 .text.powf     0x08016688      0x344 /usr/lib/gcc/arm-none-eabi/4.9.3/../../../arm-none-eabi/lib/armv7e-m/fpu/libm.a(lib_a-wf_pow.o)
                0x08016688                powf
 .text.sqrtf    0x080169cc       0xb8 /usr/lib/gcc/arm-none-eabi/4.9.3/../../../arm-none-eabi/lib/armv7e-m/fpu/libm.a(lib_a-wf_sqrt.o)
                0x080169cc                sqrtf
 .text.__ieee754_powf
                0x08016a84      0x5f0 /usr/lib/gcc/arm-none-eabi/4.9.3/../../../arm-none-eabi/lib/armv7e-m/fpu/libm.a(lib_a-ef_pow.o)
                0x08016a84                __ieee754_powf
 .text.__ieee754_rem_pio2f
                0x08017074      0x290 /usr/lib/gcc/arm-none-eabi/4.9.3/../../../arm-none-eabi/lib/armv7e-m/fpu/libm.a(lib_a-ef_rem_pio2.o)
                0x08017074                __ieee754_rem_pio2f
 .text.__ieee754_sqrtf
                0x08017304       0xa4 /usr/lib/gcc/arm-none-eabi/4.9.3/../../../arm-none-eabi/lib/armv7e-m/fpu/libm.a(lib_a-ef_sqrt.o)
                0x08017304                __ieee754_sqrtf
 .text.__kernel_rem_pio2f
                0x080173a8      0x5e4 /usr/lib/gcc/arm-none-eabi/4.9.3/../../../arm-none-eabi/lib/armv7e-m/fpu/libm.a(lib_a-kf_rem_pio2.o)
                0x080173a8                __kernel_rem_pio2f
 .text.__kernel_tanf
                0x0801798c      0x1d0 /usr/lib/gcc/arm-none-eabi/4.9.3/../../../arm-none-eabi/lib/armv7e-m/fpu/libm.a(lib_a-kf_tan.o)
                0x0801798c                __kernel_tanf
 .text.matherr  0x08017b5c        0x4 /usr/lib/gcc/arm-none-eabi/4.9.3/../../../arm-none-eabi/lib/armv7e-m/fpu/libm.a(lib_a-s_matherr.o)
                0x08017b5c                matherr
 .text.rint     0x08017b60      0x124 /usr/lib/gcc/arm-none-eabi/4.9.3/../../../arm-none-eabi/lib/armv7e-m/fpu/libm.a(lib_a-s_rint.o)
                0x08017b60                rint
 .text.fabsf    0x08017c84       0x10 /usr/lib/gcc/arm-none-eabi/4.9.3/../../../arm-none-eabi/lib/armv7e-m/fpu/libm.a(lib_a-sf_fabs.o)
                0x08017c84                fabsf
 .text.finitef  0x08017c94       0x14 /usr/lib/gcc/arm-none-eabi/4.9.3/../../../arm-none-eabi/lib/armv7e-m/fpu/libm.a(lib_a-sf_finite.o)
                0x08017c94                finitef
 .text.floorf   0x08017ca8       0x90 /usr/lib/gcc/arm-none-eabi/4.9.3/../../../arm-none-eabi/lib/armv7e-m/fpu/libm.a(lib_a-sf_floor.o)
                0x08017ca8                floorf
 .text.__fpclassifyf
                0x08017d38       0x38 /usr/lib/gcc/arm-none-eabi/4.9.3/../../../arm-none-eabi/lib/armv7e-m/fpu/libm.a(lib_a-sf_fpclassify.o)
                0x08017d38                __fpclassifyf
 .text.nanf     0x08017d70        0xc /usr/lib/gcc/arm-none-eabi/4.9.3/../../../arm-none-eabi/lib/armv7e-m/fpu/libm.a(lib_a-sf_nan.o)
                0x08017d70                nanf
 .text.scalbnf  0x08017d7c       0xd0 /usr/lib/gcc/arm-none-eabi/4.9.3/../../../arm-none-eabi/lib/armv7e-m/fpu/libm.a(lib_a-sf_scalbn.o)
                0x08017d7c                scalbnf
 .text.copysignf
                0x08017e4c       0x18 /usr/lib/gcc/arm-none-eabi/4.9.3/../../../arm-none-eabi/lib/armv7e-m/fpu/libm.a(lib_a-sf_copysign.o)
                0x08017e4c                copysignf
 .text.__errno  0x08017e64        0xc /usr/lib/gcc/arm-none-eabi/4.9.3/../../../arm-none-eabi/lib/armv7e-m/fpu/libc_nano.a(lib_a-errno.o)
                0x08017e64                __errno
 .text.memcmp   0x08017e70       0x20 /usr/lib/gcc/arm-none-eabi/4.9.3/../../../arm-none-eabi/lib/armv7e-m/fpu/libc_nano.a(lib_a-memcmp.o)
                0x08017e70                memcmp
 .text.memcpy   0x08017e90       0x16 /usr/lib/gcc/arm-none-eabi/4.9.3/../../../arm-none-eabi/lib/armv7e-m/fpu/libc_nano.a(lib_a-memcpy.o)
                0x08017e90                memcpy
 .text.memset   0x08017ea6       0x10 /usr/lib/gcc/arm-none-eabi/4.9.3/../../../arm-none-eabi/lib/armv7e-m/fpu/libc_nano.a(lib_a-memset.o)
                0x08017ea6                memset
 *fill*         0x08017eb6        0x2 
 .text.strcasecmp
                0x08017eb8       0x3c /usr/lib/gcc/arm-none-eabi/4.9.3/../../../arm-none-eabi/lib/armv7e-m/fpu/libc_nano.a(lib_a-strcasecmp.o)
                0x08017eb8                strcasecmp
 .text.strcat   0x08017ef4       0x1e /usr/lib/gcc/arm-none-eabi/4.9.3/../../../arm-none-eabi/lib/armv7e-m/fpu/libc_nano.a(lib_a-strcat.o)
                0x08017ef4                strcat
 .text.strchr   0x08017f12       0x1c /usr/lib/gcc/arm-none-eabi/4.9.3/../../../arm-none-eabi/lib/armv7e-m/fpu/libc_nano.a(lib_a-strchr.o)
                0x08017f12                strchr
 .text.strlen   0x08017f2e       0x10 /usr/lib/gcc/arm-none-eabi/4.9.3/../../../arm-none-eabi/lib/armv7e-m/fpu/libc_nano.a(lib_a-strlen.o)
                0x08017f2e                strlen
 *fill*         0x08017f3e        0x2 
 .text.strncasecmp
                0x08017f40       0x48 /usr/lib/gcc/arm-none-eabi/4.9.3/../../../arm-none-eabi/lib/armv7e-m/fpu/libc_nano.a(lib_a-strncasecmp.o)
                0x08017f40                strncasecmp
 .text.strncpy  0x08017f88       0x24 /usr/lib/gcc/arm-none-eabi/4.9.3/../../../arm-none-eabi/lib/armv7e-m/fpu/libc_nano.a(lib_a-strncpy.o)
                0x08017f88                strncpy
 .text.strstr   0x08017fac       0x30 /usr/lib/gcc/arm-none-eabi/4.9.3/../../../arm-none-eabi/lib/armv7e-m/fpu/libc_nano.a(lib_a-strstr.o)
                0x08017fac                strstr
 *(.rodata)
 .rodata        0x08017fdc       0xe4 /tmp/ccGYWBCE.ltrans0.ltrans.o
                0x0801803c                hsv_white
 .rodata        0x080180c0      0x2b4 /tmp/ccGYWBCE.ltrans1.ltrans.o
 .rodata        0x08018374      0x180 /tmp/ccGYWBCE.ltrans2.ltrans.o
 .rodata        0x080184f4      0x2cb /tmp/ccGYWBCE.ltrans4.ltrans.o
 *fill*         0x080187bf        0x1 
 .rodata        0x080187c0        0x8 /tmp/ccGYWBCE.ltrans5.ltrans.o
 .rodata        0x080187c8       0x38 /tmp/ccGYWBCE.ltrans6.ltrans.o
                0x080187c8                hsv_green
                0x080187cc                hsv_red
                0x080187d0                hsv_yellow
                0x080187d4                hsv_blue
                0x080187fc                hsv_orange
 .rodata        0x08018800      0x4cc /tmp/ccGYWBCE.ltrans7.ltrans.o
                0x0801880c                mixerAtail4.lto_priv.463
                0x0801884c                mixerDualcopter.lto_priv.462
                0x0801886c                mixerHex6H.lto_priv.461
                0x080188cc                mixerVtail4.lto_priv.460
                0x0801890c                mixerOctoFlatX.lto_priv.459
                0x0801898c                mixerOctoFlatP.lto_priv.458
                0x08018a0c                mixerOctoX8.lto_priv.457
                0x08018a8c                mixerHex6X.lto_priv.456
                0x08018aec                mixerY4.lto_priv.455
                0x08018b2c                mixerSingleProp.lto_priv.454
                0x08018b3c                mixerHex6P.lto_priv.453
                0x08018b9c                mixerY6.lto_priv.452
                0x08018bfc                mixerBicopter.lto_priv.451
                0x08018c1c                mixerQuadX.lto_priv.450
                0x08018c5c                mixerQuadP.lto_priv.449
                0x08018c9c                mixerTricopter.lto_priv.448
 .rodata        0x08018ccc       0x18 /tmp/ccGYWBCE.ltrans9.ltrans.o
 .rodata        0x08018ce4       0xc4 /tmp/ccGYWBCE.ltrans10.ltrans.o
 .rodata        0x08018da8      0x213 /tmp/ccGYWBCE.ltrans12.ltrans.o
                0x08018e08                servoMixers
                0x08018efe                servoMixerSingle.lto_priv.470
                0x08018f36                servoMixerDual.lto_priv.469
                0x08018f44                servoMixerAirplane.lto_priv.468
                0x08018f67                servoMixerFlyingWing.lto_priv.467
                0x08018f8a                servoMixerGimbal.lto_priv.466
                0x08018f98                servoMixerBI.lto_priv.465
                0x08018fb4                servoMixerTri.lto_priv.464
 *fill*         0x08018fbb        0x1 
 .rodata        0x08018fbc       0x28 /tmp/ccGYWBCE.ltrans14.ltrans.o
 .rodata        0x08018fe4       0x20 /tmp/ccGYWBCE.ltrans16.ltrans.o
                0x08018fe4                baudRates
 .rodata        0x08019004      0x144 /tmp/ccGYWBCE.ltrans17.ltrans.o
                0x08019004                gpsInitData.lto_priv.396
 .rodata        0x08019148       0x22 /tmp/ccGYWBCE.ltrans19.ltrans.o
 *fill*         0x0801916a        0x2 
 .rodata        0x0801916c     0x133c /tmp/ccGYWBCE.ltrans22.ltrans.o
                0x080191d4                beeperTable.lto_priv.215
                0x08019374                valueTable
                0x0801a134                mixerNames.lto_priv.204
                0x0801a19c                cmdTable
                0x0801a37c                beep_armedBeep.lto_priv.229
                0x0801a381                beep_disarmRepeatBeep.lto_priv.228
                0x0801a385                beep_readyBeep.lto_priv.227
                0x0801a394                beep_2longerBeeps.lto_priv.226
                0x0801a399                beep_2shortBeeps.lto_priv.225
                0x0801a39e                beep_shortBeep.lto_priv.224
                0x0801a3a1                beep_lowBatteryBeep.lto_priv.223
                0x0801a3a4                beep_critBatteryBeep.lto_priv.222
                0x0801a3a7                beep_armedGpsFix.lto_priv.221
                0x0801a3b0                beep_armingBeep.lto_priv.220
                0x0801a3b5                beep_disarmBeep.lto_priv.219
                0x0801a3ba                beep_txLostBeep.lto_priv.218
                0x0801a3bd                beep_sos.lto_priv.217
                0x0801a3d0                beep_gyroCalibrated.lto_priv.216
                0x0801a4a4                SystemCoreClock
 *(.rodata*)
 .rodata.timerHardware
                0x0801a4a8      0x110 /tmp/ccGYWBCE.ltrans0.ltrans.o
                0x0801a4a8                timerHardware
 .rodata.str1.1
                0x0801a5b8      0x215 /tmp/ccGYWBCE.ltrans1.ltrans.o
                                0x226 (size before relaxing)
 .rodata.str1.1
                0x0801a7cd      0x14a /tmp/ccGYWBCE.ltrans2.ltrans.o
                                0x16a (size before relaxing)
 *fill*         0x0801a917        0x1 
 .rodata.frSkyDataIdTable
                0x0801a918       0x20 /tmp/ccGYWBCE.ltrans5.ltrans.o
 .rodata.hsv_black
                0x0801a938        0x4 /tmp/ccGYWBCE.ltrans6.ltrans.o
                0x0801a938                hsv_black
 .rodata.mixers
                0x0801a93c       0xd0 /tmp/ccGYWBCE.ltrans7.ltrans.o
                0x0801a93c                mixers
 .rodata.str1.1
                0x0801aa0c       0xf8 /tmp/ccGYWBCE.ltrans7.ltrans.o
                                0x106 (size before relaxing)
 .rodata.str1.1
                0x0801ab04       0xd6 /tmp/ccGYWBCE.ltrans8.ltrans.o
                                 0xfa (size before relaxing)
 .rodata.str1.1
                0x0801abda       0x3e /tmp/ccGYWBCE.ltrans9.ltrans.o
                                 0x41 (size before relaxing)
 .rodata.str1.1
                0x0801ac18        0x9 /tmp/ccGYWBCE.ltrans10.ltrans.o
 .rodata.str1.1
                0x0801ac21      0x3e5 /tmp/ccGYWBCE.ltrans12.ltrans.o
                                0x45a (size before relaxing)
 .rodata.serialPortIdentifiers
                0x0801b006        0x5 /tmp/ccGYWBCE.ltrans16.ltrans.o
                0x0801b006                serialPortIdentifiers
 .rodata.rcChannelLetters
                0x0801b00b       0x15 /tmp/ccGYWBCE.ltrans16.ltrans.o
                0x0801b00b                rcChannelLetters
 .rodata.str1.1
                0x0801b020       0xfb /tmp/ccGYWBCE.ltrans17.ltrans.o
                                 0xfc (size before relaxing)
 .rodata.cyclePageIds
                0x0801b11b        0x5 /tmp/ccGYWBCE.ltrans19.ltrans.o
 .rodata.str1.1
                0x0801b120      0x139 /tmp/ccGYWBCE.ltrans19.ltrans.o
                                0x166 (size before relaxing)
 .rodata.str1.1
                0x0801b259       0x27 /tmp/ccGYWBCE.ltrans20.ltrans.o
 .rodata.str1.1
                0x0801b280     0x11ca /tmp/ccGYWBCE.ltrans22.ltrans.o
                               0x12cc (size before relaxing)
 .rodata._ctype_
                0x0801c44a      0x101 /usr/lib/gcc/arm-none-eabi/4.9.3/../../../arm-none-eabi/lib/armv7e-m/fpu/libc_nano.a(lib_a-ctype_.o)
                0x0801c44a                _ctype_
 .rodata.str1.1
                0x0801c54b        0x0 /usr/lib/gcc/arm-none-eabi/4.9.3/../../../arm-none-eabi/lib/armv7e-m/fpu/libc_nano.a(lib_a-impure.o)
                                  0x2 (size before relaxing)
 *fill*         0x0801c54b        0x1 
 .rodata.TWO23  0x0801c54c        0x8 /usr/lib/gcc/arm-none-eabi/4.9.3/../../../arm-none-eabi/lib/armv7e-m/fpu/libm.a(lib_a-sf_lrint.o)
 .rodata.str1.4
                0x0801c554        0x5 /usr/lib/gcc/arm-none-eabi/4.9.3/../../../arm-none-eabi/lib/armv7e-m/fpu/libm.a(lib_a-wf_pow.o)
                                  0x8 (size before relaxing)
 *fill*         0x0801c559        0x3 
 .rodata.str1.4
                0x0801c55c        0x6 /usr/lib/gcc/arm-none-eabi/4.9.3/../../../arm-none-eabi/lib/armv7e-m/fpu/libm.a(lib_a-wf_sqrt.o)
                                  0x8 (size before relaxing)
 *fill*         0x0801c562        0x2 
 .rodata.dp_h   0x0801c564        0x8 /usr/lib/gcc/arm-none-eabi/4.9.3/../../../arm-none-eabi/lib/armv7e-m/fpu/libm.a(lib_a-ef_pow.o)
 .rodata.dp_l   0x0801c56c        0x8 /usr/lib/gcc/arm-none-eabi/4.9.3/../../../arm-none-eabi/lib/armv7e-m/fpu/libm.a(lib_a-ef_pow.o)
 .rodata.bp     0x0801c574        0x8 /usr/lib/gcc/arm-none-eabi/4.9.3/../../../arm-none-eabi/lib/armv7e-m/fpu/libm.a(lib_a-ef_pow.o)
 .rodata.str1.4
                0x0801c57c        0x8 /usr/lib/gcc/arm-none-eabi/4.9.3/../../../arm-none-eabi/lib/armv7e-m/fpu/libm.a(lib_a-ef_pow.o)
                                  0x4 (size before relaxing)
 .rodata.npio2_hw
                0x0801c57c       0x80 /usr/lib/gcc/arm-none-eabi/4.9.3/../../../arm-none-eabi/lib/armv7e-m/fpu/libm.a(lib_a-ef_rem_pio2.o)
 .rodata.two_over_pi
                0x0801c5fc      0x318 /usr/lib/gcc/arm-none-eabi/4.9.3/../../../arm-none-eabi/lib/armv7e-m/fpu/libm.a(lib_a-ef_rem_pio2.o)
 .rodata.init_jk
                0x0801c914        0xc /usr/lib/gcc/arm-none-eabi/4.9.3/../../../arm-none-eabi/lib/armv7e-m/fpu/libm.a(lib_a-kf_rem_pio2.o)
 .rodata.PIo2   0x0801c920       0x2c /usr/lib/gcc/arm-none-eabi/4.9.3/../../../arm-none-eabi/lib/armv7e-m/fpu/libm.a(lib_a-kf_rem_pio2.o)
 *fill*         0x0801c94c        0x4 
 .rodata.TWO52  0x0801c950       0x10 /usr/lib/gcc/arm-none-eabi/4.9.3/../../../arm-none-eabi/lib/armv7e-m/fpu/libm.a(lib_a-s_rint.o)
 *(.glue_7)
 .glue_7        0x0801c960        0x0 linker stubs
 *(.glue_7t)
 .glue_7t       0x0801c960        0x0 linker stubs
 *(.eh_frame)
 *(.init)
 *(.fini)
                0x0801c960                . = ALIGN (0x4)
                0x0801c960                _etext = .

.vfp11_veneer   0x0801c960        0x0
 .vfp11_veneer  0x0801c960        0x0 linker stubs

.v4_bx          0x0801c960        0x0
 .v4_bx         0x0801c960        0x0 linker stubs

.iplt           0x0801c960        0x0
 .iplt          0x0801c960        0x0 obj/main/SPRACINGF3/startup_stm32f30x_md_gcc.o

.ARM.extab
 *(.ARM.extab* .gnu.linkonce.armextab.*)

.ARM            0x0801c960        0x8
                0x0801c960                __exidx_start = .
 *(.ARM.exidx*)
 .ARM.exidx     0x0801c960        0x8 /usr/lib/gcc/arm-none-eabi/4.9.3/armv7e-m/fpu/libgcc.a(_divdi3.o)
 .ARM.exidx     0x0801c968        0x0 /usr/lib/gcc/arm-none-eabi/4.9.3/armv7e-m/fpu/libgcc.a(_udivdi3.o)
                                  0x8 (size before relaxing)
                0x0801c968                __exidx_end = .

.rel.dyn        0x0801c968        0x0
 .rel.iplt      0x0801c968        0x0 obj/main/SPRACINGF3/startup_stm32f30x_md_gcc.o

.preinit_array  0x0801c968        0x0
                [!provide]                PROVIDE (__preinit_array_start, .)
 *(.preinit_array*)
                [!provide]                PROVIDE (__preinit_array_end, .)

.init_array     0x0801c968        0x0
                [!provide]                PROVIDE (__init_array_start, .)
 *(SORT(.init_array.*))
 *(.init_array*)
                [!provide]                PROVIDE (__init_array_end, .)

.fini_array     0x0801c968        0x0
                [!provide]                PROVIDE (__fini_array_start, .)
 *(.fini_array*)
 *(SORT(.fini_array.*))
                [!provide]                PROVIDE (__fini_array_end, .)
                0x0801c968                _sidata = .

.data           0x20000000      0x3f8 load address 0x0801c968
                0x20000000                . = ALIGN (0x4)
                0x20000000                _sdata = .
 *(.data)
 .data          0x20000000        0x3 /tmp/ccGYWBCE.ltrans3.ltrans.o
                0x20000000                rxIsInFailsafeMode.lto_priv.275
                0x20000001                rxIsInFailsafeModeNotDataDriven.lto_priv.277
                0x20000002                isUsingSticksToArm.lto_priv.309
 *fill*         0x20000003        0x1 
 .data          0x20000004        0x3 /tmp/ccGYWBCE.ltrans5.ltrans.o
                0x20000004                acc_1G
 .data          0x20000007        0x3 /tmp/ccGYWBCE.ltrans6.ltrans.o
 .data          0x2000000a       0x31 /tmp/ccGYWBCE.ltrans8.ltrans.o
                0x2000003a                standardBoardAlignment.lto_priv.430
 *fill*         0x2000003b        0x1 
 .data          0x2000003c        0x4 /tmp/ccGYWBCE.ltrans11.ltrans.o
                0x2000003c                GPS_scaleLonDown.lto_priv.524
 .data          0x20000040       0x10 /tmp/ccGYWBCE.ltrans12.ltrans.o
                0x20000040                geometry.lto_priv.314
 .data          0x20000050        0x4 /tmp/ccGYWBCE.ltrans13.ltrans.o
                0x20000050                q0.lto_priv.354
 .data          0x20000054        0xc /tmp/ccGYWBCE.ltrans15.ltrans.o
 .data          0x20000060        0x4 /tmp/ccGYWBCE.ltrans16.ltrans.o
                0x20000060                rcReadRawFunc.lto_priv.270
 .data          0x20000064        0x4 /tmp/ccGYWBCE.ltrans18.ltrans.o
                0x20000064                realtimeGuardInterval.lto_priv.477
 .data          0x20000068        0x4 /tmp/ccGYWBCE.ltrans22.ltrans.o
 .data          0x2000006c        0x4 /tmp/ccGYWBCE.ltrans24.ltrans.o
                0x2000006c                measurement.lto_priv.532
 *(.data*)
 .data.GPS_hdop
                0x20000070        0x2 /tmp/ccGYWBCE.ltrans5.ltrans.o
                0x20000070                GPS_hdop
 *fill*         0x20000072        0x2 
 .data.cfTasks  0x20000074      0x30c /tmp/ccGYWBCE.ltrans8.ltrans.o
                0x20000074                cfTasks
 .data.pid_controller
                0x20000380        0x4 /tmp/ccGYWBCE.ltrans13.ltrans.o
                0x20000380                pid_controller
 .data.currentTaskId
                0x20000384        0x1 /tmp/ccGYWBCE.ltrans17.ltrans.o
                0x20000384                currentTaskId
 .data.detectedSensors
                0x20000385        0x4 /tmp/ccGYWBCE.ltrans22.ltrans.o
                0x20000385                detectedSensors
 .data.batteryCellCount
                0x20000389        0x1 /tmp/ccGYWBCE.ltrans22.ltrans.o
                0x20000389                batteryCellCount
 *fill*         0x2000038a        0x2 
 .data.__ctype_ptr__
                0x2000038c        0x4 /usr/lib/gcc/arm-none-eabi/4.9.3/../../../arm-none-eabi/lib/armv7e-m/fpu/libc_nano.a(lib_a-ctype_.o)
                0x2000038c                __ctype_ptr__
 .data.impure_data
                0x20000390       0x60 /usr/lib/gcc/arm-none-eabi/4.9.3/../../../arm-none-eabi/lib/armv7e-m/fpu/libc_nano.a(lib_a-impure.o)
 .data._impure_ptr
                0x200003f0        0x4 /usr/lib/gcc/arm-none-eabi/4.9.3/../../../arm-none-eabi/lib/armv7e-m/fpu/libc_nano.a(lib_a-impure.o)
                0x200003f0                _impure_ptr
 .data.__fdlib_version
                0x200003f4        0x1 /usr/lib/gcc/arm-none-eabi/4.9.3/../../../arm-none-eabi/lib/armv7e-m/fpu/libm.a(lib_a-s_lib_ver.o)
                0x200003f4                __fdlib_version
                0x200003f8                . = ALIGN (0x4)
 *fill*         0x200003f5        0x3 
                0x200003f8                _edata = .

.igot.plt       0x200003f8        0x0 load address 0x0801cd60
 .igot.plt      0x200003f8        0x0 obj/main/SPRACINGF3/startup_stm32f30x_md_gcc.o
                0x200003f8                . = ALIGN (0x4)

.bss            0x200003f8     0x35c8 load address 0x0801cd60
                0x200003f8                _sbss = .
                0x200003f8                __bss_start__ = _sbss
 *(.bss)
 .bss           0x200003f8      0x52c /tmp/ccGYWBCE.ltrans0.ltrans.o
                0x20000428                inputFilteringMode.lto_priv.544
                0x2000042c                ppmDev
                0x20000554                servos.lto_priv.546
                0x20000578                I2Cx.lto_priv.547
                0x2000057c                displayPresent.lto_priv.513
                0x20000584                mpuDetectionResult
                0x20000588                mpuConfiguration
                0x20000594                mpuIntExtiConfig.lto_priv.538
                0x20000598                ms5611_c.lto_priv.537
                0x200005a8                mpuDividerDrops
                0x200005ac                hmc5883Config.lto_priv.536
                0x200005b8                gpsPacketLog
                0x200005d2                ledStripDMABuffer
                0x200008fc                telemetryConfig.lto_priv.381
                0x20000900                portConfig.lto_priv.384
                0x20000904                frskyPortSharing.lto_priv.511
                0x20000905                hottPortSharing.lto_priv.509
                0x20000908                telemetryConfig.lto_priv.382
                0x2000090c                portConfig.lto_priv.386
                0x20000910                smartPortPortSharing.lto_priv.506
                0x20000918                portConfig.lto_priv.387
                0x2000091c                ltmPortSharing.lto_priv.504
                0x2000091d                couldBeBusy.lto_priv.531
                0x20000920                tailAddress.lto_priv.489
 *fill*         0x20000924        0x4 
 .bss           0x20000928      0x6cb /tmp/ccGYWBCE.ltrans1.ltrans.o
                0x20000936                gyroAlign
                0x20000938                gyroLpfCutFreq.lto_priv.488
                0x200009b0                gyroConfig.lto_priv.487
                0x20000a08                imuRuntimeConfig.lto_priv.418
                0x20000a30                gyroScale.lto_priv.419
                0x20000a40                magneticDeclination
                0x20000a44                smallAngleCosZ
                0x20000a50                fc_acc
                0x20000a54                accDeadband.lto_priv.482
                0x20000a58                lookupYawRC
                0x20000a6c                rxRefreshRate.lto_priv.398
                0x20000a84                rcControlsConfig.lto_priv.481
                0x20000a8c                escAndServoConfig.lto_priv.342
                0x20000a90                throttleAngleScale
                0x20000a94                mixerConfig.lto_priv.484
                0x20000a98                currentMixer.lto_priv.434
                0x20000b58                rxConfig.lto_priv.485
                0x20000b5c                currentMixerMode.lto_priv.433
                0x20000b80                gimbalConfig.lto_priv.483
                0x20000fc8                motorControlEnable
                0x20000fcc                blackboxPort.lto_priv.376
                0x20000fd0                blackboxHeaderBudget
                0x20000fd4                blackboxMaxHeaderBytesPerIteration.lto_priv.374
                0x20000fd8                xmitState.lto_priv.372
                0x20000fe0                blackboxConditionCache.lto_priv.369
                0x20000fe4                vbatReference.lto_priv.365
                0x20000fe6                blackboxSlowFrameIterationTimer.lto_priv.373
                0x20000fe8                blackboxPFrameIndex.lto_priv.368
                0x20000fec                blackboxIteration.lto_priv.367
                0x20000ff0                blackboxModeActivationConditionPresent.lto_priv.366
                0x20000ff1                blackboxPortSharing.lto_priv.375
                0x20000ff2                blackboxLoggedAnyFrames.lto_priv.371
 *fill*         0x20000ff3        0x1 
 .bss           0x20000ff4      0x170 /tmp/ccGYWBCE.ltrans2.ltrans.o
                0x20000ff4                printfSerialPort.lto_priv.478
                0x20001014                servo
                0x20001024                GPS_ground_course
                0x20001026                GPS_update
                0x20001027                GPS_numCh
                0x20001028                GPS_svinfo_chn
                0x20001038                GPS_svinfo_svid
                0x20001048                GPS_svinfo_quality
                0x20001058                GPS_svinfo_cno
                0x20001068                debug
                0x20001070                serialPortCount.lto_priv.432
                0x20001071                blackboxState.lto_priv.341
                0x200010d4                pwmIOConfiguration.lto_priv.435
 .bss           0x20001164      0x1dc /tmp/ccGYWBCE.ltrans3.ltrans.o
                0x20001164                rxUpdateAt.lto_priv.274
                0x2000118c                rxSignalReceivedNotDataDriven.lto_priv.276
                0x2000118e                rcSampleIndex.lto_priv.397
                0x200011d8                rcInvalidPulsPeriod
                0x2000123a                rxFlightChannelsValid.lto_priv.500
                0x20001254                rxConfig.lto_priv.265
                0x20001258                deadband3dThrottle.lto_priv.417
                0x2000125c                disarmAt.lto_priv.364
                0x20001263                AccInflightCalibrationMeasurementDone
                0x20001264                AccInflightCalibrationSavetoEEProm
                0x20001266                calibratingA
                0x20001268                InflightcalibratingA
                0x2000126a                AccInflightCalibrationActive
                0x2000126c                adjustmentStates
                0x200012a0                escAndServoConfig.lto_priv.308
                0x200012a4                magHold
                0x200012a6                headFreeModeHold
                0x200012a8                nav_mode
                0x200012ac                gpsProfile.lto_priv.347
                0x200012b0                GPS_hold
                0x200012e4                poshold_ratePID.lto_priv.515
                0x2000130c                navPID.lto_priv.516
                0x20001334                nav_rated.lto_priv.349
                0x20001338                nav.lto_priv.348
                0x2000133c                isRXDataNew.lto_priv.351
                0x2000133d                haveProcessedAnnexCodeOnce.lto_priv.340
                0x2000133e                initialThrottleHold.lto_priv.350
 .bss           0x20001340      0x6cc /tmp/ccGYWBCE.ltrans4.ltrans.o
 .bss           0x20001a0c       0xf0 /tmp/ccGYWBCE.ltrans5.ltrans.o
                0x20001a0c                frskyTelemetryEnabled.lto_priv.512
                0x20001a16                accSmooth
                0x20001a1c                vario
                0x20001a20                BaroAlt
                0x20001a24                baroTemperature
                0x20001a2c                telemetryConfig.lto_priv.237
                0x20001a30                amperage
                0x20001a34                stateFlags
                0x20001a36                GPS_speed
                0x20001a38                GPS_altitude
                0x20001a3a                GPS_numSat
                0x20001a3c                GPS_coord
                0x20001a44                hottTelemetryEnabled.lto_priv.510
                0x20001a4c                hottEAMMessage.lto_priv.388
                0x20001a7c                telemetryConfig.lto_priv.238
                0x20001a80                hottGPSMessage.lto_priv.389
                0x20001aac                GPS_distanceToHome
                0x20001aae                GPS_directionToHome
                0x20001ab8                hottPort.lto_priv.503
                0x20001ac8                portConfig.lto_priv.385
                0x20001ace                smartPortTelemetryEnabled.lto_priv.507
                0x20001ad0                smartPortSerialPort.lto_priv.502
                0x20001ad4                smartPortState
                0x20001ad8                smartPortLastRequestTime.lto_priv.508
                0x20001adf                ltmEnabled.lto_priv.505
                0x20001ae0                ltmPort.lto_priv.501
                0x20001aec                EstAlt.lto_priv.254
                0x20001af0                rssi
                0x20001af4                GPS_home
 .bss           0x20001afc       0xa0 /tmp/ccGYWBCE.ltrans6.ltrans.o
                0x20001afc                ledStripInitialised.lto_priv.390
                0x20001afe                ledColorBuffer.lto_priv.391
                0x20001b8c                ledCount
                0x20001b90                rxSignalReceived.lto_priv.259
                0x20001b98                highestYValueForNorth
                0x20001b99                lowestXValueForEast
                0x20001b9a                lowestYValueForSouth
                0x20001b9b                highestXValueForWest
 .bss           0x20001b9c       0x5c /tmp/ccGYWBCE.ltrans7.ltrans.o
                0x20001b9e                lookupThrottleRC
                0x20001bb6                lookupPitchRollRC
                0x20001bc4                beeperIsOn.lto_priv.302
                0x20001bc8                beeperNextToggleTime.lto_priv.301
                0x20001bcc                beeperPos.lto_priv.303
                0x20001bd0                currentBeeperEntry.lto_priv.300
                0x20001bd4                dmaHandlers.lto_priv.392
                0x20001be4                usTicks.lto_priv.446
                0x20001be8                extiHandlerConfigs.lto_priv.230
 .bss           0x20001bf8      0x358 /tmp/ccGYWBCE.ltrans8.ltrans.o
                0x20001bf8                ibusChannelData.lto_priv.281
                0x20001c51                xBusChannelCount.lto_priv.408
                0x20001c52                xBusFrameReceived.lto_priv.282
                0x20001c54                spekChannelData.lto_priv.299
                0x20001c84                sumhChannels.lto_priv.285
                0x20001ca4                sumdChannels.lto_priv.290
                0x20001cc4                sbusChannelData.lto_priv.293
                0x20001d0c                mspFrame.lto_priv.310
                0x20001d30                captures.lto_priv.278
                0x20001d4d                ibus.lto_priv.280
                0x20001d6d                ibusFrameDone.lto_priv.279
                0x20001d78                xBusFramePosition.lto_priv.406
                0x20001d79                xBusDataIncoming.lto_priv.405
                0x20001d7a                xBusFrameLength.lto_priv.407
                0x20001d7b                xBusProvider.lto_priv.409
                0x20001d81                spekFrame.lto_priv.295
                0x20001d91                rcFrameComplete.lto_priv.294
                0x20001d9d                sumhFrame.lto_priv.284
                0x20001db2                sumhFrameDone.lto_priv.283
                0x20001db9                sumdFrameDone.lto_priv.286
                0x20001dba                crc.lto_priv.287
                0x20001dbc                sumdChannelCount.lto_priv.288
                0x20001dbd                sumd.lto_priv.289
                0x20001de9                sbusFrame.lto_priv.292
                0x20001e02                sbusFrameDone.lto_priv.291
                0x20001e0c                boardRotation.lto_priv.431
                0x20001e30                batteryConfig
                0x20001e34                mAhDrawn
                0x20001e38                adcConfig
                0x20001e48                adcValues
                0x20001e50                vbatLatestADC
                0x20001ee0                vbat
                0x20001ee4                rxConfig.lto_priv.266
                0x20001ee8                suspendRxSignalUntil.lto_priv.269
                0x20001eec                skipRxSamples.lto_priv.268
                0x20001ef0                sysTickUptime.lto_priv.181
                0x20001ef4                failsafeState.lto_priv.235
                0x20001f18                warningLedState.lto_priv.214
                0x20001f1c                warningLedTimer.lto_priv.352
                0x20001f20                flightModeFlags
                0x20001f24                rcModeActivationMask
                0x20001f28                activeBoxIdCount.lto_priv.312
                0x20001f29                activeBoxIds.lto_priv.313
                0x20001f44                currentPort.lto_priv.305
                0x20001f48                writer.lto_priv.306
                0x20001f4c                mspSerialPort.lto_priv.307
 .bss           0x20001f50        0x7 /tmp/ccGYWBCE.ltrans9.ltrans.o
 *fill*         0x20001f57        0x1 
 .bss           0x20001f58       0x9a /tmp/ccGYWBCE.ltrans10.ltrans.o
                0x20001f70                bufferHead.lto_priv.493
                0x20001f71                bufferTail.lto_priv.530
                0x20001f72                flashWriteBuffer.lto_priv.494
 *fill*         0x20001ff2        0x2 
 .bss           0x20001ff4      0x242 /tmp/ccGYWBCE.ltrans11.ltrans.o
                0x200021d8                GPS_WP.lto_priv.518
                0x200021e0                wp_distance.lto_priv.519
                0x200021e4                target_bearing.lto_priv.520
                0x200021e8                error.lto_priv.525
                0x200021f0                posholdPID_PARAM.lto_priv.526
                0x20002200                poshold_ratePID_PARAM.lto_priv.527
                0x20002214                waypoint_speed_gov.lto_priv.523
                0x20002218                original_target_bearing.lto_priv.522
                0x20002220                nav_bearing.lto_priv.521
                0x20002224                navPID_PARAM.lto_priv.528
                0x20002234                nav_takeoff_bearing.lto_priv.529
 *fill*         0x20002236        0x2 
 .bss           0x20002238       0x44 /tmp/ccGYWBCE.ltrans12.ltrans.o
                0x20002238                cliBuffer.lto_priv.318
                0x20002268                bufferIndex.lto_priv.317
                0x2000226c                currentProfile
                0x20002270                colors
                0x20002274                ledConfigs
                0x20002278                servoConf.lto_priv.231
 .bss           0x2000227c      0x360 /tmp/ccGYWBCE.ltrans13.ltrans.o
                0x2000227c                rcCommand
                0x20002284                attitude
                0x2000228a                gyroADC
                0x20002290                PIDweight
                0x20002294                errorGyroI.lto_priv.263
                0x200022a0                targetLooptime
                0x200022c8                axisPID
                0x200022d0                axisPID_P
                0x200022dc                axisPID_I
                0x200022e8                axisPID_D
                0x200022f4                deltaFilterState.lto_priv.233
                0x2000236c                gyro
                0x20002380                errorGyroIf.lto_priv.264
                0x2000238c                dT
                0x200023a8                errorAngleI.lto_priv.234
                0x200023b0                dynP8
                0x200023c8                dynD8
                0x200023cb                motorCount
                0x200023cc                motor
                0x200023e4                motors.lto_priv.436
                0x20002414                timerConfig
                0x2000252c                flight3DConfig.lto_priv.344
                0x20002530                escAndServoConfig.lto_priv.343
                0x20002534                servoRuleCount.lto_priv.346
                0x20002535                currentServoMixer.lto_priv.345
                0x200025a8                customServoMixers.lto_priv.443
                0x200025ac                q1.lto_priv.355
                0x200025b0                q2.lto_priv.356
                0x200025b4                q3.lto_priv.357
                0x200025b8                rMat.lto_priv.255
 .bss           0x200025dc      0x4c8 /tmp/ccGYWBCE.ltrans14.ltrans.o
 .bss           0x20002aa4       0x1c /tmp/ccGYWBCE.ltrans15.ltrans.o
                0x20002aac                mpuDataReady.lto_priv.539
 .bss           0x20002ac0      0x934 /tmp/ccGYWBCE.ltrans16.ltrans.o
                0x20002ac0                string.8892.lto_priv.517
                0x20002ad0                rcData
                0x20002af4                mspPorts.lto_priv.179
                0x20002b8c                masterConfig
                0x2000339c                rxRuntimeConfigPtr.lto_priv.297
                0x200033a0                rxRuntimeConfig
                0x200033a2                spek_chan_shift.lto_priv.296
                0x200033a3                spek_chan_mask.lto_priv.298
                0x200033a4                spekHiRes.lto_priv.177
                0x200033a8                serialConfig.lto_priv.212
                0x200033ac                findSharedSerialPortState.lto_priv.258
                0x200033b0                serialPortUsageList.lto_priv.211
                0x200033ec                pidProfile.lto_priv.260
                0x200033f0                activeFeaturesLatch.lto_priv.178
 .bss           0x200033f4      0x1b8 /tmp/ccGYWBCE.ltrans17.ltrans.o
                0x200033f8                baro
                0x2000341c                barometerConfig.lto_priv.252
                0x200034f8                currentTime
                0x20003510                sonarMaxTiltCos
                0x20003514                calculatedAltitude.lto_priv.315
                0x20003518                sonarCfAltCm
                0x20003520                sonarMaxAltWithTiltCm
                0x20003524                accSumCount
                0x20003528                accSum
                0x20003534                accVelScale
                0x20003538                barometerConfig.lto_priv.253
                0x20003544                AltHold
                0x20003548                pidProfile.lto_priv.479
                0x2000354c                errorVelocityI
                0x20003550                altHoldThrottleAdjustment
                0x20003554                velocityControl
                0x20003558                lastMeasurementAt.lto_priv.394
                0x2000355c                sonarHardware.lto_priv.393
                0x20003560                mag
                0x20003568                magADC
                0x20003580                magInit.lto_priv.420
                0x20003584                gpsData
                0x200035a4                gpsConfig.lto_priv.395
 .bss           0x200035ac      0x1a8 /tmp/ccGYWBCE.ltrans18.ltrans.o
                0x200035ac                gpsHistory.lto_priv.495
                0x200035c0                blackboxHistory.lto_priv.497
                0x200035cc                blackboxHistoryRing.lto_priv.498
                0x20003740                blackboxIFrameIndex.lto_priv.496
                0x20003744                blackboxLastArmingBeep.lto_priv.499
                0x20003748                systemState.lto_priv.377
                0x2000374c                totalWaitingTasksSamples.lto_priv.475
                0x20003750                totalWaitingTasks.lto_priv.476
 .bss           0x20003754       0x40 /tmp/ccGYWBCE.ltrans19.ltrans.o
                0x20003778                GPS_packetCount
                0x20003780                GPS_svInfoReceivedCount
                0x2000378c                GPS_garbageByteCount
 .bss           0x20003794      0x100 /tmp/ccGYWBCE.ltrans21.ltrans.o
                0x20003798                uartPort3.lto_priv.541
                0x200037ec                uartPort2.lto_priv.542
                0x20003840                uartPort1.lto_priv.543
 .bss           0x20003894       0x6a /tmp/ccGYWBCE.ltrans22.ltrans.o
                0x20003894                cliPort.lto_priv.316
                0x20003898                gpsPort.lto_priv.256
                0x2000389c                pageState.lto_priv.262
                0x200038b0                cliWriter.lto_priv.203
                0x200038b4                currentControlRateProfileIndex.lto_priv.261
                0x200038b8                currentControlRateProfile
                0x200038bc                motor_disarmed
                0x200038d4                averageSystemLoadPercent
                0x200038d6                batteryState.lto_priv.236
                0x200038d8                enabledSensors.lto_priv.239
                0x200038dc                acc
                0x200038e8                beep_multiBeeps.lto_priv.213
 *fill*         0x200038fe        0x2 
 .bss           0x20003900       0x2c /tmp/ccGYWBCE.ltrans23.ltrans.o
                0x20003905                rxMspFrameDone.lto_priv.311
                0x20003906                ppmFrameCount.lto_priv.545
                0x2000390c                batteryWarningVoltage
                0x2000390e                batteryCriticalVoltage
                0x20003918                amperageLatestADC
                0x20003928                armingBeepTimeMicros.lto_priv.370
 .bss           0x2000392c       0x21 /tmp/ccGYWBCE.ltrans24.ltrans.o
 *fill*         0x2000394d        0x3 
 .bss           0x20003950       0x31 /tmp/ccGYWBCE.ltrans25.ltrans.o
                0x20003950                accADC
                0x20003958                accelerationTrims.lto_priv.486
                0x20003980                isAccelUpdatedAtLeastOnce.lto_priv.353
 *fill*         0x20003981        0x3 
 .bss           0x20003984       0x10 /tmp/ccGYWBCE.ltrans26.ltrans.o
                0x20003990                failsafeConfig.lto_priv.267
 *(SORT(.bss*))
 .bss.systemBeepPtr
                0x20003994        0x4 /tmp/ccGYWBCE.ltrans13.ltrans.o
                0x20003994                systemBeepPtr
 .bss.accTimeSum
                0x20003998        0x4 /tmp/ccGYWBCE.ltrans17.ltrans.o
                0x20003998                accTimeSum
 .bss.setVelocity
                0x2000399c        0x4 /tmp/ccGYWBCE.ltrans17.ltrans.o
                0x2000399c                setVelocity
 .bss.__malloc_sbrk_start
                0x200039a0        0x4 /usr/lib/gcc/arm-none-eabi/4.9.3/../../../arm-none-eabi/lib/armv7e-m/fpu/libc_nano.a(lib_a-nano-mallocr.o)
                0x200039a0                __malloc_sbrk_start
 .bss.__malloc_free_list
                0x200039a4        0x4 /usr/lib/gcc/arm-none-eabi/4.9.3/../../../arm-none-eabi/lib/armv7e-m/fpu/libc_nano.a(lib_a-nano-mallocr.o)
                0x200039a4                __malloc_free_list
 .bss.heap_end.4079
                0x200039a8        0x4 /usr/lib/gcc/arm-none-eabi/4.9.3/../../../arm-none-eabi/lib/armv7e-m/fpu/libnosys.a(sbrk.o)
 .bss.calibratingG
                0x200039ac        0x2 /tmp/ccGYWBCE.ltrans3.ltrans.o
                0x200039ac                calibratingG
 .bss.GPS_angle
                0x200039ae        0x4 /tmp/ccGYWBCE.ltrans13.ltrans.o
                0x200039ae                GPS_angle
 .bss.calibratingB
                0x200039b2        0x2 /tmp/ccGYWBCE.ltrans17.ltrans.o
                0x200039b2                calibratingB
 .bss.cycleTime
                0x200039b4        0x2 /tmp/ccGYWBCE.ltrans22.ltrans.o
                0x200039b4                cycleTime
 .bss.CHAR_FORMAT
                0x200039b6        0x1 /tmp/ccGYWBCE.ltrans4.ltrans.o
 .bss.ws2811LedDataTransferInProgress
                0x200039b7        0x1 /tmp/ccGYWBCE.ltrans6.ltrans.o
                0x200039b7                ws2811LedDataTransferInProgress
 .bss.armingFlags
                0x200039b8        0x1 /tmp/ccGYWBCE.ltrans8.ltrans.o
                0x200039b8                armingFlags
 .bss.cliMode   0x200039b9        0x1 /tmp/ccGYWBCE.ltrans12.ltrans.o
                0x200039b9                cliMode
 .bss.magAlign  0x200039ba        0x1 /tmp/ccGYWBCE.ltrans17.ltrans.o
                0x200039ba                magAlign
 .bss.accAlign  0x200039bb        0x1 /tmp/ccGYWBCE.ltrans25.ltrans.o
                0x200039bb                accAlign
 *(COMMON)
 COMMON         0x200039bc        0x4 /usr/lib/gcc/arm-none-eabi/4.9.3/../../../arm-none-eabi/lib/armv7e-m/fpu/libc_nano.a(lib_a-reent.o)
                0x200039bc                errno
                0x200039c0                . = ALIGN (0x4)
                0x200039c0                _ebss = .
                0x200039c0                __bss_end__ = _ebss

._user_heap_stack
                0x200039c0      0x400 load address 0x0801cd60
                0x200039c0                . = ALIGN (0x4)
                0x200039c0                PROVIDE (end, .)
                [!provide]                PROVIDE (_end, .)
                0x200039c0                . = (. + _Min_Heap_Size)
                0x20003dc0                . = (. + _Min_Stack_Size)
 *fill*         0x200039c0      0x400 
                0x20003dc0                . = ALIGN (0x4)

.memory_b1_text
 *(.mb1text)
 *(.mb1text*)
 *(.mb1rodata)
 *(.mb1rodata*)

/DISCARD/
 libc.a(*)
 libm.a(*)
 libgcc.a(*)

.ARM.attributes
                0x00000000       0x35
 *(.ARM.attributes)
 .ARM.attributes
                0x00000000       0x21 obj/main/SPRACINGF3/startup_stm32f30x_md_gcc.o
 .ARM.attributes
                0x00000021       0x37 /tmp/ccGYWBCE.ltrans0.ltrans.o
 .ARM.attributes
                0x00000058       0x37 /tmp/ccGYWBCE.ltrans1.ltrans.o
 .ARM.attributes
                0x0000008f       0x37 /tmp/ccGYWBCE.ltrans2.ltrans.o
 .ARM.attributes
                0x000000c6       0x37 /tmp/ccGYWBCE.ltrans3.ltrans.o
 .ARM.attributes
                0x000000fd       0x37 /tmp/ccGYWBCE.ltrans4.ltrans.o
 .ARM.attributes
                0x00000134       0x37 /tmp/ccGYWBCE.ltrans5.ltrans.o
 .ARM.attributes
                0x0000016b       0x37 /tmp/ccGYWBCE.ltrans6.ltrans.o
 .ARM.attributes
                0x000001a2       0x37 /tmp/ccGYWBCE.ltrans7.ltrans.o
 .ARM.attributes
                0x000001d9       0x37 /tmp/ccGYWBCE.ltrans8.ltrans.o
 .ARM.attributes
                0x00000210       0x37 /tmp/ccGYWBCE.ltrans9.ltrans.o
 .ARM.attributes
                0x00000247       0x37 /tmp/ccGYWBCE.ltrans10.ltrans.o
 .ARM.attributes
                0x0000027e       0x37 /tmp/ccGYWBCE.ltrans11.ltrans.o
 .ARM.attributes
                0x000002b5       0x37 /tmp/ccGYWBCE.ltrans12.ltrans.o
 .ARM.attributes
                0x000002ec       0x37 /tmp/ccGYWBCE.ltrans13.ltrans.o
 .ARM.attributes
                0x00000323       0x37 /tmp/ccGYWBCE.ltrans14.ltrans.o
 .ARM.attributes
                0x0000035a       0x37 /tmp/ccGYWBCE.ltrans15.ltrans.o
 .ARM.attributes
                0x00000391       0x37 /tmp/ccGYWBCE.ltrans16.ltrans.o
 .ARM.attributes
                0x000003c8       0x37 /tmp/ccGYWBCE.ltrans17.ltrans.o
 .ARM.attributes
                0x000003ff       0x37 /tmp/ccGYWBCE.ltrans18.ltrans.o
 .ARM.attributes
                0x00000436       0x37 /tmp/ccGYWBCE.ltrans19.ltrans.o
 .ARM.attributes
                0x0000046d       0x37 /tmp/ccGYWBCE.ltrans20.ltrans.o
 .ARM.attributes
                0x000004a4       0x37 /tmp/ccGYWBCE.ltrans21.ltrans.o
 .ARM.attributes
                0x000004db       0x37 /tmp/ccGYWBCE.ltrans22.ltrans.o
 .ARM.attributes
                0x00000512       0x37 /tmp/ccGYWBCE.ltrans23.ltrans.o
 .ARM.attributes
                0x00000549       0x37 /tmp/ccGYWBCE.ltrans24.ltrans.o
 .ARM.attributes
                0x00000580       0x37 /tmp/ccGYWBCE.ltrans25.ltrans.o
 .ARM.attributes
                0x000005b7       0x37 /tmp/ccGYWBCE.ltrans26.ltrans.o
 .ARM.attributes
                0x000005ee       0x34 /usr/lib/gcc/arm-none-eabi/4.9.3/../../../arm-none-eabi/lib/armv7e-m/fpu/libc_nano.a(lib_a-atoi.o)
 .ARM.attributes
                0x00000622       0x34 /usr/lib/gcc/arm-none-eabi/4.9.3/../../../arm-none-eabi/lib/armv7e-m/fpu/libc_nano.a(lib_a-ctype_.o)
 .ARM.attributes
                0x00000656       0x34 /usr/lib/gcc/arm-none-eabi/4.9.3/../../../arm-none-eabi/lib/armv7e-m/fpu/libc_nano.a(lib_a-strtok.o)
 .ARM.attributes
                0x0000068a       0x34 /usr/lib/gcc/arm-none-eabi/4.9.3/../../../arm-none-eabi/lib/armv7e-m/fpu/libc_nano.a(lib_a-strtok_r.o)
 .ARM.attributes
                0x000006be       0x34 /usr/lib/gcc/arm-none-eabi/4.9.3/../../../arm-none-eabi/lib/armv7e-m/fpu/libc_nano.a(lib_a-strtol.o)
 .ARM.attributes
                0x000006f2       0x34 /usr/lib/gcc/arm-none-eabi/4.9.3/../../../arm-none-eabi/lib/armv7e-m/fpu/libc_nano.a(lib_a-impure.o)
 .ARM.attributes
                0x00000726       0x34 /usr/lib/gcc/arm-none-eabi/4.9.3/../../../arm-none-eabi/lib/armv7e-m/fpu/libc_nano.a(lib_a-malloc.o)
 .ARM.attributes
                0x0000075a       0x34 /usr/lib/gcc/arm-none-eabi/4.9.3/../../../arm-none-eabi/lib/armv7e-m/fpu/libc_nano.a(lib_a-nano-mallocr.o)
 .ARM.attributes
                0x0000078e       0x34 /usr/lib/gcc/arm-none-eabi/4.9.3/../../../arm-none-eabi/lib/armv7e-m/fpu/libc_nano.a(lib_a-sbrkr.o)
 .ARM.attributes
                0x000007c2       0x34 /usr/lib/gcc/arm-none-eabi/4.9.3/../../../arm-none-eabi/lib/armv7e-m/fpu/libc_nano.a(lib_a-reent.o)
 .ARM.attributes
                0x000007f6       0x34 /usr/lib/gcc/arm-none-eabi/4.9.3/../../../arm-none-eabi/lib/armv7e-m/fpu/libnosys.a(sbrk.o)
 .ARM.attributes
                0x0000082a       0x34 /usr/lib/gcc/arm-none-eabi/4.9.3/../../../arm-none-eabi/lib/armv7e-m/fpu/libm.a(lib_a-sf_lrint.o)
 .ARM.attributes
                0x0000085e       0x34 /usr/lib/gcc/arm-none-eabi/4.9.3/../../../arm-none-eabi/lib/armv7e-m/fpu/libm.a(lib_a-sf_tan.o)
 .ARM.attributes
                0x00000892       0x34 /usr/lib/gcc/arm-none-eabi/4.9.3/../../../arm-none-eabi/lib/armv7e-m/fpu/libm.a(lib_a-wf_pow.o)
 .ARM.attributes
                0x000008c6       0x34 /usr/lib/gcc/arm-none-eabi/4.9.3/../../../arm-none-eabi/lib/armv7e-m/fpu/libm.a(lib_a-wf_sqrt.o)
 .ARM.attributes
                0x000008fa       0x34 /usr/lib/gcc/arm-none-eabi/4.9.3/../../../arm-none-eabi/lib/armv7e-m/fpu/libm.a(lib_a-ef_pow.o)
 .ARM.attributes
                0x0000092e       0x34 /usr/lib/gcc/arm-none-eabi/4.9.3/../../../arm-none-eabi/lib/armv7e-m/fpu/libm.a(lib_a-ef_rem_pio2.o)
 .ARM.attributes
                0x00000962       0x34 /usr/lib/gcc/arm-none-eabi/4.9.3/../../../arm-none-eabi/lib/armv7e-m/fpu/libm.a(lib_a-ef_sqrt.o)
 .ARM.attributes
                0x00000996       0x34 /usr/lib/gcc/arm-none-eabi/4.9.3/../../../arm-none-eabi/lib/armv7e-m/fpu/libm.a(lib_a-kf_rem_pio2.o)
 .ARM.attributes
                0x000009ca       0x34 /usr/lib/gcc/arm-none-eabi/4.9.3/../../../arm-none-eabi/lib/armv7e-m/fpu/libm.a(lib_a-kf_tan.o)
 .ARM.attributes
                0x000009fe       0x34 /usr/lib/gcc/arm-none-eabi/4.9.3/../../../arm-none-eabi/lib/armv7e-m/fpu/libm.a(lib_a-s_lib_ver.o)
 .ARM.attributes
                0x00000a32       0x34 /usr/lib/gcc/arm-none-eabi/4.9.3/../../../arm-none-eabi/lib/armv7e-m/fpu/libm.a(lib_a-s_matherr.o)
 .ARM.attributes
                0x00000a66       0x34 /usr/lib/gcc/arm-none-eabi/4.9.3/../../../arm-none-eabi/lib/armv7e-m/fpu/libm.a(lib_a-s_rint.o)
 .ARM.attributes
                0x00000a9a       0x34 /usr/lib/gcc/arm-none-eabi/4.9.3/../../../arm-none-eabi/lib/armv7e-m/fpu/libm.a(lib_a-sf_fabs.o)
 .ARM.attributes
                0x00000ace       0x34 /usr/lib/gcc/arm-none-eabi/4.9.3/../../../arm-none-eabi/lib/armv7e-m/fpu/libm.a(lib_a-sf_finite.o)
 .ARM.attributes
                0x00000b02       0x34 /usr/lib/gcc/arm-none-eabi/4.9.3/../../../arm-none-eabi/lib/armv7e-m/fpu/libm.a(lib_a-sf_floor.o)
 .ARM.attributes
                0x00000b36       0x34 /usr/lib/gcc/arm-none-eabi/4.9.3/../../../arm-none-eabi/lib/armv7e-m/fpu/libm.a(lib_a-sf_fpclassify.o)
 .ARM.attributes
                0x00000b6a       0x34 /usr/lib/gcc/arm-none-eabi/4.9.3/../../../arm-none-eabi/lib/armv7e-m/fpu/libm.a(lib_a-sf_nan.o)
 .ARM.attributes
                0x00000b9e       0x34 /usr/lib/gcc/arm-none-eabi/4.9.3/../../../arm-none-eabi/lib/armv7e-m/fpu/libm.a(lib_a-sf_scalbn.o)
 .ARM.attributes
                0x00000bd2       0x34 /usr/lib/gcc/arm-none-eabi/4.9.3/../../../arm-none-eabi/lib/armv7e-m/fpu/libm.a(lib_a-sf_copysign.o)
 .ARM.attributes
                0x00000c06       0x34 /usr/lib/gcc/arm-none-eabi/4.9.3/../../../arm-none-eabi/lib/armv7e-m/fpu/libc_nano.a(lib_a-errno.o)
 .ARM.attributes
                0x00000c3a       0x34 /usr/lib/gcc/arm-none-eabi/4.9.3/../../../arm-none-eabi/lib/armv7e-m/fpu/libc_nano.a(lib_a-memcmp.o)
 .ARM.attributes
                0x00000c6e       0x34 /usr/lib/gcc/arm-none-eabi/4.9.3/../../../arm-none-eabi/lib/armv7e-m/fpu/libc_nano.a(lib_a-memcpy.o)
 .ARM.attributes
                0x00000ca2       0x34 /usr/lib/gcc/arm-none-eabi/4.9.3/../../../arm-none-eabi/lib/armv7e-m/fpu/libc_nano.a(lib_a-memset.o)
 .ARM.attributes
                0x00000cd6       0x34 /usr/lib/gcc/arm-none-eabi/4.9.3/../../../arm-none-eabi/lib/armv7e-m/fpu/libc_nano.a(lib_a-strcasecmp.o)
 .ARM.attributes
                0x00000d0a       0x34 /usr/lib/gcc/arm-none-eabi/4.9.3/../../../arm-none-eabi/lib/armv7e-m/fpu/libc_nano.a(lib_a-strcat.o)
 .ARM.attributes
                0x00000d3e       0x34 /usr/lib/gcc/arm-none-eabi/4.9.3/../../../arm-none-eabi/lib/armv7e-m/fpu/libc_nano.a(lib_a-strchr.o)
 .ARM.attributes
                0x00000d72       0x34 /usr/lib/gcc/arm-none-eabi/4.9.3/../../../arm-none-eabi/lib/armv7e-m/fpu/libc_nano.a(lib_a-strlen.o)
 .ARM.attributes
                0x00000da6       0x34 /usr/lib/gcc/arm-none-eabi/4.9.3/../../../arm-none-eabi/lib/armv7e-m/fpu/libc_nano.a(lib_a-strncasecmp.o)
 .ARM.attributes
                0x00000dda       0x34 /usr/lib/gcc/arm-none-eabi/4.9.3/../../../arm-none-eabi/lib/armv7e-m/fpu/libc_nano.a(lib_a-strncpy.o)
 .ARM.attributes
                0x00000e0e       0x34 /usr/lib/gcc/arm-none-eabi/4.9.3/../../../arm-none-eabi/lib/armv7e-m/fpu/libc_nano.a(lib_a-strstr.o)
 .ARM.attributes
                0x00000e42       0x22 /usr/lib/gcc/arm-none-eabi/4.9.3/armv7e-m/fpu/libgcc.a(_ashrdi3.o)
 .ARM.attributes
                0x00000e64       0x22 /usr/lib/gcc/arm-none-eabi/4.9.3/armv7e-m/fpu/libgcc.a(_arm_addsubdf3.o)
 .ARM.attributes
                0x00000e86       0x22 /usr/lib/gcc/arm-none-eabi/4.9.3/armv7e-m/fpu/libgcc.a(_arm_muldivdf3.o)
 .ARM.attributes
                0x00000ea8       0x22 /usr/lib/gcc/arm-none-eabi/4.9.3/armv7e-m/fpu/libgcc.a(_arm_cmpdf2.o)
 .ARM.attributes
                0x00000eca       0x22 /usr/lib/gcc/arm-none-eabi/4.9.3/armv7e-m/fpu/libgcc.a(_arm_truncdfsf2.o)
 .ARM.attributes
                0x00000eec       0x22 /usr/lib/gcc/arm-none-eabi/4.9.3/armv7e-m/fpu/libgcc.a(_aeabi_ldivmod.o)
 .ARM.attributes
                0x00000f0e       0x34 /usr/lib/gcc/arm-none-eabi/4.9.3/armv7e-m/fpu/libgcc.a(_fixsfdi.o)
 .ARM.attributes
                0x00000f42       0x34 /usr/lib/gcc/arm-none-eabi/4.9.3/armv7e-m/fpu/libgcc.a(_fixunssfdi.o)
 .ARM.attributes
                0x00000f76       0x34 /usr/lib/gcc/arm-none-eabi/4.9.3/armv7e-m/fpu/libgcc.a(bpabi.o)
 .ARM.attributes
                0x00000faa       0x22 /usr/lib/gcc/arm-none-eabi/4.9.3/armv7e-m/fpu/libgcc.a(_dvmd_tls.o)
 .ARM.attributes
                0x00000fcc       0x22 /usr/lib/gcc/arm-none-eabi/4.9.3/armv7e-m/fpu/libgcc.a(_arm_fixunsdfsi.o)
 .ARM.attributes
                0x00000fee       0x34 /usr/lib/gcc/arm-none-eabi/4.9.3/armv7e-m/fpu/libgcc.a(_divdi3.o)
 .ARM.attributes
                0x00001022       0x34 /usr/lib/gcc/arm-none-eabi/4.9.3/armv7e-m/fpu/libgcc.a(_udivdi3.o)
OUTPUT(obj/main/cleanflight_SPRACINGF3.elf elf32-littlearm)

.debug_info     0x00000000    0x4919b
 .debug_info    0x00000000     0x8a4a /tmp/ccGYWBCE.ltrans0.ltrans.o
 .debug_info    0x00008a4a     0x3779 /tmp/ccGYWBCE.ltrans1.ltrans.o
 .debug_info    0x0000c1c3     0x3f0c /tmp/ccGYWBCE.ltrans2.ltrans.o
 .debug_info    0x000100cf     0x2b9d /tmp/ccGYWBCE.ltrans3.ltrans.o
 .debug_info    0x00012c6c     0x36b8 /tmp/ccGYWBCE.ltrans4.ltrans.o
 .debug_info    0x00016324     0x2676 /tmp/ccGYWBCE.ltrans5.ltrans.o
 .debug_info    0x0001899a      0xf54 /tmp/ccGYWBCE.ltrans6.ltrans.o
 .debug_info    0x000198ee     0x3176 /tmp/ccGYWBCE.ltrans7.ltrans.o
 .debug_info    0x0001ca64     0x287a /tmp/ccGYWBCE.ltrans8.ltrans.o
 .debug_info    0x0001f2de     0x1a00 /tmp/ccGYWBCE.ltrans9.ltrans.o
 .debug_info    0x00020cde     0x30fc /tmp/ccGYWBCE.ltrans10.ltrans.o
 .debug_info    0x00023dda     0x14e0 /tmp/ccGYWBCE.ltrans11.ltrans.o
 .debug_info    0x000252ba     0x2829 /tmp/ccGYWBCE.ltrans12.ltrans.o
 .debug_info    0x00027ae3     0x2846 /tmp/ccGYWBCE.ltrans13.ltrans.o
 .debug_info    0x0002a329     0x249d /tmp/ccGYWBCE.ltrans14.ltrans.o
 .debug_info    0x0002c7c6     0x262b /tmp/ccGYWBCE.ltrans15.ltrans.o
 .debug_info    0x0002edf1     0x3b67 /tmp/ccGYWBCE.ltrans16.ltrans.o
 .debug_info    0x00032958     0x1f7e /tmp/ccGYWBCE.ltrans17.ltrans.o
 .debug_info    0x000348d6     0x1762 /tmp/ccGYWBCE.ltrans18.ltrans.o
 .debug_info    0x00036038     0x183f /tmp/ccGYWBCE.ltrans19.ltrans.o
 .debug_info    0x00037877     0x17e1 /tmp/ccGYWBCE.ltrans20.ltrans.o
 .debug_info    0x00039058     0x2156 /tmp/ccGYWBCE.ltrans21.ltrans.o
 .debug_info    0x0003b1ae     0x260c /tmp/ccGYWBCE.ltrans22.ltrans.o
 .debug_info    0x0003d7ba      0xd5b /tmp/ccGYWBCE.ltrans23.ltrans.o
 .debug_info    0x0003e515     0x112e /tmp/ccGYWBCE.ltrans24.ltrans.o
 .debug_info    0x0003f643      0x5e9 /tmp/ccGYWBCE.ltrans25.ltrans.o
 .debug_info    0x0003fc2c      0x479 /tmp/ccGYWBCE.ltrans26.ltrans.o
 .debug_info    0x000400a5      0x7ed /usr/lib/gcc/arm-none-eabi/4.9.3/../../../arm-none-eabi/lib/armv7e-m/fpu/libc_nano.a(lib_a-atoi.o)
 .debug_info    0x00040892       0x6f /usr/lib/gcc/arm-none-eabi/4.9.3/../../../arm-none-eabi/lib/armv7e-m/fpu/libc_nano.a(lib_a-ctype_.o)
 .debug_info    0x00040901      0x816 /usr/lib/gcc/arm-none-eabi/4.9.3/../../../arm-none-eabi/lib/armv7e-m/fpu/libc_nano.a(lib_a-strtok.o)
 .debug_info    0x00041117      0x184 /usr/lib/gcc/arm-none-eabi/4.9.3/../../../arm-none-eabi/lib/armv7e-m/fpu/libc_nano.a(lib_a-strtok_r.o)
 .debug_info    0x0004129b      0x853 /usr/lib/gcc/arm-none-eabi/4.9.3/../../../arm-none-eabi/lib/armv7e-m/fpu/libc_nano.a(lib_a-strtol.o)
 .debug_info    0x00041aee      0x7d3 /usr/lib/gcc/arm-none-eabi/4.9.3/../../../arm-none-eabi/lib/armv7e-m/fpu/libc_nano.a(lib_a-impure.o)
 .debug_info    0x000422c1      0x7c1 /usr/lib/gcc/arm-none-eabi/4.9.3/../../../arm-none-eabi/lib/armv7e-m/fpu/libc_nano.a(lib_a-malloc.o)
 .debug_info    0x00042a82      0x8fb /usr/lib/gcc/arm-none-eabi/4.9.3/../../../arm-none-eabi/lib/armv7e-m/fpu/libc_nano.a(lib_a-nano-mallocr.o)
 .debug_info    0x0004337d      0x7a0 /usr/lib/gcc/arm-none-eabi/4.9.3/../../../arm-none-eabi/lib/armv7e-m/fpu/libc_nano.a(lib_a-sbrkr.o)
 .debug_info    0x00043b1d      0x8fb /usr/lib/gcc/arm-none-eabi/4.9.3/../../../arm-none-eabi/lib/armv7e-m/fpu/libc_nano.a(lib_a-reent.o)
 .debug_info    0x00044418       0x99 /usr/lib/gcc/arm-none-eabi/4.9.3/../../../arm-none-eabi/lib/armv7e-m/fpu/libnosys.a(sbrk.o)
 .debug_info    0x000444b1      0x1ae /usr/lib/gcc/arm-none-eabi/4.9.3/../../../arm-none-eabi/lib/armv7e-m/fpu/libm.a(lib_a-sf_lrint.o)
 .debug_info    0x0004465f      0x1d0 /usr/lib/gcc/arm-none-eabi/4.9.3/../../../arm-none-eabi/lib/armv7e-m/fpu/libm.a(lib_a-sf_tan.o)
 .debug_info    0x0004482f      0x370 /usr/lib/gcc/arm-none-eabi/4.9.3/../../../arm-none-eabi/lib/armv7e-m/fpu/libm.a(lib_a-wf_pow.o)
 .debug_info    0x00044b9f      0x20f /usr/lib/gcc/arm-none-eabi/4.9.3/../../../arm-none-eabi/lib/armv7e-m/fpu/libm.a(lib_a-wf_sqrt.o)
 .debug_info    0x00044dae      0x6e2 /usr/lib/gcc/arm-none-eabi/4.9.3/../../../arm-none-eabi/lib/armv7e-m/fpu/libm.a(lib_a-ef_pow.o)
 .debug_info    0x00045490      0x38b /usr/lib/gcc/arm-none-eabi/4.9.3/../../../arm-none-eabi/lib/armv7e-m/fpu/libm.a(lib_a-ef_rem_pio2.o)
 .debug_info    0x0004581b      0x1c8 /usr/lib/gcc/arm-none-eabi/4.9.3/../../../arm-none-eabi/lib/armv7e-m/fpu/libm.a(lib_a-ef_sqrt.o)
 .debug_info    0x000459e3      0x388 /usr/lib/gcc/arm-none-eabi/4.9.3/../../../arm-none-eabi/lib/armv7e-m/fpu/libm.a(lib_a-kf_rem_pio2.o)
 .debug_info    0x00045d6b      0x295 /usr/lib/gcc/arm-none-eabi/4.9.3/../../../arm-none-eabi/lib/armv7e-m/fpu/libm.a(lib_a-kf_tan.o)
 .debug_info    0x00046000       0xbe /usr/lib/gcc/arm-none-eabi/4.9.3/../../../arm-none-eabi/lib/armv7e-m/fpu/libm.a(lib_a-s_lib_ver.o)
 .debug_info    0x000460be      0x129 /usr/lib/gcc/arm-none-eabi/4.9.3/../../../arm-none-eabi/lib/armv7e-m/fpu/libm.a(lib_a-s_matherr.o)
 .debug_info    0x000461e7      0x204 /usr/lib/gcc/arm-none-eabi/4.9.3/../../../arm-none-eabi/lib/armv7e-m/fpu/libm.a(lib_a-s_rint.o)
 .debug_info    0x000463eb       0xcc /usr/lib/gcc/arm-none-eabi/4.9.3/../../../arm-none-eabi/lib/armv7e-m/fpu/libm.a(lib_a-sf_fabs.o)
 .debug_info    0x000464b7       0xd2 /usr/lib/gcc/arm-none-eabi/4.9.3/../../../arm-none-eabi/lib/armv7e-m/fpu/libm.a(lib_a-sf_finite.o)
 .debug_info    0x00046589      0x15c /usr/lib/gcc/arm-none-eabi/4.9.3/../../../arm-none-eabi/lib/armv7e-m/fpu/libm.a(lib_a-sf_floor.o)
 .debug_info    0x000466e5       0xc8 /usr/lib/gcc/arm-none-eabi/4.9.3/../../../arm-none-eabi/lib/armv7e-m/fpu/libm.a(lib_a-sf_fpclassify.o)
 .debug_info    0x000467ad       0xcc /usr/lib/gcc/arm-none-eabi/4.9.3/../../../arm-none-eabi/lib/armv7e-m/fpu/libm.a(lib_a-sf_nan.o)
 .debug_info    0x00046879      0x221 /usr/lib/gcc/arm-none-eabi/4.9.3/../../../arm-none-eabi/lib/armv7e-m/fpu/libm.a(lib_a-sf_scalbn.o)
 .debug_info    0x00046a9a      0x12c /usr/lib/gcc/arm-none-eabi/4.9.3/../../../arm-none-eabi/lib/armv7e-m/fpu/libm.a(lib_a-sf_copysign.o)
 .debug_info    0x00046bc6      0x735 /usr/lib/gcc/arm-none-eabi/4.9.3/../../../arm-none-eabi/lib/armv7e-m/fpu/libc_nano.a(lib_a-errno.o)
 .debug_info    0x000472fb       0xef /usr/lib/gcc/arm-none-eabi/4.9.3/../../../arm-none-eabi/lib/armv7e-m/fpu/libc_nano.a(lib_a-memcmp.o)
 .debug_info    0x000473ea      0x104 /usr/lib/gcc/arm-none-eabi/4.9.3/../../../arm-none-eabi/lib/armv7e-m/fpu/libc_nano.a(lib_a-memcpy.o)
 .debug_info    0x000474ee       0xd3 /usr/lib/gcc/arm-none-eabi/4.9.3/../../../arm-none-eabi/lib/armv7e-m/fpu/libc_nano.a(lib_a-memset.o)
 .debug_info    0x000475c1      0x14f /usr/lib/gcc/arm-none-eabi/4.9.3/../../../arm-none-eabi/lib/armv7e-m/fpu/libc_nano.a(lib_a-strcasecmp.o)
 .debug_info    0x00047710       0xc8 /usr/lib/gcc/arm-none-eabi/4.9.3/../../../arm-none-eabi/lib/armv7e-m/fpu/libc_nano.a(lib_a-strcat.o)
 .debug_info    0x000477d8       0xe3 /usr/lib/gcc/arm-none-eabi/4.9.3/../../../arm-none-eabi/lib/armv7e-m/fpu/libc_nano.a(lib_a-strchr.o)
 .debug_info    0x000478bb       0xcd /usr/lib/gcc/arm-none-eabi/4.9.3/../../../arm-none-eabi/lib/armv7e-m/fpu/libc_nano.a(lib_a-strlen.o)
 .debug_info    0x00047988      0x169 /usr/lib/gcc/arm-none-eabi/4.9.3/../../../arm-none-eabi/lib/armv7e-m/fpu/libc_nano.a(lib_a-strncasecmp.o)
 .debug_info    0x00047af1       0xf5 /usr/lib/gcc/arm-none-eabi/4.9.3/../../../arm-none-eabi/lib/armv7e-m/fpu/libc_nano.a(lib_a-strncpy.o)
 .debug_info    0x00047be6       0xdb /usr/lib/gcc/arm-none-eabi/4.9.3/../../../arm-none-eabi/lib/armv7e-m/fpu/libc_nano.a(lib_a-strstr.o)
 .debug_info    0x00047cc1       0xc1 /usr/lib/gcc/arm-none-eabi/4.9.3/armv7e-m/fpu/libgcc.a(_ashrdi3.o)
 .debug_info    0x00047d82       0xc2 /usr/lib/gcc/arm-none-eabi/4.9.3/armv7e-m/fpu/libgcc.a(_arm_addsubdf3.o)
 .debug_info    0x00047e44       0xc2 /usr/lib/gcc/arm-none-eabi/4.9.3/armv7e-m/fpu/libgcc.a(_arm_muldivdf3.o)
 .debug_info    0x00047f06       0xc2 /usr/lib/gcc/arm-none-eabi/4.9.3/armv7e-m/fpu/libgcc.a(_arm_cmpdf2.o)
 .debug_info    0x00047fc8       0xc2 /usr/lib/gcc/arm-none-eabi/4.9.3/armv7e-m/fpu/libgcc.a(_arm_truncdfsf2.o)
 .debug_info    0x0004808a       0xbd /usr/lib/gcc/arm-none-eabi/4.9.3/armv7e-m/fpu/libgcc.a(_aeabi_ldivmod.o)
 .debug_info    0x00048147      0x119 /usr/lib/gcc/arm-none-eabi/4.9.3/armv7e-m/fpu/libgcc.a(_fixsfdi.o)
 .debug_info    0x00048260      0x11c /usr/lib/gcc/arm-none-eabi/4.9.3/armv7e-m/fpu/libgcc.a(_fixunssfdi.o)
 .debug_info    0x0004837c      0x164 /usr/lib/gcc/arm-none-eabi/4.9.3/armv7e-m/fpu/libgcc.a(bpabi.o)
 .debug_info    0x000484e0       0xc1 /usr/lib/gcc/arm-none-eabi/4.9.3/armv7e-m/fpu/libgcc.a(_dvmd_tls.o)
 .debug_info    0x000485a1       0xc2 /usr/lib/gcc/arm-none-eabi/4.9.3/armv7e-m/fpu/libgcc.a(_arm_fixunsdfsi.o)
 .debug_info    0x00048663      0x5bc /usr/lib/gcc/arm-none-eabi/4.9.3/armv7e-m/fpu/libgcc.a(_divdi3.o)
 .debug_info    0x00048c1f      0x57c /usr/lib/gcc/arm-none-eabi/4.9.3/armv7e-m/fpu/libgcc.a(_udivdi3.o)

.debug_abbrev   0x00000000     0xb68e
 .debug_abbrev  0x00000000      0x6a8 /tmp/ccGYWBCE.ltrans0.ltrans.o
 .debug_abbrev  0x000006a8      0x582 /tmp/ccGYWBCE.ltrans1.ltrans.o
 .debug_abbrev  0x00000c2a      0x581 /tmp/ccGYWBCE.ltrans2.ltrans.o
 .debug_abbrev  0x000011ab      0x4f2 /tmp/ccGYWBCE.ltrans3.ltrans.o
 .debug_abbrev  0x0000169d      0x4dd /tmp/ccGYWBCE.ltrans4.ltrans.o
 .debug_abbrev  0x00001b7a      0x46f /tmp/ccGYWBCE.ltrans5.ltrans.o
 .debug_abbrev  0x00001fe9      0x348 /tmp/ccGYWBCE.ltrans6.ltrans.o
 .debug_abbrev  0x00002331      0x629 /tmp/ccGYWBCE.ltrans7.ltrans.o
 .debug_abbrev  0x0000295a      0x664 /tmp/ccGYWBCE.ltrans8.ltrans.o
 .debug_abbrev  0x00002fbe      0x4f1 /tmp/ccGYWBCE.ltrans9.ltrans.o
 .debug_abbrev  0x000034af      0x693 /tmp/ccGYWBCE.ltrans10.ltrans.o
 .debug_abbrev  0x00003b42      0x453 /tmp/ccGYWBCE.ltrans11.ltrans.o
 .debug_abbrev  0x00003f95      0x509 /tmp/ccGYWBCE.ltrans12.ltrans.o
 .debug_abbrev  0x0000449e      0x657 /tmp/ccGYWBCE.ltrans13.ltrans.o
 .debug_abbrev  0x00004af5      0x6fb /tmp/ccGYWBCE.ltrans14.ltrans.o
 .debug_abbrev  0x000051f0      0x635 /tmp/ccGYWBCE.ltrans15.ltrans.o
 .debug_abbrev  0x00005825      0x53d /tmp/ccGYWBCE.ltrans16.ltrans.o
 .debug_abbrev  0x00005d62      0x51b /tmp/ccGYWBCE.ltrans17.ltrans.o
 .debug_abbrev  0x0000627d      0x477 /tmp/ccGYWBCE.ltrans18.ltrans.o
 .debug_abbrev  0x000066f4      0x46d /tmp/ccGYWBCE.ltrans19.ltrans.o
 .debug_abbrev  0x00006b61      0x5fe /tmp/ccGYWBCE.ltrans20.ltrans.o
 .debug_abbrev  0x0000715f      0x5b3 /tmp/ccGYWBCE.ltrans21.ltrans.o
 .debug_abbrev  0x00007712      0x540 /tmp/ccGYWBCE.ltrans22.ltrans.o
 .debug_abbrev  0x00007c52      0x40c /tmp/ccGYWBCE.ltrans23.ltrans.o
 .debug_abbrev  0x0000805e      0x464 /tmp/ccGYWBCE.ltrans24.ltrans.o
 .debug_abbrev  0x000084c2      0x294 /tmp/ccGYWBCE.ltrans25.ltrans.o
 .debug_abbrev  0x00008756      0x1d4 /tmp/ccGYWBCE.ltrans26.ltrans.o
 .debug_abbrev  0x0000892a      0x176 /usr/lib/gcc/arm-none-eabi/4.9.3/../../../arm-none-eabi/lib/armv7e-m/fpu/libc_nano.a(lib_a-atoi.o)
 .debug_abbrev  0x00008aa0       0x4e /usr/lib/gcc/arm-none-eabi/4.9.3/../../../arm-none-eabi/lib/armv7e-m/fpu/libc_nano.a(lib_a-ctype_.o)
 .debug_abbrev  0x00008aee      0x1e1 /usr/lib/gcc/arm-none-eabi/4.9.3/../../../arm-none-eabi/lib/armv7e-m/fpu/libc_nano.a(lib_a-strtok.o)
 .debug_abbrev  0x00008ccf       0xed /usr/lib/gcc/arm-none-eabi/4.9.3/../../../arm-none-eabi/lib/armv7e-m/fpu/libc_nano.a(lib_a-strtok_r.o)
 .debug_abbrev  0x00008dbc      0x1ac /usr/lib/gcc/arm-none-eabi/4.9.3/../../../arm-none-eabi/lib/armv7e-m/fpu/libc_nano.a(lib_a-strtol.o)
 .debug_abbrev  0x00008f68      0x136 /usr/lib/gcc/arm-none-eabi/4.9.3/../../../arm-none-eabi/lib/armv7e-m/fpu/libc_nano.a(lib_a-impure.o)
 .debug_abbrev  0x0000909e      0x19f /usr/lib/gcc/arm-none-eabi/4.9.3/../../../arm-none-eabi/lib/armv7e-m/fpu/libc_nano.a(lib_a-malloc.o)
 .debug_abbrev  0x0000923d      0x250 /usr/lib/gcc/arm-none-eabi/4.9.3/../../../arm-none-eabi/lib/armv7e-m/fpu/libc_nano.a(lib_a-nano-mallocr.o)
 .debug_abbrev  0x0000948d      0x1a2 /usr/lib/gcc/arm-none-eabi/4.9.3/../../../arm-none-eabi/lib/armv7e-m/fpu/libc_nano.a(lib_a-sbrkr.o)
 .debug_abbrev  0x0000962f      0x1f2 /usr/lib/gcc/arm-none-eabi/4.9.3/../../../arm-none-eabi/lib/armv7e-m/fpu/libc_nano.a(lib_a-reent.o)
 .debug_abbrev  0x00009821       0x83 /usr/lib/gcc/arm-none-eabi/4.9.3/../../../arm-none-eabi/lib/armv7e-m/fpu/libnosys.a(sbrk.o)
 .debug_abbrev  0x000098a4       0xf9 /usr/lib/gcc/arm-none-eabi/4.9.3/../../../arm-none-eabi/lib/armv7e-m/fpu/libm.a(lib_a-sf_lrint.o)
 .debug_abbrev  0x0000999d      0x149 /usr/lib/gcc/arm-none-eabi/4.9.3/../../../arm-none-eabi/lib/armv7e-m/fpu/libm.a(lib_a-sf_tan.o)
 .debug_abbrev  0x00009ae6      0x158 /usr/lib/gcc/arm-none-eabi/4.9.3/../../../arm-none-eabi/lib/armv7e-m/fpu/libm.a(lib_a-wf_pow.o)
 .debug_abbrev  0x00009c3e      0x13a /usr/lib/gcc/arm-none-eabi/4.9.3/../../../arm-none-eabi/lib/armv7e-m/fpu/libm.a(lib_a-wf_sqrt.o)
 .debug_abbrev  0x00009d78      0x1c2 /usr/lib/gcc/arm-none-eabi/4.9.3/../../../arm-none-eabi/lib/armv7e-m/fpu/libm.a(lib_a-ef_pow.o)
 .debug_abbrev  0x00009f3a      0x15d /usr/lib/gcc/arm-none-eabi/4.9.3/../../../arm-none-eabi/lib/armv7e-m/fpu/libm.a(lib_a-ef_rem_pio2.o)
 .debug_abbrev  0x0000a097       0xed /usr/lib/gcc/arm-none-eabi/4.9.3/../../../arm-none-eabi/lib/armv7e-m/fpu/libm.a(lib_a-ef_sqrt.o)
 .debug_abbrev  0x0000a184      0x14b /usr/lib/gcc/arm-none-eabi/4.9.3/../../../arm-none-eabi/lib/armv7e-m/fpu/libm.a(lib_a-kf_rem_pio2.o)
 .debug_abbrev  0x0000a2cf      0x11e /usr/lib/gcc/arm-none-eabi/4.9.3/../../../arm-none-eabi/lib/armv7e-m/fpu/libm.a(lib_a-kf_tan.o)
 .debug_abbrev  0x0000a3ed       0x4f /usr/lib/gcc/arm-none-eabi/4.9.3/../../../arm-none-eabi/lib/armv7e-m/fpu/libm.a(lib_a-s_lib_ver.o)
 .debug_abbrev  0x0000a43c       0x9a /usr/lib/gcc/arm-none-eabi/4.9.3/../../../arm-none-eabi/lib/armv7e-m/fpu/libm.a(lib_a-s_matherr.o)
 .debug_abbrev  0x0000a4d6      0x120 /usr/lib/gcc/arm-none-eabi/4.9.3/../../../arm-none-eabi/lib/armv7e-m/fpu/libm.a(lib_a-s_rint.o)
 .debug_abbrev  0x0000a5f6       0x6f /usr/lib/gcc/arm-none-eabi/4.9.3/../../../arm-none-eabi/lib/armv7e-m/fpu/libm.a(lib_a-sf_fabs.o)
 .debug_abbrev  0x0000a665       0x6f /usr/lib/gcc/arm-none-eabi/4.9.3/../../../arm-none-eabi/lib/armv7e-m/fpu/libm.a(lib_a-sf_finite.o)
 .debug_abbrev  0x0000a6d4       0xc4 /usr/lib/gcc/arm-none-eabi/4.9.3/../../../arm-none-eabi/lib/armv7e-m/fpu/libm.a(lib_a-sf_floor.o)
 .debug_abbrev  0x0000a798       0x6f /usr/lib/gcc/arm-none-eabi/4.9.3/../../../arm-none-eabi/lib/armv7e-m/fpu/libm.a(lib_a-sf_fpclassify.o)
 .debug_abbrev  0x0000a807       0x72 /usr/lib/gcc/arm-none-eabi/4.9.3/../../../arm-none-eabi/lib/armv7e-m/fpu/libm.a(lib_a-sf_nan.o)
 .debug_abbrev  0x0000a879      0x11c /usr/lib/gcc/arm-none-eabi/4.9.3/../../../arm-none-eabi/lib/armv7e-m/fpu/libm.a(lib_a-sf_scalbn.o)
 .debug_abbrev  0x0000a995       0xcc /usr/lib/gcc/arm-none-eabi/4.9.3/../../../arm-none-eabi/lib/armv7e-m/fpu/libm.a(lib_a-sf_copysign.o)
 .debug_abbrev  0x0000aa61      0x134 /usr/lib/gcc/arm-none-eabi/4.9.3/../../../arm-none-eabi/lib/armv7e-m/fpu/libc_nano.a(lib_a-errno.o)
 .debug_abbrev  0x0000ab95       0x8e /usr/lib/gcc/arm-none-eabi/4.9.3/../../../arm-none-eabi/lib/armv7e-m/fpu/libc_nano.a(lib_a-memcmp.o)
 .debug_abbrev  0x0000ac23       0xa4 /usr/lib/gcc/arm-none-eabi/4.9.3/../../../arm-none-eabi/lib/armv7e-m/fpu/libc_nano.a(lib_a-memcpy.o)
 .debug_abbrev  0x0000acc7       0x8e /usr/lib/gcc/arm-none-eabi/4.9.3/../../../arm-none-eabi/lib/armv7e-m/fpu/libc_nano.a(lib_a-memset.o)
 .debug_abbrev  0x0000ad55       0xb3 /usr/lib/gcc/arm-none-eabi/4.9.3/../../../arm-none-eabi/lib/armv7e-m/fpu/libc_nano.a(lib_a-strcasecmp.o)
 .debug_abbrev  0x0000ae08       0x72 /usr/lib/gcc/arm-none-eabi/4.9.3/../../../arm-none-eabi/lib/armv7e-m/fpu/libc_nano.a(lib_a-strcat.o)
 .debug_abbrev  0x0000ae7a       0x83 /usr/lib/gcc/arm-none-eabi/4.9.3/../../../arm-none-eabi/lib/armv7e-m/fpu/libc_nano.a(lib_a-strchr.o)
 .debug_abbrev  0x0000aefd       0x8c /usr/lib/gcc/arm-none-eabi/4.9.3/../../../arm-none-eabi/lib/armv7e-m/fpu/libc_nano.a(lib_a-strlen.o)
 .debug_abbrev  0x0000af89       0xb1 /usr/lib/gcc/arm-none-eabi/4.9.3/../../../arm-none-eabi/lib/armv7e-m/fpu/libc_nano.a(lib_a-strncasecmp.o)
 .debug_abbrev  0x0000b03a       0x8e /usr/lib/gcc/arm-none-eabi/4.9.3/../../../arm-none-eabi/lib/armv7e-m/fpu/libc_nano.a(lib_a-strncpy.o)
 .debug_abbrev  0x0000b0c8       0x95 /usr/lib/gcc/arm-none-eabi/4.9.3/../../../arm-none-eabi/lib/armv7e-m/fpu/libc_nano.a(lib_a-strstr.o)
 .debug_abbrev  0x0000b15d       0x14 /usr/lib/gcc/arm-none-eabi/4.9.3/armv7e-m/fpu/libgcc.a(_ashrdi3.o)
 .debug_abbrev  0x0000b171       0x14 /usr/lib/gcc/arm-none-eabi/4.9.3/armv7e-m/fpu/libgcc.a(_arm_addsubdf3.o)
 .debug_abbrev  0x0000b185       0x14 /usr/lib/gcc/arm-none-eabi/4.9.3/armv7e-m/fpu/libgcc.a(_arm_muldivdf3.o)
 .debug_abbrev  0x0000b199       0x14 /usr/lib/gcc/arm-none-eabi/4.9.3/armv7e-m/fpu/libgcc.a(_arm_cmpdf2.o)
 .debug_abbrev  0x0000b1ad       0x14 /usr/lib/gcc/arm-none-eabi/4.9.3/armv7e-m/fpu/libgcc.a(_arm_truncdfsf2.o)
 .debug_abbrev  0x0000b1c1       0x14 /usr/lib/gcc/arm-none-eabi/4.9.3/armv7e-m/fpu/libgcc.a(_aeabi_ldivmod.o)
 .debug_abbrev  0x0000b1d5       0xa5 /usr/lib/gcc/arm-none-eabi/4.9.3/armv7e-m/fpu/libgcc.a(_fixsfdi.o)
 .debug_abbrev  0x0000b27a       0x78 /usr/lib/gcc/arm-none-eabi/4.9.3/armv7e-m/fpu/libgcc.a(_fixunssfdi.o)
 .debug_abbrev  0x0000b2f2       0xb7 /usr/lib/gcc/arm-none-eabi/4.9.3/armv7e-m/fpu/libgcc.a(bpabi.o)
 .debug_abbrev  0x0000b3a9       0x14 /usr/lib/gcc/arm-none-eabi/4.9.3/armv7e-m/fpu/libgcc.a(_dvmd_tls.o)
 .debug_abbrev  0x0000b3bd       0x14 /usr/lib/gcc/arm-none-eabi/4.9.3/armv7e-m/fpu/libgcc.a(_arm_fixunsdfsi.o)
 .debug_abbrev  0x0000b3d1      0x169 /usr/lib/gcc/arm-none-eabi/4.9.3/armv7e-m/fpu/libgcc.a(_divdi3.o)
 .debug_abbrev  0x0000b53a      0x154 /usr/lib/gcc/arm-none-eabi/4.9.3/armv7e-m/fpu/libgcc.a(_udivdi3.o)

.debug_loc      0x00000000    0x1ee73
 .debug_loc     0x00000000     0x37d2 /tmp/ccGYWBCE.ltrans0.ltrans.o
 .debug_loc     0x000037d2     0x1a69 /tmp/ccGYWBCE.ltrans1.ltrans.o
 .debug_loc     0x0000523b     0x1a05 /tmp/ccGYWBCE.ltrans2.ltrans.o
 .debug_loc     0x00006c40      0xe8d /tmp/ccGYWBCE.ltrans3.ltrans.o
 .debug_loc     0x00007acd     0x250f /tmp/ccGYWBCE.ltrans4.ltrans.o
 .debug_loc     0x00009fdc      0x9ce /tmp/ccGYWBCE.ltrans5.ltrans.o
 .debug_loc     0x0000a9aa      0xb30 /tmp/ccGYWBCE.ltrans6.ltrans.o
 .debug_loc     0x0000b4da     0x168c /tmp/ccGYWBCE.ltrans7.ltrans.o
 .debug_loc     0x0000cb66      0xea8 /tmp/ccGYWBCE.ltrans8.ltrans.o
 .debug_loc     0x0000da0e      0xc90 /tmp/ccGYWBCE.ltrans9.ltrans.o
 .debug_loc     0x0000e69e      0x8ad /tmp/ccGYWBCE.ltrans10.ltrans.o
 .debug_loc     0x0000ef4b      0x8b4 /tmp/ccGYWBCE.ltrans11.ltrans.o
 .debug_loc     0x0000f7ff     0x10c3 /tmp/ccGYWBCE.ltrans12.ltrans.o
 .debug_loc     0x000108c2     0x14d0 /tmp/ccGYWBCE.ltrans13.ltrans.o
 .debug_loc     0x00011d92      0xe08 /tmp/ccGYWBCE.ltrans14.ltrans.o
 .debug_loc     0x00012b9a      0xa89 /tmp/ccGYWBCE.ltrans15.ltrans.o
 .debug_loc     0x00013623     0x140c /tmp/ccGYWBCE.ltrans16.ltrans.o
 .debug_loc     0x00014a2f      0x623 /tmp/ccGYWBCE.ltrans17.ltrans.o
 .debug_loc     0x00015052      0x423 /tmp/ccGYWBCE.ltrans18.ltrans.o
 .debug_loc     0x00015475      0x7aa /tmp/ccGYWBCE.ltrans19.ltrans.o
 .debug_loc     0x00015c1f     0x124b /tmp/ccGYWBCE.ltrans20.ltrans.o
 .debug_loc     0x00016e6a      0x923 /tmp/ccGYWBCE.ltrans21.ltrans.o
 .debug_loc     0x0001778d      0xce0 /tmp/ccGYWBCE.ltrans22.ltrans.o
 .debug_loc     0x0001846d      0x35d /tmp/ccGYWBCE.ltrans23.ltrans.o
 .debug_loc     0x000187ca      0x6a5 /tmp/ccGYWBCE.ltrans24.ltrans.o
 .debug_loc     0x00018e6f      0x106 /tmp/ccGYWBCE.ltrans25.ltrans.o
 .debug_loc     0x00018f75       0x2c /tmp/ccGYWBCE.ltrans26.ltrans.o
 .debug_loc     0x00018fa1       0x63 /usr/lib/gcc/arm-none-eabi/4.9.3/../../../arm-none-eabi/lib/armv7e-m/fpu/libc_nano.a(lib_a-atoi.o)
 .debug_loc     0x00019004       0x94 /usr/lib/gcc/arm-none-eabi/4.9.3/../../../arm-none-eabi/lib/armv7e-m/fpu/libc_nano.a(lib_a-strtok.o)
 .debug_loc     0x00019098      0x1a3 /usr/lib/gcc/arm-none-eabi/4.9.3/../../../arm-none-eabi/lib/armv7e-m/fpu/libc_nano.a(lib_a-strtok_r.o)
 .debug_loc     0x0001923b      0x35f /usr/lib/gcc/arm-none-eabi/4.9.3/../../../arm-none-eabi/lib/armv7e-m/fpu/libc_nano.a(lib_a-strtol.o)
 .debug_loc     0x0001959a       0x58 /usr/lib/gcc/arm-none-eabi/4.9.3/../../../arm-none-eabi/lib/armv7e-m/fpu/libc_nano.a(lib_a-malloc.o)
 .debug_loc     0x000195f2      0x304 /usr/lib/gcc/arm-none-eabi/4.9.3/../../../arm-none-eabi/lib/armv7e-m/fpu/libc_nano.a(lib_a-nano-mallocr.o)
 .debug_loc     0x000198f6       0x4d /usr/lib/gcc/arm-none-eabi/4.9.3/../../../arm-none-eabi/lib/armv7e-m/fpu/libc_nano.a(lib_a-sbrkr.o)
 .debug_loc     0x00019943       0xfa /usr/lib/gcc/arm-none-eabi/4.9.3/../../../arm-none-eabi/lib/armv7e-m/fpu/libc_nano.a(lib_a-reent.o)
 .debug_loc     0x00019a3d       0x21 /usr/lib/gcc/arm-none-eabi/4.9.3/../../../arm-none-eabi/lib/armv7e-m/fpu/libnosys.a(sbrk.o)
 .debug_loc     0x00019a5e      0x200 /usr/lib/gcc/arm-none-eabi/4.9.3/../../../arm-none-eabi/lib/armv7e-m/fpu/libm.a(lib_a-sf_lrint.o)
 .debug_loc     0x00019c5e       0xf5 /usr/lib/gcc/arm-none-eabi/4.9.3/../../../arm-none-eabi/lib/armv7e-m/fpu/libm.a(lib_a-sf_tan.o)
 .debug_loc     0x00019d53      0x12e /usr/lib/gcc/arm-none-eabi/4.9.3/../../../arm-none-eabi/lib/armv7e-m/fpu/libm.a(lib_a-wf_pow.o)
 .debug_loc     0x00019e81       0x64 /usr/lib/gcc/arm-none-eabi/4.9.3/../../../arm-none-eabi/lib/armv7e-m/fpu/libm.a(lib_a-wf_sqrt.o)
 .debug_loc     0x00019ee5      0xec5 /usr/lib/gcc/arm-none-eabi/4.9.3/../../../arm-none-eabi/lib/armv7e-m/fpu/libm.a(lib_a-ef_pow.o)
 .debug_loc     0x0001adaa      0x5e0 /usr/lib/gcc/arm-none-eabi/4.9.3/../../../arm-none-eabi/lib/armv7e-m/fpu/libm.a(lib_a-ef_rem_pio2.o)
 .debug_loc     0x0001b38a      0x2af /usr/lib/gcc/arm-none-eabi/4.9.3/../../../arm-none-eabi/lib/armv7e-m/fpu/libm.a(lib_a-ef_sqrt.o)
 .debug_loc     0x0001b639      0x878 /usr/lib/gcc/arm-none-eabi/4.9.3/../../../arm-none-eabi/lib/armv7e-m/fpu/libm.a(lib_a-kf_rem_pio2.o)
 .debug_loc     0x0001beb1      0x35a /usr/lib/gcc/arm-none-eabi/4.9.3/../../../arm-none-eabi/lib/armv7e-m/fpu/libm.a(lib_a-kf_tan.o)
 .debug_loc     0x0001c20b       0x21 /usr/lib/gcc/arm-none-eabi/4.9.3/../../../arm-none-eabi/lib/armv7e-m/fpu/libm.a(lib_a-s_matherr.o)
 .debug_loc     0x0001c22c      0x291 /usr/lib/gcc/arm-none-eabi/4.9.3/../../../arm-none-eabi/lib/armv7e-m/fpu/libm.a(lib_a-s_rint.o)
 .debug_loc     0x0001c4bd       0x3e /usr/lib/gcc/arm-none-eabi/4.9.3/../../../arm-none-eabi/lib/armv7e-m/fpu/libm.a(lib_a-sf_fabs.o)
 .debug_loc     0x0001c4fb      0x276 /usr/lib/gcc/arm-none-eabi/4.9.3/../../../arm-none-eabi/lib/armv7e-m/fpu/libm.a(lib_a-sf_floor.o)
 .debug_loc     0x0001c771      0x32f /usr/lib/gcc/arm-none-eabi/4.9.3/../../../arm-none-eabi/lib/armv7e-m/fpu/libm.a(lib_a-sf_scalbn.o)
 .debug_loc     0x0001caa0       0x70 /usr/lib/gcc/arm-none-eabi/4.9.3/../../../arm-none-eabi/lib/armv7e-m/fpu/libm.a(lib_a-sf_copysign.o)
 .debug_loc     0x0001cb10       0xe1 /usr/lib/gcc/arm-none-eabi/4.9.3/../../../arm-none-eabi/lib/armv7e-m/fpu/libc_nano.a(lib_a-memcmp.o)
 .debug_loc     0x0001cbf1       0x87 /usr/lib/gcc/arm-none-eabi/4.9.3/../../../arm-none-eabi/lib/armv7e-m/fpu/libc_nano.a(lib_a-memcpy.o)
 .debug_loc     0x0001cc78       0x57 /usr/lib/gcc/arm-none-eabi/4.9.3/../../../arm-none-eabi/lib/armv7e-m/fpu/libc_nano.a(lib_a-memset.o)
 .debug_loc     0x0001cccf      0x137 /usr/lib/gcc/arm-none-eabi/4.9.3/../../../arm-none-eabi/lib/armv7e-m/fpu/libc_nano.a(lib_a-strcasecmp.o)
 .debug_loc     0x0001ce06       0x54 /usr/lib/gcc/arm-none-eabi/4.9.3/../../../arm-none-eabi/lib/armv7e-m/fpu/libc_nano.a(lib_a-strcat.o)
 .debug_loc     0x0001ce5a       0x6b /usr/lib/gcc/arm-none-eabi/4.9.3/../../../arm-none-eabi/lib/armv7e-m/fpu/libc_nano.a(lib_a-strchr.o)
 .debug_loc     0x0001cec5       0x21 /usr/lib/gcc/arm-none-eabi/4.9.3/../../../arm-none-eabi/lib/armv7e-m/fpu/libc_nano.a(lib_a-strlen.o)
 .debug_loc     0x0001cee6      0x198 /usr/lib/gcc/arm-none-eabi/4.9.3/../../../arm-none-eabi/lib/armv7e-m/fpu/libc_nano.a(lib_a-strncasecmp.o)
 .debug_loc     0x0001d07e       0xc5 /usr/lib/gcc/arm-none-eabi/4.9.3/../../../arm-none-eabi/lib/armv7e-m/fpu/libc_nano.a(lib_a-strncpy.o)
 .debug_loc     0x0001d143       0x55 /usr/lib/gcc/arm-none-eabi/4.9.3/../../../arm-none-eabi/lib/armv7e-m/fpu/libc_nano.a(lib_a-strstr.o)
 .debug_loc     0x0001d198       0x4a /usr/lib/gcc/arm-none-eabi/4.9.3/armv7e-m/fpu/libgcc.a(_fixsfdi.o)
 .debug_loc     0x0001d1e2       0xb2 /usr/lib/gcc/arm-none-eabi/4.9.3/armv7e-m/fpu/libgcc.a(_fixunssfdi.o)
 .debug_loc     0x0001d294       0xa0 /usr/lib/gcc/arm-none-eabi/4.9.3/armv7e-m/fpu/libgcc.a(bpabi.o)
 .debug_loc     0x0001d334      0xdef /usr/lib/gcc/arm-none-eabi/4.9.3/armv7e-m/fpu/libgcc.a(_divdi3.o)
 .debug_loc     0x0001e123      0xd50 /usr/lib/gcc/arm-none-eabi/4.9.3/armv7e-m/fpu/libgcc.a(_udivdi3.o)

.debug_aranges  0x00000000      0xa38
 .debug_aranges
                0x00000000       0x20 /tmp/ccGYWBCE.ltrans0.ltrans.o
 .debug_aranges
                0x00000020       0x20 /tmp/ccGYWBCE.ltrans1.ltrans.o
 .debug_aranges
                0x00000040       0x20 /tmp/ccGYWBCE.ltrans2.ltrans.o
 .debug_aranges
                0x00000060       0x20 /tmp/ccGYWBCE.ltrans3.ltrans.o
 .debug_aranges
                0x00000080       0x20 /tmp/ccGYWBCE.ltrans4.ltrans.o
 .debug_aranges
                0x000000a0       0x20 /tmp/ccGYWBCE.ltrans5.ltrans.o
 .debug_aranges
                0x000000c0       0x20 /tmp/ccGYWBCE.ltrans6.ltrans.o
 .debug_aranges
                0x000000e0       0x20 /tmp/ccGYWBCE.ltrans7.ltrans.o
 .debug_aranges
                0x00000100       0x20 /tmp/ccGYWBCE.ltrans8.ltrans.o
 .debug_aranges
                0x00000120       0x20 /tmp/ccGYWBCE.ltrans9.ltrans.o
 .debug_aranges
                0x00000140       0x20 /tmp/ccGYWBCE.ltrans10.ltrans.o
 .debug_aranges
                0x00000160       0x20 /tmp/ccGYWBCE.ltrans11.ltrans.o
 .debug_aranges
                0x00000180       0x20 /tmp/ccGYWBCE.ltrans12.ltrans.o
 .debug_aranges
                0x000001a0       0x20 /tmp/ccGYWBCE.ltrans13.ltrans.o
 .debug_aranges
                0x000001c0       0x20 /tmp/ccGYWBCE.ltrans14.ltrans.o
 .debug_aranges
                0x000001e0       0x20 /tmp/ccGYWBCE.ltrans15.ltrans.o
 .debug_aranges
                0x00000200       0x20 /tmp/ccGYWBCE.ltrans16.ltrans.o
 .debug_aranges
                0x00000220       0x20 /tmp/ccGYWBCE.ltrans17.ltrans.o
 .debug_aranges
                0x00000240       0x28 /tmp/ccGYWBCE.ltrans18.ltrans.o
 .debug_aranges
                0x00000268       0x20 /tmp/ccGYWBCE.ltrans19.ltrans.o
 .debug_aranges
                0x00000288       0x20 /tmp/ccGYWBCE.ltrans20.ltrans.o
 .debug_aranges
                0x000002a8       0x20 /tmp/ccGYWBCE.ltrans21.ltrans.o
 .debug_aranges
                0x000002c8       0x20 /tmp/ccGYWBCE.ltrans22.ltrans.o
 .debug_aranges
                0x000002e8       0x20 /tmp/ccGYWBCE.ltrans23.ltrans.o
 .debug_aranges
                0x00000308       0x20 /tmp/ccGYWBCE.ltrans24.ltrans.o
 .debug_aranges
                0x00000328       0x20 /tmp/ccGYWBCE.ltrans25.ltrans.o
 .debug_aranges
                0x00000348       0x20 /tmp/ccGYWBCE.ltrans26.ltrans.o
 .debug_aranges
                0x00000368       0x28 /usr/lib/gcc/arm-none-eabi/4.9.3/../../../arm-none-eabi/lib/armv7e-m/fpu/libc_nano.a(lib_a-atoi.o)
 .debug_aranges
                0x00000390       0x18 /usr/lib/gcc/arm-none-eabi/4.9.3/../../../arm-none-eabi/lib/armv7e-m/fpu/libc_nano.a(lib_a-ctype_.o)
 .debug_aranges
                0x000003a8       0x20 /usr/lib/gcc/arm-none-eabi/4.9.3/../../../arm-none-eabi/lib/armv7e-m/fpu/libc_nano.a(lib_a-strtok.o)
 .debug_aranges
                0x000003c8       0x28 /usr/lib/gcc/arm-none-eabi/4.9.3/../../../arm-none-eabi/lib/armv7e-m/fpu/libc_nano.a(lib_a-strtok_r.o)
 .debug_aranges
                0x000003f0       0x28 /usr/lib/gcc/arm-none-eabi/4.9.3/../../../arm-none-eabi/lib/armv7e-m/fpu/libc_nano.a(lib_a-strtol.o)
 .debug_aranges
                0x00000418       0x18 /usr/lib/gcc/arm-none-eabi/4.9.3/../../../arm-none-eabi/lib/armv7e-m/fpu/libc_nano.a(lib_a-impure.o)
 .debug_aranges
                0x00000430       0x28 /usr/lib/gcc/arm-none-eabi/4.9.3/../../../arm-none-eabi/lib/armv7e-m/fpu/libc_nano.a(lib_a-malloc.o)
 .debug_aranges
                0x00000458       0x20 /usr/lib/gcc/arm-none-eabi/4.9.3/../../../arm-none-eabi/lib/armv7e-m/fpu/libc_nano.a(lib_a-nano-mallocr.o)
 .debug_aranges
                0x00000478       0x20 /usr/lib/gcc/arm-none-eabi/4.9.3/../../../arm-none-eabi/lib/armv7e-m/fpu/libc_nano.a(lib_a-sbrkr.o)
 .debug_aranges
                0x00000498       0x28 /usr/lib/gcc/arm-none-eabi/4.9.3/../../../arm-none-eabi/lib/armv7e-m/fpu/libc_nano.a(lib_a-reent.o)
 .debug_aranges
                0x000004c0       0x20 /usr/lib/gcc/arm-none-eabi/4.9.3/../../../arm-none-eabi/lib/armv7e-m/fpu/libnosys.a(sbrk.o)
 .debug_aranges
                0x000004e0       0x20 /usr/lib/gcc/arm-none-eabi/4.9.3/../../../arm-none-eabi/lib/armv7e-m/fpu/libm.a(lib_a-sf_lrint.o)
 .debug_aranges
                0x00000500       0x20 /usr/lib/gcc/arm-none-eabi/4.9.3/../../../arm-none-eabi/lib/armv7e-m/fpu/libm.a(lib_a-sf_tan.o)
 .debug_aranges
                0x00000520       0x20 /usr/lib/gcc/arm-none-eabi/4.9.3/../../../arm-none-eabi/lib/armv7e-m/fpu/libm.a(lib_a-wf_pow.o)
 .debug_aranges
                0x00000540       0x20 /usr/lib/gcc/arm-none-eabi/4.9.3/../../../arm-none-eabi/lib/armv7e-m/fpu/libm.a(lib_a-wf_sqrt.o)
 .debug_aranges
                0x00000560       0x20 /usr/lib/gcc/arm-none-eabi/4.9.3/../../../arm-none-eabi/lib/armv7e-m/fpu/libm.a(lib_a-ef_pow.o)
 .debug_aranges
                0x00000580       0x20 /usr/lib/gcc/arm-none-eabi/4.9.3/../../../arm-none-eabi/lib/armv7e-m/fpu/libm.a(lib_a-ef_rem_pio2.o)
 .debug_aranges
                0x000005a0       0x20 /usr/lib/gcc/arm-none-eabi/4.9.3/../../../arm-none-eabi/lib/armv7e-m/fpu/libm.a(lib_a-ef_sqrt.o)
 .debug_aranges
                0x000005c0       0x20 /usr/lib/gcc/arm-none-eabi/4.9.3/../../../arm-none-eabi/lib/armv7e-m/fpu/libm.a(lib_a-kf_rem_pio2.o)
 .debug_aranges
                0x000005e0       0x20 /usr/lib/gcc/arm-none-eabi/4.9.3/../../../arm-none-eabi/lib/armv7e-m/fpu/libm.a(lib_a-kf_tan.o)
 .debug_aranges
                0x00000600       0x18 /usr/lib/gcc/arm-none-eabi/4.9.3/../../../arm-none-eabi/lib/armv7e-m/fpu/libm.a(lib_a-s_lib_ver.o)
 .debug_aranges
                0x00000618       0x20 /usr/lib/gcc/arm-none-eabi/4.9.3/../../../arm-none-eabi/lib/armv7e-m/fpu/libm.a(lib_a-s_matherr.o)
 .debug_aranges
                0x00000638       0x20 /usr/lib/gcc/arm-none-eabi/4.9.3/../../../arm-none-eabi/lib/armv7e-m/fpu/libm.a(lib_a-s_rint.o)
 .debug_aranges
                0x00000658       0x20 /usr/lib/gcc/arm-none-eabi/4.9.3/../../../arm-none-eabi/lib/armv7e-m/fpu/libm.a(lib_a-sf_fabs.o)
 .debug_aranges
                0x00000678       0x20 /usr/lib/gcc/arm-none-eabi/4.9.3/../../../arm-none-eabi/lib/armv7e-m/fpu/libm.a(lib_a-sf_finite.o)
 .debug_aranges
                0x00000698       0x20 /usr/lib/gcc/arm-none-eabi/4.9.3/../../../arm-none-eabi/lib/armv7e-m/fpu/libm.a(lib_a-sf_floor.o)
 .debug_aranges
                0x000006b8       0x20 /usr/lib/gcc/arm-none-eabi/4.9.3/../../../arm-none-eabi/lib/armv7e-m/fpu/libm.a(lib_a-sf_fpclassify.o)
 .debug_aranges
                0x000006d8       0x20 /usr/lib/gcc/arm-none-eabi/4.9.3/../../../arm-none-eabi/lib/armv7e-m/fpu/libm.a(lib_a-sf_nan.o)
 .debug_aranges
                0x000006f8       0x20 /usr/lib/gcc/arm-none-eabi/4.9.3/../../../arm-none-eabi/lib/armv7e-m/fpu/libm.a(lib_a-sf_scalbn.o)
 .debug_aranges
                0x00000718       0x20 /usr/lib/gcc/arm-none-eabi/4.9.3/../../../arm-none-eabi/lib/armv7e-m/fpu/libm.a(lib_a-sf_copysign.o)
 .debug_aranges
                0x00000738       0x20 /usr/lib/gcc/arm-none-eabi/4.9.3/../../../arm-none-eabi/lib/armv7e-m/fpu/libc_nano.a(lib_a-errno.o)
 .debug_aranges
                0x00000758       0x20 /usr/lib/gcc/arm-none-eabi/4.9.3/../../../arm-none-eabi/lib/armv7e-m/fpu/libc_nano.a(lib_a-memcmp.o)
 .debug_aranges
                0x00000778       0x20 /usr/lib/gcc/arm-none-eabi/4.9.3/../../../arm-none-eabi/lib/armv7e-m/fpu/libc_nano.a(lib_a-memcpy.o)
 .debug_aranges
                0x00000798       0x20 /usr/lib/gcc/arm-none-eabi/4.9.3/../../../arm-none-eabi/lib/armv7e-m/fpu/libc_nano.a(lib_a-memset.o)
 .debug_aranges
                0x000007b8       0x20 /usr/lib/gcc/arm-none-eabi/4.9.3/../../../arm-none-eabi/lib/armv7e-m/fpu/libc_nano.a(lib_a-strcasecmp.o)
 .debug_aranges
                0x000007d8       0x20 /usr/lib/gcc/arm-none-eabi/4.9.3/../../../arm-none-eabi/lib/armv7e-m/fpu/libc_nano.a(lib_a-strcat.o)
 .debug_aranges
                0x000007f8       0x20 /usr/lib/gcc/arm-none-eabi/4.9.3/../../../arm-none-eabi/lib/armv7e-m/fpu/libc_nano.a(lib_a-strchr.o)
 .debug_aranges
                0x00000818       0x20 /usr/lib/gcc/arm-none-eabi/4.9.3/../../../arm-none-eabi/lib/armv7e-m/fpu/libc_nano.a(lib_a-strlen.o)
 .debug_aranges
                0x00000838       0x20 /usr/lib/gcc/arm-none-eabi/4.9.3/../../../arm-none-eabi/lib/armv7e-m/fpu/libc_nano.a(lib_a-strncasecmp.o)
 .debug_aranges
                0x00000858       0x20 /usr/lib/gcc/arm-none-eabi/4.9.3/../../../arm-none-eabi/lib/armv7e-m/fpu/libc_nano.a(lib_a-strncpy.o)
 .debug_aranges
                0x00000878       0x20 /usr/lib/gcc/arm-none-eabi/4.9.3/../../../arm-none-eabi/lib/armv7e-m/fpu/libc_nano.a(lib_a-strstr.o)
 .debug_aranges
                0x00000898       0x20 /usr/lib/gcc/arm-none-eabi/4.9.3/armv7e-m/fpu/libgcc.a(_ashrdi3.o)
 .debug_aranges
                0x000008b8       0x20 /usr/lib/gcc/arm-none-eabi/4.9.3/armv7e-m/fpu/libgcc.a(_arm_addsubdf3.o)
 .debug_aranges
                0x000008d8       0x20 /usr/lib/gcc/arm-none-eabi/4.9.3/armv7e-m/fpu/libgcc.a(_arm_muldivdf3.o)
 .debug_aranges
                0x000008f8       0x20 /usr/lib/gcc/arm-none-eabi/4.9.3/armv7e-m/fpu/libgcc.a(_arm_cmpdf2.o)
 .debug_aranges
                0x00000918       0x20 /usr/lib/gcc/arm-none-eabi/4.9.3/armv7e-m/fpu/libgcc.a(_arm_truncdfsf2.o)
 .debug_aranges
                0x00000938       0x20 /usr/lib/gcc/arm-none-eabi/4.9.3/armv7e-m/fpu/libgcc.a(_aeabi_ldivmod.o)
 .debug_aranges
                0x00000958       0x20 /usr/lib/gcc/arm-none-eabi/4.9.3/armv7e-m/fpu/libgcc.a(_fixsfdi.o)
 .debug_aranges
                0x00000978       0x20 /usr/lib/gcc/arm-none-eabi/4.9.3/armv7e-m/fpu/libgcc.a(_fixunssfdi.o)
 .debug_aranges
                0x00000998       0x20 /usr/lib/gcc/arm-none-eabi/4.9.3/armv7e-m/fpu/libgcc.a(bpabi.o)
 .debug_aranges
                0x000009b8       0x20 /usr/lib/gcc/arm-none-eabi/4.9.3/armv7e-m/fpu/libgcc.a(_dvmd_tls.o)
 .debug_aranges
                0x000009d8       0x20 /usr/lib/gcc/arm-none-eabi/4.9.3/armv7e-m/fpu/libgcc.a(_arm_fixunsdfsi.o)
 .debug_aranges
                0x000009f8       0x20 /usr/lib/gcc/arm-none-eabi/4.9.3/armv7e-m/fpu/libgcc.a(_divdi3.o)
 .debug_aranges
                0x00000a18       0x20 /usr/lib/gcc/arm-none-eabi/4.9.3/armv7e-m/fpu/libgcc.a(_udivdi3.o)

.debug_ranges   0x00000000     0x54d8
 .debug_ranges  0x00000000      0xeb0 /tmp/ccGYWBCE.ltrans0.ltrans.o
 .debug_ranges  0x00000eb0      0x730 /tmp/ccGYWBCE.ltrans1.ltrans.o
 .debug_ranges  0x000015e0      0x9d8 /tmp/ccGYWBCE.ltrans2.ltrans.o
 .debug_ranges  0x00001fb8      0x5a0 /tmp/ccGYWBCE.ltrans3.ltrans.o
 .debug_ranges  0x00002558      0x258 /tmp/ccGYWBCE.ltrans4.ltrans.o
 .debug_ranges  0x000027b0      0x408 /tmp/ccGYWBCE.ltrans5.ltrans.o
 .debug_ranges  0x00002bb8      0x2d8 /tmp/ccGYWBCE.ltrans6.ltrans.o
 .debug_ranges  0x00002e90      0x1c0 /tmp/ccGYWBCE.ltrans7.ltrans.o
 .debug_ranges  0x00003050       0xa8 /tmp/ccGYWBCE.ltrans8.ltrans.o
 .debug_ranges  0x000030f8      0x1d0 /tmp/ccGYWBCE.ltrans9.ltrans.o
 .debug_ranges  0x000032c8      0x3c8 /tmp/ccGYWBCE.ltrans10.ltrans.o
 .debug_ranges  0x00003690      0x2a0 /tmp/ccGYWBCE.ltrans11.ltrans.o
 .debug_ranges  0x00003930      0x1a8 /tmp/ccGYWBCE.ltrans12.ltrans.o
 .debug_ranges  0x00003ad8      0x150 /tmp/ccGYWBCE.ltrans13.ltrans.o
 .debug_ranges  0x00003c28      0x1c8 /tmp/ccGYWBCE.ltrans14.ltrans.o
 .debug_ranges  0x00003df0      0x158 /tmp/ccGYWBCE.ltrans15.ltrans.o
 .debug_ranges  0x00003f48      0x118 /tmp/ccGYWBCE.ltrans16.ltrans.o
 .debug_ranges  0x00004060      0x268 /tmp/ccGYWBCE.ltrans17.ltrans.o
 .debug_ranges  0x000042c8      0x210 /tmp/ccGYWBCE.ltrans18.ltrans.o
 .debug_ranges  0x000044d8      0x208 /tmp/ccGYWBCE.ltrans19.ltrans.o
 .debug_ranges  0x000046e0      0x180 /tmp/ccGYWBCE.ltrans20.ltrans.o
 .debug_ranges  0x00004860      0x130 /tmp/ccGYWBCE.ltrans21.ltrans.o
 .debug_ranges  0x00004990      0x160 /tmp/ccGYWBCE.ltrans22.ltrans.o
 .debug_ranges  0x00004af0      0x280 /tmp/ccGYWBCE.ltrans23.ltrans.o
 .debug_ranges  0x00004d70       0xb0 /tmp/ccGYWBCE.ltrans24.ltrans.o
 .debug_ranges  0x00004e20       0x18 /tmp/ccGYWBCE.ltrans26.ltrans.o
 .debug_ranges  0x00004e38       0x18 /usr/lib/gcc/arm-none-eabi/4.9.3/../../../arm-none-eabi/lib/armv7e-m/fpu/libc_nano.a(lib_a-atoi.o)
 .debug_ranges  0x00004e50       0x28 /usr/lib/gcc/arm-none-eabi/4.9.3/../../../arm-none-eabi/lib/armv7e-m/fpu/libc_nano.a(lib_a-strtok.o)
 .debug_ranges  0x00004e78       0x18 /usr/lib/gcc/arm-none-eabi/4.9.3/../../../arm-none-eabi/lib/armv7e-m/fpu/libc_nano.a(lib_a-strtok_r.o)
 .debug_ranges  0x00004e90       0x18 /usr/lib/gcc/arm-none-eabi/4.9.3/../../../arm-none-eabi/lib/armv7e-m/fpu/libc_nano.a(lib_a-strtol.o)
 .debug_ranges  0x00004ea8       0x18 /usr/lib/gcc/arm-none-eabi/4.9.3/../../../arm-none-eabi/lib/armv7e-m/fpu/libc_nano.a(lib_a-malloc.o)
 .debug_ranges  0x00004ec0       0x28 /usr/lib/gcc/arm-none-eabi/4.9.3/../../../arm-none-eabi/lib/armv7e-m/fpu/libc_nano.a(lib_a-nano-mallocr.o)
 .debug_ranges  0x00004ee8       0x10 /usr/lib/gcc/arm-none-eabi/4.9.3/../../../arm-none-eabi/lib/armv7e-m/fpu/libc_nano.a(lib_a-sbrkr.o)
 .debug_ranges  0x00004ef8       0x18 /usr/lib/gcc/arm-none-eabi/4.9.3/../../../arm-none-eabi/lib/armv7e-m/fpu/libc_nano.a(lib_a-reent.o)
 .debug_ranges  0x00004f10       0x10 /usr/lib/gcc/arm-none-eabi/4.9.3/../../../arm-none-eabi/lib/armv7e-m/fpu/libnosys.a(sbrk.o)
 .debug_ranges  0x00004f20       0x10 /usr/lib/gcc/arm-none-eabi/4.9.3/../../../arm-none-eabi/lib/armv7e-m/fpu/libm.a(lib_a-sf_lrint.o)
 .debug_ranges  0x00004f30       0x10 /usr/lib/gcc/arm-none-eabi/4.9.3/../../../arm-none-eabi/lib/armv7e-m/fpu/libm.a(lib_a-sf_tan.o)
 .debug_ranges  0x00004f40       0x10 /usr/lib/gcc/arm-none-eabi/4.9.3/../../../arm-none-eabi/lib/armv7e-m/fpu/libm.a(lib_a-wf_pow.o)
 .debug_ranges  0x00004f50       0x10 /usr/lib/gcc/arm-none-eabi/4.9.3/../../../arm-none-eabi/lib/armv7e-m/fpu/libm.a(lib_a-wf_sqrt.o)
 .debug_ranges  0x00004f60       0xb0 /usr/lib/gcc/arm-none-eabi/4.9.3/../../../arm-none-eabi/lib/armv7e-m/fpu/libm.a(lib_a-ef_pow.o)
 .debug_ranges  0x00005010       0x30 /usr/lib/gcc/arm-none-eabi/4.9.3/../../../arm-none-eabi/lib/armv7e-m/fpu/libm.a(lib_a-ef_rem_pio2.o)
 .debug_ranges  0x00005040       0x10 /usr/lib/gcc/arm-none-eabi/4.9.3/../../../arm-none-eabi/lib/armv7e-m/fpu/libm.a(lib_a-ef_sqrt.o)
 .debug_ranges  0x00005050       0x10 /usr/lib/gcc/arm-none-eabi/4.9.3/../../../arm-none-eabi/lib/armv7e-m/fpu/libm.a(lib_a-kf_rem_pio2.o)
 .debug_ranges  0x00005060       0x50 /usr/lib/gcc/arm-none-eabi/4.9.3/../../../arm-none-eabi/lib/armv7e-m/fpu/libm.a(lib_a-kf_tan.o)
 .debug_ranges  0x000050b0       0x10 /usr/lib/gcc/arm-none-eabi/4.9.3/../../../arm-none-eabi/lib/armv7e-m/fpu/libm.a(lib_a-s_matherr.o)
 .debug_ranges  0x000050c0       0x58 /usr/lib/gcc/arm-none-eabi/4.9.3/../../../arm-none-eabi/lib/armv7e-m/fpu/libm.a(lib_a-s_rint.o)
 .debug_ranges  0x00005118       0x10 /usr/lib/gcc/arm-none-eabi/4.9.3/../../../arm-none-eabi/lib/armv7e-m/fpu/libm.a(lib_a-sf_fabs.o)
 .debug_ranges  0x00005128       0x10 /usr/lib/gcc/arm-none-eabi/4.9.3/../../../arm-none-eabi/lib/armv7e-m/fpu/libm.a(lib_a-sf_finite.o)
 .debug_ranges  0x00005138       0x28 /usr/lib/gcc/arm-none-eabi/4.9.3/../../../arm-none-eabi/lib/armv7e-m/fpu/libm.a(lib_a-sf_floor.o)
 .debug_ranges  0x00005160       0x10 /usr/lib/gcc/arm-none-eabi/4.9.3/../../../arm-none-eabi/lib/armv7e-m/fpu/libm.a(lib_a-sf_fpclassify.o)
 .debug_ranges  0x00005170       0x10 /usr/lib/gcc/arm-none-eabi/4.9.3/../../../arm-none-eabi/lib/armv7e-m/fpu/libm.a(lib_a-sf_nan.o)
 .debug_ranges  0x00005180       0x28 /usr/lib/gcc/arm-none-eabi/4.9.3/../../../arm-none-eabi/lib/armv7e-m/fpu/libm.a(lib_a-sf_scalbn.o)
 .debug_ranges  0x000051a8       0x10 /usr/lib/gcc/arm-none-eabi/4.9.3/../../../arm-none-eabi/lib/armv7e-m/fpu/libm.a(lib_a-sf_copysign.o)
 .debug_ranges  0x000051b8       0x10 /usr/lib/gcc/arm-none-eabi/4.9.3/../../../arm-none-eabi/lib/armv7e-m/fpu/libc_nano.a(lib_a-errno.o)
 .debug_ranges  0x000051c8       0x10 /usr/lib/gcc/arm-none-eabi/4.9.3/../../../arm-none-eabi/lib/armv7e-m/fpu/libc_nano.a(lib_a-memcmp.o)
 .debug_ranges  0x000051d8       0x10 /usr/lib/gcc/arm-none-eabi/4.9.3/../../../arm-none-eabi/lib/armv7e-m/fpu/libc_nano.a(lib_a-memcpy.o)
 .debug_ranges  0x000051e8       0x10 /usr/lib/gcc/arm-none-eabi/4.9.3/../../../arm-none-eabi/lib/armv7e-m/fpu/libc_nano.a(lib_a-memset.o)
 .debug_ranges  0x000051f8       0x60 /usr/lib/gcc/arm-none-eabi/4.9.3/../../../arm-none-eabi/lib/armv7e-m/fpu/libc_nano.a(lib_a-strcasecmp.o)
 .debug_ranges  0x00005258       0x10 /usr/lib/gcc/arm-none-eabi/4.9.3/../../../arm-none-eabi/lib/armv7e-m/fpu/libc_nano.a(lib_a-strcat.o)
 .debug_ranges  0x00005268       0x10 /usr/lib/gcc/arm-none-eabi/4.9.3/../../../arm-none-eabi/lib/armv7e-m/fpu/libc_nano.a(lib_a-strchr.o)
 .debug_ranges  0x00005278       0x10 /usr/lib/gcc/arm-none-eabi/4.9.3/../../../arm-none-eabi/lib/armv7e-m/fpu/libc_nano.a(lib_a-strlen.o)
 .debug_ranges  0x00005288       0x70 /usr/lib/gcc/arm-none-eabi/4.9.3/../../../arm-none-eabi/lib/armv7e-m/fpu/libc_nano.a(lib_a-strncasecmp.o)
 .debug_ranges  0x000052f8       0x10 /usr/lib/gcc/arm-none-eabi/4.9.3/../../../arm-none-eabi/lib/armv7e-m/fpu/libc_nano.a(lib_a-strncpy.o)
 .debug_ranges  0x00005308       0x28 /usr/lib/gcc/arm-none-eabi/4.9.3/../../../arm-none-eabi/lib/armv7e-m/fpu/libc_nano.a(lib_a-strstr.o)
 .debug_ranges  0x00005330       0xd0 /usr/lib/gcc/arm-none-eabi/4.9.3/armv7e-m/fpu/libgcc.a(_divdi3.o)
 .debug_ranges  0x00005400       0xd8 /usr/lib/gcc/arm-none-eabi/4.9.3/armv7e-m/fpu/libgcc.a(_udivdi3.o)

.debug_line     0x00000000     0xfa7a
 .debug_line    0x00000000     0x18ba /tmp/ccGYWBCE.ltrans0.ltrans.o
 .debug_line    0x000018ba      0xc13 /tmp/ccGYWBCE.ltrans1.ltrans.o
 .debug_line    0x000024cd      0xd0b /tmp/ccGYWBCE.ltrans2.ltrans.o
 .debug_line    0x000031d8      0x8b1 /tmp/ccGYWBCE.ltrans3.ltrans.o
 .debug_line    0x00003a89      0x91c /tmp/ccGYWBCE.ltrans4.ltrans.o
 .debug_line    0x000043a5      0x6a1 /tmp/ccGYWBCE.ltrans5.ltrans.o
 .debug_line    0x00004a46      0x3ac /tmp/ccGYWBCE.ltrans6.ltrans.o
 .debug_line    0x00004df2      0x6f3 /tmp/ccGYWBCE.ltrans7.ltrans.o
 .debug_line    0x000054e5      0x6f7 /tmp/ccGYWBCE.ltrans8.ltrans.o
 .debug_line    0x00005bdc      0x4fb /tmp/ccGYWBCE.ltrans9.ltrans.o
 .debug_line    0x000060d7      0x9ed /tmp/ccGYWBCE.ltrans10.ltrans.o
 .debug_line    0x00006ac4      0x4c5 /tmp/ccGYWBCE.ltrans11.ltrans.o
 .debug_line    0x00006f89      0x5ce /tmp/ccGYWBCE.ltrans12.ltrans.o
 .debug_line    0x00007557      0x6fb /tmp/ccGYWBCE.ltrans13.ltrans.o
 .debug_line    0x00007c52      0x647 /tmp/ccGYWBCE.ltrans14.ltrans.o
 .debug_line    0x00008299      0x66d /tmp/ccGYWBCE.ltrans15.ltrans.o
 .debug_line    0x00008906      0x859 /tmp/ccGYWBCE.ltrans16.ltrans.o
 .debug_line    0x0000915f      0x5d1 /tmp/ccGYWBCE.ltrans17.ltrans.o
 .debug_line    0x00009730      0x498 /tmp/ccGYWBCE.ltrans18.ltrans.o
 .debug_line    0x00009bc8      0x532 /tmp/ccGYWBCE.ltrans19.ltrans.o
 .debug_line    0x0000a0fa      0x5b7 /tmp/ccGYWBCE.ltrans20.ltrans.o
 .debug_line    0x0000a6b1      0x574 /tmp/ccGYWBCE.ltrans21.ltrans.o
 .debug_line    0x0000ac25      0x5e8 /tmp/ccGYWBCE.ltrans22.ltrans.o
 .debug_line    0x0000b20d      0x47f /tmp/ccGYWBCE.ltrans23.ltrans.o
 .debug_line    0x0000b68c      0x2fe /tmp/ccGYWBCE.ltrans24.ltrans.o
 .debug_line    0x0000b98a      0x1f2 /tmp/ccGYWBCE.ltrans25.ltrans.o
 .debug_line    0x0000bb7c      0x173 /tmp/ccGYWBCE.ltrans26.ltrans.o
 .debug_line    0x0000bcef      0x16b /usr/lib/gcc/arm-none-eabi/4.9.3/../../../arm-none-eabi/lib/armv7e-m/fpu/libc_nano.a(lib_a-atoi.o)
 .debug_line    0x0000be5a       0x72 /usr/lib/gcc/arm-none-eabi/4.9.3/../../../arm-none-eabi/lib/armv7e-m/fpu/libc_nano.a(lib_a-ctype_.o)
 .debug_line    0x0000becc      0x16c /usr/lib/gcc/arm-none-eabi/4.9.3/../../../arm-none-eabi/lib/armv7e-m/fpu/libc_nano.a(lib_a-strtok.o)
 .debug_line    0x0000c038       0xf0 /usr/lib/gcc/arm-none-eabi/4.9.3/../../../arm-none-eabi/lib/armv7e-m/fpu/libc_nano.a(lib_a-strtok_r.o)
 .debug_line    0x0000c128      0x1e8 /usr/lib/gcc/arm-none-eabi/4.9.3/../../../arm-none-eabi/lib/armv7e-m/fpu/libc_nano.a(lib_a-strtol.o)
 .debug_line    0x0000c310       0xf4 /usr/lib/gcc/arm-none-eabi/4.9.3/../../../arm-none-eabi/lib/armv7e-m/fpu/libc_nano.a(lib_a-impure.o)
 .debug_line    0x0000c404      0x171 /usr/lib/gcc/arm-none-eabi/4.9.3/../../../arm-none-eabi/lib/armv7e-m/fpu/libc_nano.a(lib_a-malloc.o)
 .debug_line    0x0000c575      0x19c /usr/lib/gcc/arm-none-eabi/4.9.3/../../../arm-none-eabi/lib/armv7e-m/fpu/libc_nano.a(lib_a-nano-mallocr.o)
 .debug_line    0x0000c711      0x165 /usr/lib/gcc/arm-none-eabi/4.9.3/../../../arm-none-eabi/lib/armv7e-m/fpu/libc_nano.a(lib_a-sbrkr.o)
 .debug_line    0x0000c876      0x1a0 /usr/lib/gcc/arm-none-eabi/4.9.3/../../../arm-none-eabi/lib/armv7e-m/fpu/libc_nano.a(lib_a-reent.o)
 .debug_line    0x0000ca16       0x5b /usr/lib/gcc/arm-none-eabi/4.9.3/../../../arm-none-eabi/lib/armv7e-m/fpu/libnosys.a(sbrk.o)
 .debug_line    0x0000ca71      0x14c /usr/lib/gcc/arm-none-eabi/4.9.3/../../../arm-none-eabi/lib/armv7e-m/fpu/libm.a(lib_a-sf_lrint.o)
 .debug_line    0x0000cbbd      0x17a /usr/lib/gcc/arm-none-eabi/4.9.3/../../../arm-none-eabi/lib/armv7e-m/fpu/libm.a(lib_a-sf_tan.o)
 .debug_line    0x0000cd37      0x236 /usr/lib/gcc/arm-none-eabi/4.9.3/../../../arm-none-eabi/lib/armv7e-m/fpu/libm.a(lib_a-wf_pow.o)
 .debug_line    0x0000cf6d      0x177 /usr/lib/gcc/arm-none-eabi/4.9.3/../../../arm-none-eabi/lib/armv7e-m/fpu/libm.a(lib_a-wf_sqrt.o)
 .debug_line    0x0000d0e4      0x2d3 /usr/lib/gcc/arm-none-eabi/4.9.3/../../../arm-none-eabi/lib/armv7e-m/fpu/libm.a(lib_a-ef_pow.o)
 .debug_line    0x0000d3b7      0x1fa /usr/lib/gcc/arm-none-eabi/4.9.3/../../../arm-none-eabi/lib/armv7e-m/fpu/libm.a(lib_a-ef_rem_pio2.o)
 .debug_line    0x0000d5b1      0x14a /usr/lib/gcc/arm-none-eabi/4.9.3/../../../arm-none-eabi/lib/armv7e-m/fpu/libm.a(lib_a-ef_sqrt.o)
 .debug_line    0x0000d6fb      0x35c /usr/lib/gcc/arm-none-eabi/4.9.3/../../../arm-none-eabi/lib/armv7e-m/fpu/libm.a(lib_a-kf_rem_pio2.o)
 .debug_line    0x0000da57      0x1c0 /usr/lib/gcc/arm-none-eabi/4.9.3/../../../arm-none-eabi/lib/armv7e-m/fpu/libm.a(lib_a-kf_tan.o)
 .debug_line    0x0000dc17       0xa8 /usr/lib/gcc/arm-none-eabi/4.9.3/../../../arm-none-eabi/lib/armv7e-m/fpu/libm.a(lib_a-s_lib_ver.o)
 .debug_line    0x0000dcbf       0xb9 /usr/lib/gcc/arm-none-eabi/4.9.3/../../../arm-none-eabi/lib/armv7e-m/fpu/libm.a(lib_a-s_matherr.o)
 .debug_line    0x0000dd78      0x189 /usr/lib/gcc/arm-none-eabi/4.9.3/../../../arm-none-eabi/lib/armv7e-m/fpu/libm.a(lib_a-s_rint.o)
 .debug_line    0x0000df01      0x11b /usr/lib/gcc/arm-none-eabi/4.9.3/../../../arm-none-eabi/lib/armv7e-m/fpu/libm.a(lib_a-sf_fabs.o)
 .debug_line    0x0000e01c      0x11f /usr/lib/gcc/arm-none-eabi/4.9.3/../../../arm-none-eabi/lib/armv7e-m/fpu/libm.a(lib_a-sf_finite.o)
 .debug_line    0x0000e13b      0x1ae /usr/lib/gcc/arm-none-eabi/4.9.3/../../../arm-none-eabi/lib/armv7e-m/fpu/libm.a(lib_a-sf_floor.o)
 .debug_line    0x0000e2e9      0x129 /usr/lib/gcc/arm-none-eabi/4.9.3/../../../arm-none-eabi/lib/armv7e-m/fpu/libm.a(lib_a-sf_fpclassify.o)
 .debug_line    0x0000e412       0xb5 /usr/lib/gcc/arm-none-eabi/4.9.3/../../../arm-none-eabi/lib/armv7e-m/fpu/libm.a(lib_a-sf_nan.o)
 .debug_line    0x0000e4c7      0x15c /usr/lib/gcc/arm-none-eabi/4.9.3/../../../arm-none-eabi/lib/armv7e-m/fpu/libm.a(lib_a-sf_scalbn.o)
 .debug_line    0x0000e623      0x12e /usr/lib/gcc/arm-none-eabi/4.9.3/../../../arm-none-eabi/lib/armv7e-m/fpu/libm.a(lib_a-sf_copysign.o)
 .debug_line    0x0000e751      0x10e /usr/lib/gcc/arm-none-eabi/4.9.3/../../../arm-none-eabi/lib/armv7e-m/fpu/libc_nano.a(lib_a-errno.o)
 .debug_line    0x0000e85f       0xf3 /usr/lib/gcc/arm-none-eabi/4.9.3/../../../arm-none-eabi/lib/armv7e-m/fpu/libc_nano.a(lib_a-memcmp.o)
 .debug_line    0x0000e952       0xf0 /usr/lib/gcc/arm-none-eabi/4.9.3/../../../arm-none-eabi/lib/armv7e-m/fpu/libc_nano.a(lib_a-memcpy.o)
 .debug_line    0x0000ea42       0xf1 /usr/lib/gcc/arm-none-eabi/4.9.3/../../../arm-none-eabi/lib/armv7e-m/fpu/libc_nano.a(lib_a-memset.o)
 .debug_line    0x0000eb33       0xd7 /usr/lib/gcc/arm-none-eabi/4.9.3/../../../arm-none-eabi/lib/armv7e-m/fpu/libc_nano.a(lib_a-strcasecmp.o)
 .debug_line    0x0000ec0a       0xc0 /usr/lib/gcc/arm-none-eabi/4.9.3/../../../arm-none-eabi/lib/armv7e-m/fpu/libc_nano.a(lib_a-strcat.o)
 .debug_line    0x0000ecca       0xc3 /usr/lib/gcc/arm-none-eabi/4.9.3/../../../arm-none-eabi/lib/armv7e-m/fpu/libc_nano.a(lib_a-strchr.o)
 .debug_line    0x0000ed8d       0xf8 /usr/lib/gcc/arm-none-eabi/4.9.3/../../../arm-none-eabi/lib/armv7e-m/fpu/libc_nano.a(lib_a-strlen.o)
 .debug_line    0x0000ee85      0x113 /usr/lib/gcc/arm-none-eabi/4.9.3/../../../arm-none-eabi/lib/armv7e-m/fpu/libc_nano.a(lib_a-strncasecmp.o)
 .debug_line    0x0000ef98       0xf7 /usr/lib/gcc/arm-none-eabi/4.9.3/../../../arm-none-eabi/lib/armv7e-m/fpu/libc_nano.a(lib_a-strncpy.o)
 .debug_line    0x0000f08f       0xf8 /usr/lib/gcc/arm-none-eabi/4.9.3/../../../arm-none-eabi/lib/armv7e-m/fpu/libc_nano.a(lib_a-strstr.o)
 .debug_line    0x0000f187       0x6d /usr/lib/gcc/arm-none-eabi/4.9.3/armv7e-m/fpu/libgcc.a(_ashrdi3.o)
 .debug_line    0x0000f1f4      0x179 /usr/lib/gcc/arm-none-eabi/4.9.3/armv7e-m/fpu/libgcc.a(_arm_addsubdf3.o)
 .debug_line    0x0000f36d      0x19d /usr/lib/gcc/arm-none-eabi/4.9.3/armv7e-m/fpu/libgcc.a(_arm_muldivdf3.o)
 .debug_line    0x0000f50a       0xba /usr/lib/gcc/arm-none-eabi/4.9.3/armv7e-m/fpu/libgcc.a(_arm_cmpdf2.o)
 .debug_line    0x0000f5c4       0x8e /usr/lib/gcc/arm-none-eabi/4.9.3/armv7e-m/fpu/libgcc.a(_arm_truncdfsf2.o)
 .debug_line    0x0000f652       0x66 /usr/lib/gcc/arm-none-eabi/4.9.3/armv7e-m/fpu/libgcc.a(_aeabi_ldivmod.o)
 .debug_line    0x0000f6b8       0x66 /usr/lib/gcc/arm-none-eabi/4.9.3/armv7e-m/fpu/libgcc.a(_fixsfdi.o)
 .debug_line    0x0000f71e       0x6a /usr/lib/gcc/arm-none-eabi/4.9.3/armv7e-m/fpu/libgcc.a(_fixunssfdi.o)
 .debug_line    0x0000f788       0x65 /usr/lib/gcc/arm-none-eabi/4.9.3/armv7e-m/fpu/libgcc.a(bpabi.o)
 .debug_line    0x0000f7ed       0x61 /usr/lib/gcc/arm-none-eabi/4.9.3/armv7e-m/fpu/libgcc.a(_dvmd_tls.o)
 .debug_line    0x0000f84e       0x76 /usr/lib/gcc/arm-none-eabi/4.9.3/armv7e-m/fpu/libgcc.a(_arm_fixunsdfsi.o)
 .debug_line    0x0000f8c4       0xe2 /usr/lib/gcc/arm-none-eabi/4.9.3/armv7e-m/fpu/libgcc.a(_divdi3.o)
 .debug_line    0x0000f9a6       0xd4 /usr/lib/gcc/arm-none-eabi/4.9.3/armv7e-m/fpu/libgcc.a(_udivdi3.o)

.debug_str      0x00000000    0x13e21
 .debug_str     0x00000000     0x4f7d /tmp/ccGYWBCE.ltrans0.ltrans.o
                               0x5168 (size before relaxing)
 .debug_str     0x00004f7d     0x1e36 /tmp/ccGYWBCE.ltrans1.ltrans.o
                               0x2950 (size before relaxing)
 .debug_str     0x00006db3      0xb68 /tmp/ccGYWBCE.ltrans2.ltrans.o
                               0x1b3b (size before relaxing)
 .debug_str     0x0000791b     0x143d /tmp/ccGYWBCE.ltrans3.ltrans.o
                               0x21c5 (size before relaxing)
 .debug_str     0x00008d58      0x77f /tmp/ccGYWBCE.ltrans4.ltrans.o
                               0x1751 (size before relaxing)
 .debug_str     0x000094d7      0xc58 /tmp/ccGYWBCE.ltrans5.ltrans.o
                               0x1962 (size before relaxing)
 .debug_str     0x0000a12f      0x4cc /tmp/ccGYWBCE.ltrans6.ltrans.o
                                0x7a1 (size before relaxing)
 .debug_str     0x0000a5fb      0xadb /tmp/ccGYWBCE.ltrans7.ltrans.o
                               0x264d (size before relaxing)
 .debug_str     0x0000b0d6     0x10f1 /tmp/ccGYWBCE.ltrans8.ltrans.o
                               0x1f6d (size before relaxing)
 .debug_str     0x0000c1c7      0x625 /tmp/ccGYWBCE.ltrans9.ltrans.o
                               0x13d5 (size before relaxing)
 .debug_str     0x0000c7ec      0xc5c /tmp/ccGYWBCE.ltrans10.ltrans.o
                               0x26ad (size before relaxing)
 .debug_str     0x0000d448      0x8ae /tmp/ccGYWBCE.ltrans11.ltrans.o
                                0xca7 (size before relaxing)
 .debug_str     0x0000dcf6      0x754 /tmp/ccGYWBCE.ltrans12.ltrans.o
                               0x1413 (size before relaxing)
 .debug_str     0x0000e44a      0x61b /tmp/ccGYWBCE.ltrans13.ltrans.o
                               0x1a20 (size before relaxing)
 .debug_str     0x0000ea65      0x6af /tmp/ccGYWBCE.ltrans14.ltrans.o
                               0x1560 (size before relaxing)
 .debug_str     0x0000f114      0x463 /tmp/ccGYWBCE.ltrans15.ltrans.o
                               0x16e3 (size before relaxing)
 .debug_str     0x0000f577      0x676 /tmp/ccGYWBCE.ltrans16.ltrans.o
                               0x3221 (size before relaxing)
 .debug_str     0x0000fbed      0x816 /tmp/ccGYWBCE.ltrans17.ltrans.o
                               0x1888 (size before relaxing)
 .debug_str     0x00010403      0x3db /tmp/ccGYWBCE.ltrans18.ltrans.o
                               0x193a (size before relaxing)
 .debug_str     0x000107de      0x3b5 /tmp/ccGYWBCE.ltrans19.ltrans.o
                                0xa1c (size before relaxing)
 .debug_str     0x00010b93      0x246 /tmp/ccGYWBCE.ltrans20.ltrans.o
                                0xb04 (size before relaxing)
 .debug_str     0x00010dd9      0x399 /tmp/ccGYWBCE.ltrans21.ltrans.o
                               0x1557 (size before relaxing)
 .debug_str     0x00011172      0xa16 /tmp/ccGYWBCE.ltrans22.ltrans.o
                               0x176e (size before relaxing)
 .debug_str     0x00011b88      0x41d /tmp/ccGYWBCE.ltrans23.ltrans.o
                                0xa1d (size before relaxing)
 .debug_str     0x00011fa5      0x2df /tmp/ccGYWBCE.ltrans24.ltrans.o
                                0xc2f (size before relaxing)
 .debug_str     0x00012284      0x14a /tmp/ccGYWBCE.ltrans25.ltrans.o
                                0x61d (size before relaxing)
 .debug_str     0x000123ce       0x51 /tmp/ccGYWBCE.ltrans26.ltrans.o
                                0x47f (size before relaxing)
 .debug_str     0x0001241f      0x4fa /usr/lib/gcc/arm-none-eabi/4.9.3/../../../arm-none-eabi/lib/armv7e-m/fpu/libc_nano.a(lib_a-atoi.o)
                                0x57e (size before relaxing)
 .debug_str     0x00012919       0xb4 /usr/lib/gcc/arm-none-eabi/4.9.3/../../../arm-none-eabi/lib/armv7e-m/fpu/libc_nano.a(lib_a-ctype_.o)
                                0x1a4 (size before relaxing)
 .debug_str     0x000129cd       0xb9 /usr/lib/gcc/arm-none-eabi/4.9.3/../../../arm-none-eabi/lib/armv7e-m/fpu/libc_nano.a(lib_a-strtok.o)
                                0x593 (size before relaxing)
 .debug_str     0x00012a86       0x57 /usr/lib/gcc/arm-none-eabi/4.9.3/../../../arm-none-eabi/lib/armv7e-m/fpu/libc_nano.a(lib_a-strtok_r.o)
                                0x254 (size before relaxing)
 .debug_str     0x00012add       0x49 /usr/lib/gcc/arm-none-eabi/4.9.3/../../../arm-none-eabi/lib/armv7e-m/fpu/libc_nano.a(lib_a-strtol.o)
                                0x5b1 (size before relaxing)
 .debug_str     0x00012b26       0xfc /usr/lib/gcc/arm-none-eabi/4.9.3/../../../arm-none-eabi/lib/armv7e-m/fpu/libc_nano.a(lib_a-impure.o)
                                0x5ca (size before relaxing)
 .debug_str     0x00012c22       0x54 /usr/lib/gcc/arm-none-eabi/4.9.3/../../../arm-none-eabi/lib/armv7e-m/fpu/libc_nano.a(lib_a-malloc.o)
                                0x59f (size before relaxing)
 .debug_str     0x00012c76       0xbf /usr/lib/gcc/arm-none-eabi/4.9.3/../../../arm-none-eabi/lib/armv7e-m/fpu/libc_nano.a(lib_a-nano-mallocr.o)
                                0x618 (size before relaxing)
 .debug_str     0x00012d35       0x3a /usr/lib/gcc/arm-none-eabi/4.9.3/../../../arm-none-eabi/lib/armv7e-m/fpu/libc_nano.a(lib_a-sbrkr.o)
                                0x582 (size before relaxing)
 .debug_str     0x00012d6f       0x5b /usr/lib/gcc/arm-none-eabi/4.9.3/../../../arm-none-eabi/lib/armv7e-m/fpu/libc_nano.a(lib_a-reent.o)
                                0x5aa (size before relaxing)
 .debug_str     0x00012dca      0x135 /usr/lib/gcc/arm-none-eabi/4.9.3/../../../arm-none-eabi/lib/armv7e-m/fpu/libnosys.a(sbrk.o)
                                0x14e (size before relaxing)
 .debug_str     0x00012eff      0x19f /usr/lib/gcc/arm-none-eabi/4.9.3/../../../arm-none-eabi/lib/armv7e-m/fpu/libm.a(lib_a-sf_lrint.o)
                                0x267 (size before relaxing)
 .debug_str     0x0001309e       0xb9 /usr/lib/gcc/arm-none-eabi/4.9.3/../../../arm-none-eabi/lib/armv7e-m/fpu/libm.a(lib_a-sf_tan.o)
                                0x274 (size before relaxing)
 .debug_str     0x00013157       0xda /usr/lib/gcc/arm-none-eabi/4.9.3/../../../arm-none-eabi/lib/armv7e-m/fpu/libm.a(lib_a-wf_pow.o)
                                0x2d1 (size before relaxing)
 .debug_str     0x00013231       0x40 /usr/lib/gcc/arm-none-eabi/4.9.3/../../../arm-none-eabi/lib/armv7e-m/fpu/libm.a(lib_a-wf_sqrt.o)
                                0x2c7 (size before relaxing)
 .debug_str     0x00013271       0x99 /usr/lib/gcc/arm-none-eabi/4.9.3/../../../arm-none-eabi/lib/armv7e-m/fpu/libm.a(lib_a-ef_pow.o)
                                0x2d6 (size before relaxing)
 .debug_str     0x0001330a       0x9b /usr/lib/gcc/arm-none-eabi/4.9.3/../../../arm-none-eabi/lib/armv7e-m/fpu/libm.a(lib_a-ef_rem_pio2.o)
                                0x2e2 (size before relaxing)
 .debug_str     0x000133a5       0x30 /usr/lib/gcc/arm-none-eabi/4.9.3/../../../arm-none-eabi/lib/armv7e-m/fpu/libm.a(lib_a-ef_sqrt.o)
                                0x268 (size before relaxing)
 .debug_str     0x000133d5       0x64 /usr/lib/gcc/arm-none-eabi/4.9.3/../../../arm-none-eabi/lib/armv7e-m/fpu/libm.a(lib_a-kf_rem_pio2.o)
                                0x27b (size before relaxing)
 .debug_str     0x00013439       0x3b /usr/lib/gcc/arm-none-eabi/4.9.3/../../../arm-none-eabi/lib/armv7e-m/fpu/libm.a(lib_a-kf_tan.o)
                                0x272 (size before relaxing)
 .debug_str     0x00013474       0x34 /usr/lib/gcc/arm-none-eabi/4.9.3/../../../arm-none-eabi/lib/armv7e-m/fpu/libm.a(lib_a-s_lib_ver.o)
                                0x274 (size before relaxing)
 .debug_str     0x000134a8       0x34 /usr/lib/gcc/arm-none-eabi/4.9.3/../../../arm-none-eabi/lib/armv7e-m/fpu/libm.a(lib_a-s_matherr.o)
                                0x246 (size before relaxing)
 .debug_str     0x000134dc       0xda /usr/lib/gcc/arm-none-eabi/4.9.3/../../../arm-none-eabi/lib/armv7e-m/fpu/libm.a(lib_a-s_rint.o)
                                0x275 (size before relaxing)
 .debug_str     0x000135b6       0x30 /usr/lib/gcc/arm-none-eabi/4.9.3/../../../arm-none-eabi/lib/armv7e-m/fpu/libm.a(lib_a-sf_fabs.o)
                                0x224 (size before relaxing)
 .debug_str     0x000135e6       0x34 /usr/lib/gcc/arm-none-eabi/4.9.3/../../../arm-none-eabi/lib/armv7e-m/fpu/libm.a(lib_a-sf_finite.o)
                                0x22b (size before relaxing)
 .debug_str     0x0001361a       0x3b /usr/lib/gcc/arm-none-eabi/4.9.3/../../../arm-none-eabi/lib/armv7e-m/fpu/libm.a(lib_a-sf_floor.o)
                                0x26c (size before relaxing)
 .debug_str     0x00013655       0x38 /usr/lib/gcc/arm-none-eabi/4.9.3/../../../arm-none-eabi/lib/armv7e-m/fpu/libm.a(lib_a-sf_fpclassify.o)
                                0x236 (size before relaxing)
 .debug_str     0x0001368d       0x38 /usr/lib/gcc/arm-none-eabi/4.9.3/../../../arm-none-eabi/lib/armv7e-m/fpu/libm.a(lib_a-sf_nan.o)
                                0x222 (size before relaxing)
 .debug_str     0x000136c5       0x4b /usr/lib/gcc/arm-none-eabi/4.9.3/../../../arm-none-eabi/lib/armv7e-m/fpu/libm.a(lib_a-sf_scalbn.o)
                                0x282 (size before relaxing)
 .debug_str     0x00013710       0x36 /usr/lib/gcc/arm-none-eabi/4.9.3/../../../arm-none-eabi/lib/armv7e-m/fpu/libm.a(lib_a-sf_copysign.o)
                                0x256 (size before relaxing)
 .debug_str     0x00013746       0x9d /usr/lib/gcc/arm-none-eabi/4.9.3/../../../arm-none-eabi/lib/armv7e-m/fpu/libc_nano.a(lib_a-errno.o)
                                0x573 (size before relaxing)
 .debug_str     0x000137e3       0x31 /usr/lib/gcc/arm-none-eabi/4.9.3/../../../arm-none-eabi/lib/armv7e-m/fpu/libc_nano.a(lib_a-memcmp.o)
                                0x222 (size before relaxing)
 .debug_str     0x00013814       0x40 /usr/lib/gcc/arm-none-eabi/4.9.3/../../../arm-none-eabi/lib/armv7e-m/fpu/libc_nano.a(lib_a-memcpy.o)
                                0x236 (size before relaxing)
 .debug_str     0x00013854       0x31 /usr/lib/gcc/arm-none-eabi/4.9.3/../../../arm-none-eabi/lib/armv7e-m/fpu/libc_nano.a(lib_a-memset.o)
                                0x222 (size before relaxing)
 .debug_str     0x00013885       0x3f /usr/lib/gcc/arm-none-eabi/4.9.3/../../../arm-none-eabi/lib/armv7e-m/fpu/libc_nano.a(lib_a-strcasecmp.o)
                                0x23b (size before relaxing)
 .debug_str     0x000138c4       0x31 /usr/lib/gcc/arm-none-eabi/4.9.3/../../../arm-none-eabi/lib/armv7e-m/fpu/libc_nano.a(lib_a-strcat.o)
                                0x21b (size before relaxing)
 .debug_str     0x000138f5       0x31 /usr/lib/gcc/arm-none-eabi/4.9.3/../../../arm-none-eabi/lib/armv7e-m/fpu/libc_nano.a(lib_a-strchr.o)
                                0x21b (size before relaxing)
 .debug_str     0x00013926       0xb5 /usr/lib/gcc/arm-none-eabi/4.9.3/../../../arm-none-eabi/lib/armv7e-m/fpu/libc_nano.a(lib_a-strlen.o)
                                0x237 (size before relaxing)
 .debug_str     0x000139db       0x36 /usr/lib/gcc/arm-none-eabi/4.9.3/../../../arm-none-eabi/lib/armv7e-m/fpu/libc_nano.a(lib_a-strncasecmp.o)
                                0x244 (size before relaxing)
 .debug_str     0x00013a11       0x3e /usr/lib/gcc/arm-none-eabi/4.9.3/../../../arm-none-eabi/lib/armv7e-m/fpu/libc_nano.a(lib_a-strncpy.o)
                                0x240 (size before relaxing)
 .debug_str     0x00013a4f       0x42 /usr/lib/gcc/arm-none-eabi/4.9.3/../../../arm-none-eabi/lib/armv7e-m/fpu/libc_nano.a(lib_a-strstr.o)
                                0x233 (size before relaxing)
 .debug_str     0x00013a91      0x1ca /usr/lib/gcc/arm-none-eabi/4.9.3/armv7e-m/fpu/libgcc.a(_fixsfdi.o)
                                0x267 (size before relaxing)
 .debug_str     0x00013c5b        0xf /usr/lib/gcc/arm-none-eabi/4.9.3/armv7e-m/fpu/libgcc.a(_fixunssfdi.o)
                                0x257 (size before relaxing)
 .debug_str     0x00013c6a       0x7e /usr/lib/gcc/arm-none-eabi/4.9.3/armv7e-m/fpu/libgcc.a(bpabi.o)
                                0x1f8 (size before relaxing)
 .debug_str     0x00013ce8      0x139 /usr/lib/gcc/arm-none-eabi/4.9.3/armv7e-m/fpu/libgcc.a(_divdi3.o)
                                0x2a6 (size before relaxing)
 .debug_str     0x00013e21      0x2a7 /usr/lib/gcc/arm-none-eabi/4.9.3/armv7e-m/fpu/libgcc.a(_udivdi3.o)

.comment        0x00000000       0x70
 .comment       0x00000000       0x38 /tmp/ccGYWBCE.ltrans0.ltrans.o
                                 0x39 (size before relaxing)
 .comment       0x00000038       0x39 /tmp/ccGYWBCE.ltrans1.ltrans.o
 .comment       0x00000038       0x39 /tmp/ccGYWBCE.ltrans2.ltrans.o
 .comment       0x00000038       0x39 /tmp/ccGYWBCE.ltrans3.ltrans.o
 .comment       0x00000038       0x39 /tmp/ccGYWBCE.ltrans4.ltrans.o
 .comment       0x00000038       0x39 /tmp/ccGYWBCE.ltrans5.ltrans.o
 .comment       0x00000038       0x39 /tmp/ccGYWBCE.ltrans6.ltrans.o
 .comment       0x00000038       0x39 /tmp/ccGYWBCE.ltrans7.ltrans.o
 .comment       0x00000038       0x39 /tmp/ccGYWBCE.ltrans8.ltrans.o
 .comment       0x00000038       0x39 /tmp/ccGYWBCE.ltrans9.ltrans.o
 .comment       0x00000038       0x39 /tmp/ccGYWBCE.ltrans10.ltrans.o
 .comment       0x00000038       0x39 /tmp/ccGYWBCE.ltrans11.ltrans.o
 .comment       0x00000038       0x39 /tmp/ccGYWBCE.ltrans12.ltrans.o
 .comment       0x00000038       0x39 /tmp/ccGYWBCE.ltrans13.ltrans.o
 .comment       0x00000038       0x39 /tmp/ccGYWBCE.ltrans14.ltrans.o
 .comment       0x00000038       0x39 /tmp/ccGYWBCE.ltrans15.ltrans.o
 .comment       0x00000038       0x39 /tmp/ccGYWBCE.ltrans16.ltrans.o
 .comment       0x00000038       0x39 /tmp/ccGYWBCE.ltrans17.ltrans.o
 .comment       0x00000038       0x39 /tmp/ccGYWBCE.ltrans18.ltrans.o
 .comment       0x00000038       0x39 /tmp/ccGYWBCE.ltrans19.ltrans.o
 .comment       0x00000038       0x39 /tmp/ccGYWBCE.ltrans20.ltrans.o
 .comment       0x00000038       0x39 /tmp/ccGYWBCE.ltrans21.ltrans.o
 .comment       0x00000038       0x39 /tmp/ccGYWBCE.ltrans22.ltrans.o
 .comment       0x00000038       0x39 /tmp/ccGYWBCE.ltrans23.ltrans.o
 .comment       0x00000038       0x39 /tmp/ccGYWBCE.ltrans24.ltrans.o
 .comment       0x00000038       0x39 /tmp/ccGYWBCE.ltrans25.ltrans.o
 .comment       0x00000038       0x39 /tmp/ccGYWBCE.ltrans26.ltrans.o
 .comment       0x00000038       0x38 /usr/lib/gcc/arm-none-eabi/4.9.3/../../../arm-none-eabi/lib/armv7e-m/fpu/libc_nano.a(lib_a-atoi.o)
                                 0x39 (size before relaxing)
 .comment       0x00000070       0x39 /usr/lib/gcc/arm-none-eabi/4.9.3/../../../arm-none-eabi/lib/armv7e-m/fpu/libc_nano.a(lib_a-ctype_.o)
 .comment       0x00000070       0x39 /usr/lib/gcc/arm-none-eabi/4.9.3/../../../arm-none-eabi/lib/armv7e-m/fpu/libc_nano.a(lib_a-strtok.o)
 .comment       0x00000070       0x39 /usr/lib/gcc/arm-none-eabi/4.9.3/../../../arm-none-eabi/lib/armv7e-m/fpu/libc_nano.a(lib_a-strtok_r.o)
 .comment       0x00000070       0x39 /usr/lib/gcc/arm-none-eabi/4.9.3/../../../arm-none-eabi/lib/armv7e-m/fpu/libc_nano.a(lib_a-strtol.o)
 .comment       0x00000070       0x39 /usr/lib/gcc/arm-none-eabi/4.9.3/../../../arm-none-eabi/lib/armv7e-m/fpu/libc_nano.a(lib_a-impure.o)
 .comment       0x00000070       0x39 /usr/lib/gcc/arm-none-eabi/4.9.3/../../../arm-none-eabi/lib/armv7e-m/fpu/libc_nano.a(lib_a-malloc.o)
 .comment       0x00000070       0x39 /usr/lib/gcc/arm-none-eabi/4.9.3/../../../arm-none-eabi/lib/armv7e-m/fpu/libc_nano.a(lib_a-nano-mallocr.o)
 .comment       0x00000070       0x39 /usr/lib/gcc/arm-none-eabi/4.9.3/../../../arm-none-eabi/lib/armv7e-m/fpu/libc_nano.a(lib_a-sbrkr.o)
 .comment       0x00000070       0x39 /usr/lib/gcc/arm-none-eabi/4.9.3/../../../arm-none-eabi/lib/armv7e-m/fpu/libc_nano.a(lib_a-reent.o)
 .comment       0x00000070       0x39 /usr/lib/gcc/arm-none-eabi/4.9.3/../../../arm-none-eabi/lib/armv7e-m/fpu/libnosys.a(sbrk.o)
 .comment       0x00000070       0x39 /usr/lib/gcc/arm-none-eabi/4.9.3/../../../arm-none-eabi/lib/armv7e-m/fpu/libm.a(lib_a-sf_lrint.o)
 .comment       0x00000070       0x39 /usr/lib/gcc/arm-none-eabi/4.9.3/../../../arm-none-eabi/lib/armv7e-m/fpu/libm.a(lib_a-sf_tan.o)
 .comment       0x00000070       0x39 /usr/lib/gcc/arm-none-eabi/4.9.3/../../../arm-none-eabi/lib/armv7e-m/fpu/libm.a(lib_a-wf_pow.o)
 .comment       0x00000070       0x39 /usr/lib/gcc/arm-none-eabi/4.9.3/../../../arm-none-eabi/lib/armv7e-m/fpu/libm.a(lib_a-wf_sqrt.o)
 .comment       0x00000070       0x39 /usr/lib/gcc/arm-none-eabi/4.9.3/../../../arm-none-eabi/lib/armv7e-m/fpu/libm.a(lib_a-ef_pow.o)
 .comment       0x00000070       0x39 /usr/lib/gcc/arm-none-eabi/4.9.3/../../../arm-none-eabi/lib/armv7e-m/fpu/libm.a(lib_a-ef_rem_pio2.o)
 .comment       0x00000070       0x39 /usr/lib/gcc/arm-none-eabi/4.9.3/../../../arm-none-eabi/lib/armv7e-m/fpu/libm.a(lib_a-ef_sqrt.o)
 .comment       0x00000070       0x39 /usr/lib/gcc/arm-none-eabi/4.9.3/../../../arm-none-eabi/lib/armv7e-m/fpu/libm.a(lib_a-kf_rem_pio2.o)
 .comment       0x00000070       0x39 /usr/lib/gcc/arm-none-eabi/4.9.3/../../../arm-none-eabi/lib/armv7e-m/fpu/libm.a(lib_a-kf_tan.o)
 .comment       0x00000070       0x39 /usr/lib/gcc/arm-none-eabi/4.9.3/../../../arm-none-eabi/lib/armv7e-m/fpu/libm.a(lib_a-s_lib_ver.o)
 .comment       0x00000070       0x39 /usr/lib/gcc/arm-none-eabi/4.9.3/../../../arm-none-eabi/lib/armv7e-m/fpu/libm.a(lib_a-s_matherr.o)
 .comment       0x00000070       0x39 /usr/lib/gcc/arm-none-eabi/4.9.3/../../../arm-none-eabi/lib/armv7e-m/fpu/libm.a(lib_a-s_rint.o)
 .comment       0x00000070       0x39 /usr/lib/gcc/arm-none-eabi/4.9.3/../../../arm-none-eabi/lib/armv7e-m/fpu/libm.a(lib_a-sf_fabs.o)
 .comment       0x00000070       0x39 /usr/lib/gcc/arm-none-eabi/4.9.3/../../../arm-none-eabi/lib/armv7e-m/fpu/libm.a(lib_a-sf_finite.o)
 .comment       0x00000070       0x39 /usr/lib/gcc/arm-none-eabi/4.9.3/../../../arm-none-eabi/lib/armv7e-m/fpu/libm.a(lib_a-sf_floor.o)
 .comment       0x00000070       0x39 /usr/lib/gcc/arm-none-eabi/4.9.3/../../../arm-none-eabi/lib/armv7e-m/fpu/libm.a(lib_a-sf_fpclassify.o)
 .comment       0x00000070       0x39 /usr/lib/gcc/arm-none-eabi/4.9.3/../../../arm-none-eabi/lib/armv7e-m/fpu/libm.a(lib_a-sf_nan.o)
 .comment       0x00000070       0x39 /usr/lib/gcc/arm-none-eabi/4.9.3/../../../arm-none-eabi/lib/armv7e-m/fpu/libm.a(lib_a-sf_scalbn.o)
 .comment       0x00000070       0x39 /usr/lib/gcc/arm-none-eabi/4.9.3/../../../arm-none-eabi/lib/armv7e-m/fpu/libm.a(lib_a-sf_copysign.o)
 .comment       0x00000070       0x39 /usr/lib/gcc/arm-none-eabi/4.9.3/../../../arm-none-eabi/lib/armv7e-m/fpu/libc_nano.a(lib_a-errno.o)
 .comment       0x00000070       0x39 /usr/lib/gcc/arm-none-eabi/4.9.3/../../../arm-none-eabi/lib/armv7e-m/fpu/libc_nano.a(lib_a-memcmp.o)
 .comment       0x00000070       0x39 /usr/lib/gcc/arm-none-eabi/4.9.3/../../../arm-none-eabi/lib/armv7e-m/fpu/libc_nano.a(lib_a-memcpy.o)
 .comment       0x00000070       0x39 /usr/lib/gcc/arm-none-eabi/4.9.3/../../../arm-none-eabi/lib/armv7e-m/fpu/libc_nano.a(lib_a-memset.o)
 .comment       0x00000070       0x39 /usr/lib/gcc/arm-none-eabi/4.9.3/../../../arm-none-eabi/lib/armv7e-m/fpu/libc_nano.a(lib_a-strcasecmp.o)
 .comment       0x00000070       0x39 /usr/lib/gcc/arm-none-eabi/4.9.3/../../../arm-none-eabi/lib/armv7e-m/fpu/libc_nano.a(lib_a-strcat.o)
 .comment       0x00000070       0x39 /usr/lib/gcc/arm-none-eabi/4.9.3/../../../arm-none-eabi/lib/armv7e-m/fpu/libc_nano.a(lib_a-strchr.o)
 .comment       0x00000070       0x39 /usr/lib/gcc/arm-none-eabi/4.9.3/../../../arm-none-eabi/lib/armv7e-m/fpu/libc_nano.a(lib_a-strlen.o)
 .comment       0x00000070       0x39 /usr/lib/gcc/arm-none-eabi/4.9.3/../../../arm-none-eabi/lib/armv7e-m/fpu/libc_nano.a(lib_a-strncasecmp.o)
 .comment       0x00000070       0x39 /usr/lib/gcc/arm-none-eabi/4.9.3/../../../arm-none-eabi/lib/armv7e-m/fpu/libc_nano.a(lib_a-strncpy.o)
 .comment       0x00000070       0x39 /usr/lib/gcc/arm-none-eabi/4.9.3/../../../arm-none-eabi/lib/armv7e-m/fpu/libc_nano.a(lib_a-strstr.o)
 .comment       0x00000070       0x39 /usr/lib/gcc/arm-none-eabi/4.9.3/armv7e-m/fpu/libgcc.a(_fixsfdi.o)
 .comment       0x00000070       0x39 /usr/lib/gcc/arm-none-eabi/4.9.3/armv7e-m/fpu/libgcc.a(_fixunssfdi.o)
 .comment       0x00000070       0x39 /usr/lib/gcc/arm-none-eabi/4.9.3/armv7e-m/fpu/libgcc.a(bpabi.o)
 .comment       0x00000070       0x39 /usr/lib/gcc/arm-none-eabi/4.9.3/armv7e-m/fpu/libgcc.a(_divdi3.o)
 .comment       0x00000070       0x39 /usr/lib/gcc/arm-none-eabi/4.9.3/armv7e-m/fpu/libgcc.a(_udivdi3.o)

.debug_frame    0x00000000     0x3344
 .debug_frame   0x00000000       0x68 /tmp/ccGYWBCE.ltrans0.ltrans.o
 .debug_frame   0x00000068       0x8c /tmp/ccGYWBCE.ltrans1.ltrans.o
 .debug_frame   0x000000f4       0x50 /tmp/ccGYWBCE.ltrans2.ltrans.o
 .debug_frame   0x00000144       0x50 /tmp/ccGYWBCE.ltrans3.ltrans.o
 .debug_frame   0x00000194      0x260 /tmp/ccGYWBCE.ltrans4.ltrans.o
 .debug_frame   0x000003f4       0x38 /tmp/ccGYWBCE.ltrans5.ltrans.o
 .debug_frame   0x0000042c       0x50 /tmp/ccGYWBCE.ltrans6.ltrans.o
 .debug_frame   0x0000047c      0x3f4 /tmp/ccGYWBCE.ltrans7.ltrans.o
 .debug_frame   0x00000870      0x3c8 /tmp/ccGYWBCE.ltrans8.ltrans.o
 .debug_frame   0x00000c38      0x14c /tmp/ccGYWBCE.ltrans9.ltrans.o
 .debug_frame   0x00000d84      0x1f0 /tmp/ccGYWBCE.ltrans10.ltrans.o
 .debug_frame   0x00000f74       0xb8 /tmp/ccGYWBCE.ltrans11.ltrans.o
 .debug_frame   0x0000102c      0x224 /tmp/ccGYWBCE.ltrans12.ltrans.o
 .debug_frame   0x00001250      0x288 /tmp/ccGYWBCE.ltrans13.ltrans.o
 .debug_frame   0x000014d8      0x2e0 /tmp/ccGYWBCE.ltrans14.ltrans.o
 .debug_frame   0x000017b8      0x2a8 /tmp/ccGYWBCE.ltrans15.ltrans.o
 .debug_frame   0x00001a60      0x2b8 /tmp/ccGYWBCE.ltrans16.ltrans.o
 .debug_frame   0x00001d18       0xe4 /tmp/ccGYWBCE.ltrans17.ltrans.o
 .debug_frame   0x00001dfc       0xb8 /tmp/ccGYWBCE.ltrans18.ltrans.o
 .debug_frame   0x00001eb4       0xc0 /tmp/ccGYWBCE.ltrans19.ltrans.o
 .debug_frame   0x00001f74      0x2c4 /tmp/ccGYWBCE.ltrans20.ltrans.o
 .debug_frame   0x00002238      0x234 /tmp/ccGYWBCE.ltrans21.ltrans.o
 .debug_frame   0x0000246c      0x2e8 /tmp/ccGYWBCE.ltrans22.ltrans.o
 .debug_frame   0x00002754       0x7c /tmp/ccGYWBCE.ltrans23.ltrans.o
 .debug_frame   0x000027d0      0x1f8 /tmp/ccGYWBCE.ltrans24.ltrans.o
 .debug_frame   0x000029c8       0x30 /tmp/ccGYWBCE.ltrans25.ltrans.o
 .debug_frame   0x000029f8       0x54 /tmp/ccGYWBCE.ltrans26.ltrans.o
 .debug_frame   0x00002a4c       0x30 /usr/lib/gcc/arm-none-eabi/4.9.3/../../../arm-none-eabi/lib/armv7e-m/fpu/libc_nano.a(lib_a-atoi.o)
 .debug_frame   0x00002a7c       0x38 /usr/lib/gcc/arm-none-eabi/4.9.3/../../../arm-none-eabi/lib/armv7e-m/fpu/libc_nano.a(lib_a-strtok.o)
 .debug_frame   0x00002ab4       0x40 /usr/lib/gcc/arm-none-eabi/4.9.3/../../../arm-none-eabi/lib/armv7e-m/fpu/libc_nano.a(lib_a-strtok_r.o)
 .debug_frame   0x00002af4       0x54 /usr/lib/gcc/arm-none-eabi/4.9.3/../../../arm-none-eabi/lib/armv7e-m/fpu/libc_nano.a(lib_a-strtol.o)
 .debug_frame   0x00002b48       0x30 /usr/lib/gcc/arm-none-eabi/4.9.3/../../../arm-none-eabi/lib/armv7e-m/fpu/libc_nano.a(lib_a-malloc.o)
 .debug_frame   0x00002b78       0x2c /usr/lib/gcc/arm-none-eabi/4.9.3/../../../arm-none-eabi/lib/armv7e-m/fpu/libc_nano.a(lib_a-nano-mallocr.o)
 .debug_frame   0x00002ba4       0x2c /usr/lib/gcc/arm-none-eabi/4.9.3/../../../arm-none-eabi/lib/armv7e-m/fpu/libc_nano.a(lib_a-sbrkr.o)
 .debug_frame   0x00002bd0       0x5c /usr/lib/gcc/arm-none-eabi/4.9.3/../../../arm-none-eabi/lib/armv7e-m/fpu/libc_nano.a(lib_a-reent.o)
 .debug_frame   0x00002c2c       0x20 /usr/lib/gcc/arm-none-eabi/4.9.3/../../../arm-none-eabi/lib/armv7e-m/fpu/libnosys.a(sbrk.o)
 .debug_frame   0x00002c4c       0x38 /usr/lib/gcc/arm-none-eabi/4.9.3/../../../arm-none-eabi/lib/armv7e-m/fpu/libm.a(lib_a-sf_lrint.o)
 .debug_frame   0x00002c84       0x38 /usr/lib/gcc/arm-none-eabi/4.9.3/../../../arm-none-eabi/lib/armv7e-m/fpu/libm.a(lib_a-sf_tan.o)
 .debug_frame   0x00002cbc       0x64 /usr/lib/gcc/arm-none-eabi/4.9.3/../../../arm-none-eabi/lib/armv7e-m/fpu/libm.a(lib_a-wf_pow.o)
 .debug_frame   0x00002d20       0x50 /usr/lib/gcc/arm-none-eabi/4.9.3/../../../arm-none-eabi/lib/armv7e-m/fpu/libm.a(lib_a-wf_sqrt.o)
 .debug_frame   0x00002d70       0x7c /usr/lib/gcc/arm-none-eabi/4.9.3/../../../arm-none-eabi/lib/armv7e-m/fpu/libm.a(lib_a-ef_pow.o)
 .debug_frame   0x00002dec       0x3c /usr/lib/gcc/arm-none-eabi/4.9.3/../../../arm-none-eabi/lib/armv7e-m/fpu/libm.a(lib_a-ef_rem_pio2.o)
 .debug_frame   0x00002e28       0x3c /usr/lib/gcc/arm-none-eabi/4.9.3/../../../arm-none-eabi/lib/armv7e-m/fpu/libm.a(lib_a-ef_sqrt.o)
 .debug_frame   0x00002e64       0x5c /usr/lib/gcc/arm-none-eabi/4.9.3/../../../arm-none-eabi/lib/armv7e-m/fpu/libm.a(lib_a-kf_rem_pio2.o)
 .debug_frame   0x00002ec0       0x50 /usr/lib/gcc/arm-none-eabi/4.9.3/../../../arm-none-eabi/lib/armv7e-m/fpu/libm.a(lib_a-kf_tan.o)
 .debug_frame   0x00002f10       0x20 /usr/lib/gcc/arm-none-eabi/4.9.3/../../../arm-none-eabi/lib/armv7e-m/fpu/libm.a(lib_a-s_matherr.o)
 .debug_frame   0x00002f30       0x3c /usr/lib/gcc/arm-none-eabi/4.9.3/../../../arm-none-eabi/lib/armv7e-m/fpu/libm.a(lib_a-s_rint.o)
 .debug_frame   0x00002f6c       0x20 /usr/lib/gcc/arm-none-eabi/4.9.3/../../../arm-none-eabi/lib/armv7e-m/fpu/libm.a(lib_a-sf_fabs.o)
 .debug_frame   0x00002f8c       0x20 /usr/lib/gcc/arm-none-eabi/4.9.3/../../../arm-none-eabi/lib/armv7e-m/fpu/libm.a(lib_a-sf_finite.o)
 .debug_frame   0x00002fac       0x20 /usr/lib/gcc/arm-none-eabi/4.9.3/../../../arm-none-eabi/lib/armv7e-m/fpu/libm.a(lib_a-sf_floor.o)
 .debug_frame   0x00002fcc       0x20 /usr/lib/gcc/arm-none-eabi/4.9.3/../../../arm-none-eabi/lib/armv7e-m/fpu/libm.a(lib_a-sf_fpclassify.o)
 .debug_frame   0x00002fec       0x20 /usr/lib/gcc/arm-none-eabi/4.9.3/../../../arm-none-eabi/lib/armv7e-m/fpu/libm.a(lib_a-sf_nan.o)
 .debug_frame   0x0000300c       0x44 /usr/lib/gcc/arm-none-eabi/4.9.3/../../../arm-none-eabi/lib/armv7e-m/fpu/libm.a(lib_a-sf_scalbn.o)
 .debug_frame   0x00003050       0x20 /usr/lib/gcc/arm-none-eabi/4.9.3/../../../arm-none-eabi/lib/armv7e-m/fpu/libm.a(lib_a-sf_copysign.o)
 .debug_frame   0x00003070       0x20 /usr/lib/gcc/arm-none-eabi/4.9.3/../../../arm-none-eabi/lib/armv7e-m/fpu/libc_nano.a(lib_a-errno.o)
 .debug_frame   0x00003090       0x28 /usr/lib/gcc/arm-none-eabi/4.9.3/../../../arm-none-eabi/lib/armv7e-m/fpu/libc_nano.a(lib_a-memcmp.o)
 .debug_frame   0x000030b8       0x28 /usr/lib/gcc/arm-none-eabi/4.9.3/../../../arm-none-eabi/lib/armv7e-m/fpu/libc_nano.a(lib_a-memcpy.o)
 .debug_frame   0x000030e0       0x20 /usr/lib/gcc/arm-none-eabi/4.9.3/../../../arm-none-eabi/lib/armv7e-m/fpu/libc_nano.a(lib_a-memset.o)
 .debug_frame   0x00003100       0x2c /usr/lib/gcc/arm-none-eabi/4.9.3/../../../arm-none-eabi/lib/armv7e-m/fpu/libc_nano.a(lib_a-strcasecmp.o)
 .debug_frame   0x0000312c       0x28 /usr/lib/gcc/arm-none-eabi/4.9.3/../../../arm-none-eabi/lib/armv7e-m/fpu/libc_nano.a(lib_a-strcat.o)
 .debug_frame   0x00003154       0x20 /usr/lib/gcc/arm-none-eabi/4.9.3/../../../arm-none-eabi/lib/armv7e-m/fpu/libc_nano.a(lib_a-strchr.o)
 .debug_frame   0x00003174       0x20 /usr/lib/gcc/arm-none-eabi/4.9.3/../../../arm-none-eabi/lib/armv7e-m/fpu/libc_nano.a(lib_a-strlen.o)
 .debug_frame   0x00003194       0x2c /usr/lib/gcc/arm-none-eabi/4.9.3/../../../arm-none-eabi/lib/armv7e-m/fpu/libc_nano.a(lib_a-strncasecmp.o)
 .debug_frame   0x000031c0       0x28 /usr/lib/gcc/arm-none-eabi/4.9.3/../../../arm-none-eabi/lib/armv7e-m/fpu/libc_nano.a(lib_a-strncpy.o)
 .debug_frame   0x000031e8       0x2c /usr/lib/gcc/arm-none-eabi/4.9.3/../../../arm-none-eabi/lib/armv7e-m/fpu/libc_nano.a(lib_a-strstr.o)
 .debug_frame   0x00003214       0x28 /usr/lib/gcc/arm-none-eabi/4.9.3/armv7e-m/fpu/libgcc.a(_aeabi_ldivmod.o)
 .debug_frame   0x0000323c       0x28 /usr/lib/gcc/arm-none-eabi/4.9.3/armv7e-m/fpu/libgcc.a(_fixsfdi.o)
 .debug_frame   0x00003264       0x2c /usr/lib/gcc/arm-none-eabi/4.9.3/armv7e-m/fpu/libgcc.a(_fixunssfdi.o)
 .debug_frame   0x00003290       0x50 /usr/lib/gcc/arm-none-eabi/4.9.3/armv7e-m/fpu/libgcc.a(bpabi.o)
 .debug_frame   0x000032e0       0x34 /usr/lib/gcc/arm-none-eabi/4.9.3/armv7e-m/fpu/libgcc.a(_divdi3.o)
 .debug_frame   0x00003314       0x30 /usr/lib/gcc/arm-none-eabi/4.9.3/armv7e-m/fpu/libgcc.a(_udivdi3.o)

Cross Reference Table

Symbol                                            File
ADC1_2_IRQHandler                                 obj/main/SPRACINGF3/startup_stm32f30x_md_gcc.o
ADC3_IRQHandler                                   obj/main/SPRACINGF3/startup_stm32f30x_md_gcc.o
ADC4_IRQHandler                                   obj/main/SPRACINGF3/startup_stm32f30x_md_gcc.o
ADC_AnalogWatchdog1SingleChannelConfig            obj/main/SPRACINGF3/stm32f30x_adc.o (symbol from plugin)
ADC_AnalogWatchdog1ThresholdsConfig               obj/main/SPRACINGF3/stm32f30x_adc.o (symbol from plugin)
ADC_AnalogWatchdog2SingleChannelConfig            obj/main/SPRACINGF3/stm32f30x_adc.o (symbol from plugin)
ADC_AnalogWatchdog2ThresholdsConfig               obj/main/SPRACINGF3/stm32f30x_adc.o (symbol from plugin)
ADC_AnalogWatchdog3SingleChannelConfig            obj/main/SPRACINGF3/stm32f30x_adc.o (symbol from plugin)
ADC_AnalogWatchdog3ThresholdsConfig               obj/main/SPRACINGF3/stm32f30x_adc.o (symbol from plugin)
ADC_AnalogWatchdogCmd                             obj/main/SPRACINGF3/stm32f30x_adc.o (symbol from plugin)
ADC_AutoDelayCmd                                  obj/main/SPRACINGF3/stm32f30x_adc.o (symbol from plugin)
ADC_AutoInjectedConvCmd                           obj/main/SPRACINGF3/stm32f30x_adc.o (symbol from plugin)
ADC_ChannelOffset1Cmd                             obj/main/SPRACINGF3/stm32f30x_adc.o (symbol from plugin)
ADC_ChannelOffset2Cmd                             obj/main/SPRACINGF3/stm32f30x_adc.o (symbol from plugin)
ADC_ChannelOffset3Cmd                             obj/main/SPRACINGF3/stm32f30x_adc.o (symbol from plugin)
ADC_ChannelOffset4Cmd                             obj/main/SPRACINGF3/stm32f30x_adc.o (symbol from plugin)
ADC_ClearCommonFlag                               obj/main/SPRACINGF3/stm32f30x_adc.o (symbol from plugin)
ADC_ClearFlag                                     obj/main/SPRACINGF3/stm32f30x_adc.o (symbol from plugin)
ADC_ClearITPendingBit                             obj/main/SPRACINGF3/stm32f30x_adc.o (symbol from plugin)
ADC_Cmd                                           obj/main/SPRACINGF3/stm32f30x_adc.o (symbol from plugin)
                                                  obj/main/SPRACINGF3/drivers/adc_stm32f30x.o (symbol from plugin)
ADC_CommonInit                                    obj/main/SPRACINGF3/stm32f30x_adc.o (symbol from plugin)
                                                  obj/main/SPRACINGF3/drivers/adc_stm32f30x.o (symbol from plugin)
ADC_CommonStructInit                              obj/main/SPRACINGF3/stm32f30x_adc.o (symbol from plugin)
                                                  obj/main/SPRACINGF3/drivers/adc_stm32f30x.o (symbol from plugin)
ADC_DMACmd                                        obj/main/SPRACINGF3/stm32f30x_adc.o (symbol from plugin)
                                                  obj/main/SPRACINGF3/drivers/adc_stm32f30x.o (symbol from plugin)
ADC_DMAConfig                                     obj/main/SPRACINGF3/stm32f30x_adc.o (symbol from plugin)
                                                  obj/main/SPRACINGF3/drivers/adc_stm32f30x.o (symbol from plugin)
ADC_DeInit                                        obj/main/SPRACINGF3/stm32f30x_adc.o (symbol from plugin)
ADC_DisableCmd                                    obj/main/SPRACINGF3/stm32f30x_adc.o (symbol from plugin)
ADC_DiscModeChannelCountConfig                    obj/main/SPRACINGF3/stm32f30x_adc.o (symbol from plugin)
ADC_DiscModeCmd                                   obj/main/SPRACINGF3/stm32f30x_adc.o (symbol from plugin)
ADC_ExternalTriggerConfig                         obj/main/SPRACINGF3/stm32f30x_adc.o (symbol from plugin)
ADC_GetCalibrationStatus                          obj/main/SPRACINGF3/stm32f30x_adc.o (symbol from plugin)
                                                  obj/main/SPRACINGF3/drivers/adc_stm32f30x.o (symbol from plugin)
ADC_GetCalibrationValue                           obj/main/SPRACINGF3/stm32f30x_adc.o (symbol from plugin)
ADC_GetCommonFlagStatus                           obj/main/SPRACINGF3/stm32f30x_adc.o (symbol from plugin)
ADC_GetConversionValue                            obj/main/SPRACINGF3/stm32f30x_adc.o (symbol from plugin)
ADC_GetDisableCmdStatus                           obj/main/SPRACINGF3/stm32f30x_adc.o (symbol from plugin)
ADC_GetDualModeConversionValue                    obj/main/SPRACINGF3/stm32f30x_adc.o (symbol from plugin)
ADC_GetFlagStatus                                 obj/main/SPRACINGF3/stm32f30x_adc.o (symbol from plugin)
                                                  obj/main/SPRACINGF3/drivers/adc_stm32f30x.o (symbol from plugin)
ADC_GetITStatus                                   obj/main/SPRACINGF3/stm32f30x_adc.o (symbol from plugin)
ADC_GetInjectedConversionValue                    obj/main/SPRACINGF3/stm32f30x_adc.o (symbol from plugin)
ADC_GetStartConversionStatus                      obj/main/SPRACINGF3/stm32f30x_adc.o (symbol from plugin)
ADC_GetStartInjectedConversionStatus              obj/main/SPRACINGF3/stm32f30x_adc.o (symbol from plugin)
ADC_ITConfig                                      obj/main/SPRACINGF3/stm32f30x_adc.o (symbol from plugin)
ADC_Init                                          obj/main/SPRACINGF3/stm32f30x_adc.o (symbol from plugin)
                                                  obj/main/SPRACINGF3/drivers/adc_stm32f30x.o (symbol from plugin)
ADC_InjectedChannelSampleTimeConfig               obj/main/SPRACINGF3/stm32f30x_adc.o (symbol from plugin)
ADC_InjectedDiscModeCmd                           obj/main/SPRACINGF3/stm32f30x_adc.o (symbol from plugin)
ADC_InjectedInit                                  obj/main/SPRACINGF3/stm32f30x_adc.o (symbol from plugin)
ADC_InjectedStructInit                            obj/main/SPRACINGF3/stm32f30x_adc.o (symbol from plugin)
ADC_RegularChannelConfig                          obj/main/SPRACINGF3/stm32f30x_adc.o (symbol from plugin)
                                                  obj/main/SPRACINGF3/drivers/adc_stm32f30x.o (symbol from plugin)
ADC_RegularChannelSequencerLengthConfig           obj/main/SPRACINGF3/stm32f30x_adc.o (symbol from plugin)
ADC_SelectCalibrationMode                         obj/main/SPRACINGF3/stm32f30x_adc.o (symbol from plugin)
                                                  obj/main/SPRACINGF3/drivers/adc_stm32f30x.o (symbol from plugin)
ADC_SelectDifferentialMode                        obj/main/SPRACINGF3/stm32f30x_adc.o (symbol from plugin)
ADC_SelectQueueOfContextMode                      obj/main/SPRACINGF3/stm32f30x_adc.o (symbol from plugin)
ADC_SetCalibrationValue                           obj/main/SPRACINGF3/stm32f30x_adc.o (symbol from plugin)
ADC_SetChannelOffset1                             obj/main/SPRACINGF3/stm32f30x_adc.o (symbol from plugin)
ADC_SetChannelOffset2                             obj/main/SPRACINGF3/stm32f30x_adc.o (symbol from plugin)
ADC_SetChannelOffset3                             obj/main/SPRACINGF3/stm32f30x_adc.o (symbol from plugin)
ADC_SetChannelOffset4                             obj/main/SPRACINGF3/stm32f30x_adc.o (symbol from plugin)
ADC_StartCalibration                              obj/main/SPRACINGF3/stm32f30x_adc.o (symbol from plugin)
                                                  obj/main/SPRACINGF3/drivers/adc_stm32f30x.o (symbol from plugin)
ADC_StartConversion                               obj/main/SPRACINGF3/stm32f30x_adc.o (symbol from plugin)
                                                  obj/main/SPRACINGF3/drivers/adc_stm32f30x.o (symbol from plugin)
ADC_StartInjectedConversion                       obj/main/SPRACINGF3/stm32f30x_adc.o (symbol from plugin)
ADC_StopConversion                                obj/main/SPRACINGF3/stm32f30x_adc.o (symbol from plugin)
ADC_StopInjectedConversion                        obj/main/SPRACINGF3/stm32f30x_adc.o (symbol from plugin)
ADC_StructInit                                    obj/main/SPRACINGF3/stm32f30x_adc.o (symbol from plugin)
                                                  obj/main/SPRACINGF3/drivers/adc_stm32f30x.o (symbol from plugin)
ADC_TempSensorCmd                                 obj/main/SPRACINGF3/stm32f30x_adc.o (symbol from plugin)
ADC_VbatCmd                                       obj/main/SPRACINGF3/stm32f30x_adc.o (symbol from plugin)
ADC_VoltageRegulatorCmd                           obj/main/SPRACINGF3/stm32f30x_adc.o (symbol from plugin)
                                                  obj/main/SPRACINGF3/drivers/adc_stm32f30x.o (symbol from plugin)
ADC_VrefintCmd                                    obj/main/SPRACINGF3/stm32f30x_adc.o (symbol from plugin)
AHBPrescTable                                     obj/main/SPRACINGF3/system_stm32f30x.o (symbol from plugin)
AccInflightCalibrationActive                      /tmp/ccGYWBCE.ltrans3.ltrans.o
                                                  obj/main/SPRACINGF3/mw.o (symbol from plugin)
                                                  /tmp/ccGYWBCE.ltrans25.ltrans.o
                                                  obj/main/SPRACINGF3/sensors/acceleration.o (symbol from plugin)
AccInflightCalibrationArmed                       obj/main/SPRACINGF3/mw.o (symbol from plugin)
AccInflightCalibrationMeasurementDone             /tmp/ccGYWBCE.ltrans3.ltrans.o
                                                  obj/main/SPRACINGF3/mw.o (symbol from plugin)
                                                  /tmp/ccGYWBCE.ltrans25.ltrans.o
                                                  obj/main/SPRACINGF3/sensors/acceleration.o (symbol from plugin)
AccInflightCalibrationSavetoEEProm                /tmp/ccGYWBCE.ltrans3.ltrans.o
                                                  obj/main/SPRACINGF3/mw.o (symbol from plugin)
                                                  /tmp/ccGYWBCE.ltrans25.ltrans.o
                                                  obj/main/SPRACINGF3/sensors/acceleration.o (symbol from plugin)
AltHold                                           /tmp/ccGYWBCE.ltrans17.ltrans.o
                                                  obj/main/SPRACINGF3/flight/altitudehold.o (symbol from plugin)
                                                  /tmp/ccGYWBCE.ltrans3.ltrans.o
                                                  /tmp/ccGYWBCE.ltrans2.ltrans.o
                                                  /tmp/ccGYWBCE.ltrans1.ltrans.o
                                                  obj/main/SPRACINGF3/io/serial_msp.o (symbol from plugin)
BaroAlt                                           /tmp/ccGYWBCE.ltrans5.ltrans.o
                                                  obj/main/SPRACINGF3/sensors/barometer.o (symbol from plugin)
                                                  /tmp/ccGYWBCE.ltrans17.ltrans.o
                                                  /tmp/ccGYWBCE.ltrans9.ltrans.o
                                                  obj/main/SPRACINGF3/flight/altitudehold.o (symbol from plugin)
                                                  obj/main/SPRACINGF3/blackbox/blackbox.o (symbol from plugin)
                                                  obj/main/SPRACINGF3/telemetry/smartport.o (symbol from plugin)
                                                  obj/main/SPRACINGF3/telemetry/frsky.o (symbol from plugin)
BiQuadNewLpf                                      /tmp/ccGYWBCE.ltrans20.ltrans.o
                                                  obj/main/SPRACINGF3/common/filter.o (symbol from plugin)
                                                  /tmp/ccGYWBCE.ltrans26.ltrans.o
                                                  /tmp/ccGYWBCE.ltrans1.ltrans.o
                                                  obj/main/SPRACINGF3/sensors/gyro.o (symbol from plugin)
                                                  obj/main/SPRACINGF3/flight/pid.o (symbol from plugin)
BusFault_Handler                                  obj/main/SPRACINGF3/startup_stm32f30x_md_gcc.o
CAN1_RX1_IRQHandler                               obj/main/SPRACINGF3/startup_stm32f30x_md_gcc.o
CAN1_SCE_IRQHandler                               obj/main/SPRACINGF3/startup_stm32f30x_md_gcc.o
CHAR_FORMAT                                       obj/main/SPRACINGF3/drivers/display_ug2864hsweg01.o (symbol from plugin)
COMP1_2_3_IRQHandler                              obj/main/SPRACINGF3/startup_stm32f30x_md_gcc.o
COMP4_5_6_IRQHandler                              obj/main/SPRACINGF3/startup_stm32f30x_md_gcc.o
COMP7_IRQHandler                                  obj/main/SPRACINGF3/startup_stm32f30x_md_gcc.o
COMP_Cmd                                          obj/main/SPRACINGF3/stm32f30x_comp.o (symbol from plugin)
COMP_DeInit                                       obj/main/SPRACINGF3/stm32f30x_comp.o (symbol from plugin)
COMP_GetOutputLevel                               obj/main/SPRACINGF3/stm32f30x_comp.o (symbol from plugin)
COMP_Init                                         obj/main/SPRACINGF3/stm32f30x_comp.o (symbol from plugin)
COMP_LockConfig                                   obj/main/SPRACINGF3/stm32f30x_comp.o (symbol from plugin)
COMP_StructInit                                   obj/main/SPRACINGF3/stm32f30x_comp.o (symbol from plugin)
COMP_SwitchCmd                                    obj/main/SPRACINGF3/stm32f30x_comp.o (symbol from plugin)
COMP_WindowCmd                                    obj/main/SPRACINGF3/stm32f30x_comp.o (symbol from plugin)
DAC_ClearFlag                                     obj/main/SPRACINGF3/stm32f30x_dac.o (symbol from plugin)
DAC_ClearITPendingBit                             obj/main/SPRACINGF3/stm32f30x_dac.o (symbol from plugin)
DAC_Cmd                                           obj/main/SPRACINGF3/stm32f30x_dac.o (symbol from plugin)
DAC_DMACmd                                        obj/main/SPRACINGF3/stm32f30x_dac.o (symbol from plugin)
DAC_DeInit                                        obj/main/SPRACINGF3/stm32f30x_dac.o (symbol from plugin)
DAC_DualSoftwareTriggerCmd                        obj/main/SPRACINGF3/stm32f30x_dac.o (symbol from plugin)
DAC_GetDataOutputValue                            obj/main/SPRACINGF3/stm32f30x_dac.o (symbol from plugin)
DAC_GetFlagStatus                                 obj/main/SPRACINGF3/stm32f30x_dac.o (symbol from plugin)
DAC_GetITStatus                                   obj/main/SPRACINGF3/stm32f30x_dac.o (symbol from plugin)
DAC_ITConfig                                      obj/main/SPRACINGF3/stm32f30x_dac.o (symbol from plugin)
DAC_Init                                          obj/main/SPRACINGF3/stm32f30x_dac.o (symbol from plugin)
DAC_SetChannel1Data                               obj/main/SPRACINGF3/stm32f30x_dac.o (symbol from plugin)
DAC_SetChannel2Data                               obj/main/SPRACINGF3/stm32f30x_dac.o (symbol from plugin)
DAC_SetDualChannelData                            obj/main/SPRACINGF3/stm32f30x_dac.o (symbol from plugin)
DAC_SoftwareTriggerCmd                            obj/main/SPRACINGF3/stm32f30x_dac.o (symbol from plugin)
DAC_StructInit                                    obj/main/SPRACINGF3/stm32f30x_dac.o (symbol from plugin)
DAC_WaveGenerationCmd                             obj/main/SPRACINGF3/stm32f30x_dac.o (symbol from plugin)
DBGMCU_APB1PeriphConfig                           obj/main/SPRACINGF3/stm32f30x_dbgmcu.o (symbol from plugin)
DBGMCU_APB2PeriphConfig                           obj/main/SPRACINGF3/stm32f30x_dbgmcu.o (symbol from plugin)
DBGMCU_Config                                     obj/main/SPRACINGF3/stm32f30x_dbgmcu.o (symbol from plugin)
DBGMCU_GetDEVID                                   obj/main/SPRACINGF3/stm32f30x_dbgmcu.o (symbol from plugin)
DBGMCU_GetREVID                                   obj/main/SPRACINGF3/stm32f30x_dbgmcu.o (symbol from plugin)
DMA1_Channel1_IRQHandler                          obj/main/SPRACINGF3/startup_stm32f30x_md_gcc.o
DMA1_Channel2_IRQHandler                          /tmp/ccGYWBCE.ltrans7.ltrans.o
                                                  obj/main/SPRACINGF3/drivers/dma.o (symbol from plugin)
                                                  obj/main/SPRACINGF3/startup_stm32f30x_md_gcc.o
DMA1_Channel3_IRQHandler                          /tmp/ccGYWBCE.ltrans7.ltrans.o
                                                  obj/main/SPRACINGF3/drivers/dma.o (symbol from plugin)
                                                  obj/main/SPRACINGF3/startup_stm32f30x_md_gcc.o
DMA1_Channel4_IRQHandler                          /tmp/ccGYWBCE.ltrans21.ltrans.o
                                                  obj/main/SPRACINGF3/drivers/serial_uart_stm32f30x.o (symbol from plugin)
                                                  obj/main/SPRACINGF3/startup_stm32f30x_md_gcc.o
DMA1_Channel5_IRQHandler                          obj/main/SPRACINGF3/startup_stm32f30x_md_gcc.o
DMA1_Channel6_IRQHandler                          /tmp/ccGYWBCE.ltrans7.ltrans.o
                                                  obj/main/SPRACINGF3/drivers/dma.o (symbol from plugin)
                                                  obj/main/SPRACINGF3/startup_stm32f30x_md_gcc.o
DMA1_Channel7_IRQHandler                          /tmp/ccGYWBCE.ltrans7.ltrans.o
                                                  obj/main/SPRACINGF3/drivers/dma.o (symbol from plugin)
                                                  obj/main/SPRACINGF3/startup_stm32f30x_md_gcc.o
DMA2_Channel1_IRQHandler                          obj/main/SPRACINGF3/startup_stm32f30x_md_gcc.o
DMA2_Channel2_IRQHandler                          obj/main/SPRACINGF3/startup_stm32f30x_md_gcc.o
DMA2_Channel3_IRQHandler                          obj/main/SPRACINGF3/startup_stm32f30x_md_gcc.o
DMA2_Channel4_IRQHandler                          obj/main/SPRACINGF3/startup_stm32f30x_md_gcc.o
DMA2_Channel5_IRQHandler                          obj/main/SPRACINGF3/startup_stm32f30x_md_gcc.o
DMA_ClearFlag                                     obj/main/SPRACINGF3/stm32f30x_dma.o (symbol from plugin)
                                                  obj/main/SPRACINGF3/drivers/light_ws2811strip.o (symbol from plugin)
DMA_ClearITPendingBit                             obj/main/SPRACINGF3/stm32f30x_dma.o (symbol from plugin)
                                                  obj/main/SPRACINGF3/drivers/serial_uart_stm32f30x.o (symbol from plugin)
DMA_Cmd                                           obj/main/SPRACINGF3/stm32f30x_dma.o (symbol from plugin)
                                                  obj/main/SPRACINGF3/drivers/light_ws2811strip_stm32f30x.o (symbol from plugin)
                                                  obj/main/SPRACINGF3/drivers/light_ws2811strip.o (symbol from plugin)
                                                  obj/main/SPRACINGF3/drivers/serial_uart_stm32f30x.o (symbol from plugin)
                                                  obj/main/SPRACINGF3/drivers/serial_uart.o (symbol from plugin)
                                                  obj/main/SPRACINGF3/drivers/adc_stm32f30x.o (symbol from plugin)
DMA_DeInit                                        /tmp/ccGYWBCE.ltrans16.ltrans.o
                                                  obj/main/SPRACINGF3/stm32f30x_dma.o (symbol from plugin)
                                                  /tmp/ccGYWBCE.ltrans4.ltrans.o
                                                  /tmp/ccGYWBCE.ltrans0.ltrans.o
                                                  obj/main/SPRACINGF3/drivers/light_ws2811strip_stm32f30x.o (symbol from plugin)
                                                  obj/main/SPRACINGF3/drivers/serial_uart.o (symbol from plugin)
                                                  obj/main/SPRACINGF3/drivers/adc_stm32f30x.o (symbol from plugin)
DMA_GetCurrDataCounter                            obj/main/SPRACINGF3/stm32f30x_dma.o (symbol from plugin)
                                                  obj/main/SPRACINGF3/drivers/serial_uart.o (symbol from plugin)
DMA_GetFlagStatus                                 obj/main/SPRACINGF3/stm32f30x_dma.o (symbol from plugin)
                                                  obj/main/SPRACINGF3/drivers/light_ws2811strip.o (symbol from plugin)
DMA_GetITStatus                                   obj/main/SPRACINGF3/stm32f30x_dma.o (symbol from plugin)
DMA_ITConfig                                      obj/main/SPRACINGF3/stm32f30x_dma.o (symbol from plugin)
                                                  obj/main/SPRACINGF3/drivers/light_ws2811strip_stm32f30x.o (symbol from plugin)
                                                  obj/main/SPRACINGF3/drivers/serial_uart.o (symbol from plugin)
DMA_Init                                          /tmp/ccGYWBCE.ltrans16.ltrans.o
                                                  obj/main/SPRACINGF3/stm32f30x_dma.o (symbol from plugin)
                                                  /tmp/ccGYWBCE.ltrans4.ltrans.o
                                                  /tmp/ccGYWBCE.ltrans0.ltrans.o
                                                  obj/main/SPRACINGF3/drivers/light_ws2811strip_stm32f30x.o (symbol from plugin)
                                                  obj/main/SPRACINGF3/drivers/serial_uart.o (symbol from plugin)
                                                  obj/main/SPRACINGF3/drivers/adc_stm32f30x.o (symbol from plugin)
DMA_SetCurrDataCounter                            obj/main/SPRACINGF3/stm32f30x_dma.o (symbol from plugin)
                                                  obj/main/SPRACINGF3/drivers/light_ws2811strip_stm32f30x.o (symbol from plugin)
                                                  obj/main/SPRACINGF3/drivers/serial_uart.o (symbol from plugin)
DMA_StructInit                                    /tmp/ccGYWBCE.ltrans16.ltrans.o
                                                  obj/main/SPRACINGF3/stm32f30x_dma.o (symbol from plugin)
                                                  /tmp/ccGYWBCE.ltrans4.ltrans.o
                                                  /tmp/ccGYWBCE.ltrans0.ltrans.o
                                                  obj/main/SPRACINGF3/drivers/light_ws2811strip_stm32f30x.o (symbol from plugin)
                                                  obj/main/SPRACINGF3/drivers/serial_uart.o (symbol from plugin)
                                                  obj/main/SPRACINGF3/drivers/adc_stm32f30x.o (symbol from plugin)
DebugMon_Handler                                  obj/main/SPRACINGF3/startup_stm32f30x_md_gcc.o
Default_Handler                                   obj/main/SPRACINGF3/startup_stm32f30x_md_gcc.o
EXTI0_IRQHandler                                  /tmp/ccGYWBCE.ltrans14.ltrans.o
                                                  obj/main/SPRACINGF3/drivers/sonar_hcsr04.o (symbol from plugin)
                                                  obj/main/SPRACINGF3/startup_stm32f30x_md_gcc.o
EXTI15_10_IRQHandler                              /tmp/ccGYWBCE.ltrans7.ltrans.o
                                                  obj/main/SPRACINGF3/drivers/system.o (symbol from plugin)
                                                  obj/main/SPRACINGF3/startup_stm32f30x_md_gcc.o
EXTI1_IRQHandler                                  /tmp/ccGYWBCE.ltrans14.ltrans.o
                                                  obj/main/SPRACINGF3/drivers/sonar_hcsr04.o (symbol from plugin)
                                                  obj/main/SPRACINGF3/startup_stm32f30x_md_gcc.o
EXTI2_TS_IRQHandler                               obj/main/SPRACINGF3/startup_stm32f30x_md_gcc.o
EXTI3_IRQHandler                                  obj/main/SPRACINGF3/startup_stm32f30x_md_gcc.o
EXTI4_IRQHandler                                  obj/main/SPRACINGF3/startup_stm32f30x_md_gcc.o
EXTI9_5_IRQHandler                                /tmp/ccGYWBCE.ltrans14.ltrans.o
                                                  obj/main/SPRACINGF3/drivers/sonar_hcsr04.o (symbol from plugin)
                                                  obj/main/SPRACINGF3/startup_stm32f30x_md_gcc.o
EXTI_ClearFlag                                    obj/main/SPRACINGF3/stm32f30x_exti.o (symbol from plugin)
EXTI_ClearITPendingBit                            /tmp/ccGYWBCE.ltrans16.ltrans.o
                                                  obj/main/SPRACINGF3/stm32f30x_exti.o (symbol from plugin)
                                                  /tmp/ccGYWBCE.ltrans21.ltrans.o
                                                  /tmp/ccGYWBCE.ltrans15.ltrans.o
                                                  /tmp/ccGYWBCE.ltrans14.ltrans.o
                                                  /tmp/ccGYWBCE.ltrans0.ltrans.o
                                                  obj/main/SPRACINGF3/drivers/sonar_hcsr04.o (symbol from plugin)
                                                  obj/main/SPRACINGF3/drivers/compass_hmc5883l.o (symbol from plugin)
                                                  obj/main/SPRACINGF3/drivers/accgyro_mpu.o (symbol from plugin)
EXTI_DeInit                                       obj/main/SPRACINGF3/stm32f30x_exti.o (symbol from plugin)
EXTI_GenerateSWInterrupt                          obj/main/SPRACINGF3/stm32f30x_exti.o (symbol from plugin)
EXTI_GetFlagStatus                                obj/main/SPRACINGF3/stm32f30x_exti.o (symbol from plugin)
EXTI_GetITStatus                                  obj/main/SPRACINGF3/stm32f30x_exti.o (symbol from plugin)
                                                  obj/main/SPRACINGF3/drivers/compass_hmc5883l.o (symbol from plugin)
                                                  obj/main/SPRACINGF3/drivers/accgyro_mpu.o (symbol from plugin)
EXTI_Init                                         obj/main/SPRACINGF3/stm32f30x_exti.o (symbol from plugin)
                                                  obj/main/SPRACINGF3/drivers/sonar_hcsr04.o (symbol from plugin)
                                                  obj/main/SPRACINGF3/drivers/compass_hmc5883l.o (symbol from plugin)
                                                  obj/main/SPRACINGF3/drivers/accgyro_mpu.o (symbol from plugin)
EXTI_Init.part.0.constprop.125                    /tmp/ccGYWBCE.ltrans16.ltrans.o
                                                  /tmp/ccGYWBCE.ltrans21.ltrans.o
                                                  /tmp/ccGYWBCE.ltrans15.ltrans.o
                                                  /tmp/ccGYWBCE.ltrans0.ltrans.o
EXTI_StructInit                                   obj/main/SPRACINGF3/stm32f30x_exti.o (symbol from plugin)
EstAlt.lto_priv.254                               /tmp/ccGYWBCE.ltrans5.ltrans.o
                                                  /tmp/ccGYWBCE.ltrans17.ltrans.o
                                                  /tmp/ccGYWBCE.ltrans3.ltrans.o
                                                  /tmp/ccGYWBCE.ltrans2.ltrans.o
                                                  /tmp/ccGYWBCE.ltrans1.ltrans.o
FLASH_ClearFlag                                   obj/main/SPRACINGF3/stm32f30x_flash.o (symbol from plugin)
                                                  obj/main/SPRACINGF3/config/config.o (symbol from plugin)
FLASH_EraseAllPages                               obj/main/SPRACINGF3/stm32f30x_flash.o (symbol from plugin)
FLASH_ErasePage                                   obj/main/SPRACINGF3/stm32f30x_flash.o (symbol from plugin)
                                                  obj/main/SPRACINGF3/config/config.o (symbol from plugin)
FLASH_GetFlagStatus                               obj/main/SPRACINGF3/stm32f30x_flash.o (symbol from plugin)
FLASH_GetStatus                                   obj/main/SPRACINGF3/stm32f30x_flash.o (symbol from plugin)
FLASH_HalfCycleAccessCmd                          obj/main/SPRACINGF3/stm32f30x_flash.o (symbol from plugin)
FLASH_IRQHandler                                  obj/main/SPRACINGF3/startup_stm32f30x_md_gcc.o
FLASH_ITConfig                                    obj/main/SPRACINGF3/stm32f30x_flash.o (symbol from plugin)
FLASH_Lock                                        obj/main/SPRACINGF3/stm32f30x_flash.o (symbol from plugin)
                                                  obj/main/SPRACINGF3/config/config.o (symbol from plugin)
FLASH_OB_BOOTConfig                               obj/main/SPRACINGF3/stm32f30x_flash.o (symbol from plugin)
FLASH_OB_EnableWRP                                obj/main/SPRACINGF3/stm32f30x_flash.o (symbol from plugin)
FLASH_OB_Erase                                    obj/main/SPRACINGF3/stm32f30x_flash.o (symbol from plugin)
FLASH_OB_GetRDP                                   obj/main/SPRACINGF3/stm32f30x_flash.o (symbol from plugin)
FLASH_OB_GetUser                                  obj/main/SPRACINGF3/stm32f30x_flash.o (symbol from plugin)
FLASH_OB_GetWRP                                   obj/main/SPRACINGF3/stm32f30x_flash.o (symbol from plugin)
FLASH_OB_Launch                                   obj/main/SPRACINGF3/stm32f30x_flash.o (symbol from plugin)
FLASH_OB_Lock                                     obj/main/SPRACINGF3/stm32f30x_flash.o (symbol from plugin)
FLASH_OB_RDPConfig                                obj/main/SPRACINGF3/stm32f30x_flash.o (symbol from plugin)
FLASH_OB_SRAMParityConfig                         obj/main/SPRACINGF3/stm32f30x_flash.o (symbol from plugin)
FLASH_OB_Unlock                                   obj/main/SPRACINGF3/stm32f30x_flash.o (symbol from plugin)
FLASH_OB_UserConfig                               obj/main/SPRACINGF3/stm32f30x_flash.o (symbol from plugin)
FLASH_OB_VDDAConfig                               obj/main/SPRACINGF3/stm32f30x_flash.o (symbol from plugin)
FLASH_OB_WriteUser                                obj/main/SPRACINGF3/stm32f30x_flash.o (symbol from plugin)
FLASH_PrefetchBufferCmd                           obj/main/SPRACINGF3/stm32f30x_flash.o (symbol from plugin)
FLASH_ProgramHalfWord                             obj/main/SPRACINGF3/stm32f30x_flash.o (symbol from plugin)
FLASH_ProgramOptionByteData                       obj/main/SPRACINGF3/stm32f30x_flash.o (symbol from plugin)
FLASH_ProgramWord                                 obj/main/SPRACINGF3/stm32f30x_flash.o (symbol from plugin)
                                                  obj/main/SPRACINGF3/config/config.o (symbol from plugin)
FLASH_SetLatency                                  obj/main/SPRACINGF3/stm32f30x_flash.o (symbol from plugin)
FLASH_Unlock                                      obj/main/SPRACINGF3/stm32f30x_flash.o (symbol from plugin)
                                                  obj/main/SPRACINGF3/config/config.o (symbol from plugin)
FLASH_WaitForLastOperation                        obj/main/SPRACINGF3/stm32f30x_flash.o (symbol from plugin)
FLASH_WaitForLastOperation.constprop.57           /tmp/ccGYWBCE.ltrans16.ltrans.o
                                                  /tmp/ccGYWBCE.ltrans20.ltrans.o
FPU_IRQHandler                                    obj/main/SPRACINGF3/startup_stm32f30x_md_gcc.o
GPIO_DeInit                                       obj/main/SPRACINGF3/stm32f30x_gpio.o (symbol from plugin)
GPIO_Init                                         /tmp/ccGYWBCE.ltrans16.ltrans.o
                                                  obj/main/SPRACINGF3/stm32f30x_gpio.o (symbol from plugin)
                                                  /tmp/ccGYWBCE.ltrans4.ltrans.o
                                                  /tmp/ccGYWBCE.ltrans0.ltrans.o
                                                  obj/main/SPRACINGF3/drivers/light_ws2811strip_stm32f30x.o (symbol from plugin)
                                                  obj/main/SPRACINGF3/drivers/serial_uart_stm32f30x.o (symbol from plugin)
                                                  obj/main/SPRACINGF3/drivers/gpio_stm32f30x.o (symbol from plugin)
                                                  obj/main/SPRACINGF3/drivers/bus_spi.o (symbol from plugin)
                                                  obj/main/SPRACINGF3/drivers/bus_i2c_stm32f30x.o (symbol from plugin)
                                                  obj/main/SPRACINGF3/drivers/adc_stm32f30x.o (symbol from plugin)
GPIO_PinAFConfig                                  obj/main/SPRACINGF3/stm32f30x_gpio.o (symbol from plugin)
                                                  obj/main/SPRACINGF3/drivers/light_ws2811strip_stm32f30x.o (symbol from plugin)
                                                  obj/main/SPRACINGF3/drivers/timer.o (symbol from plugin)
                                                  obj/main/SPRACINGF3/drivers/serial_uart_stm32f30x.o (symbol from plugin)
                                                  obj/main/SPRACINGF3/drivers/bus_spi.o (symbol from plugin)
                                                  obj/main/SPRACINGF3/drivers/bus_i2c_stm32f30x.o (symbol from plugin)
GPIO_PinLockConfig                                obj/main/SPRACINGF3/stm32f30x_gpio.o (symbol from plugin)
GPIO_ReadInputData                                obj/main/SPRACINGF3/stm32f30x_gpio.o (symbol from plugin)
GPIO_ReadInputDataBit                             obj/main/SPRACINGF3/stm32f30x_gpio.o (symbol from plugin)
                                                  obj/main/SPRACINGF3/drivers/compass_hmc5883l.o (symbol from plugin)
                                                  obj/main/SPRACINGF3/drivers/accgyro_mpu.o (symbol from plugin)
GPIO_ReadOutputData                               obj/main/SPRACINGF3/stm32f30x_gpio.o (symbol from plugin)
GPIO_ReadOutputDataBit                            obj/main/SPRACINGF3/stm32f30x_gpio.o (symbol from plugin)
GPIO_ResetBits                                    obj/main/SPRACINGF3/stm32f30x_gpio.o (symbol from plugin)
                                                  obj/main/SPRACINGF3/io/serial_1wire.o (symbol from plugin)
                                                  obj/main/SPRACINGF3/drivers/flash_m25p16.o (symbol from plugin)
GPIO_SetBits                                      obj/main/SPRACINGF3/stm32f30x_gpio.o (symbol from plugin)
                                                  obj/main/SPRACINGF3/drivers/flash_m25p16.o (symbol from plugin)
                                                  obj/main/SPRACINGF3/drivers/serial_uart_stm32f30x.o (symbol from plugin)
                                                  obj/main/SPRACINGF3/drivers/bus_spi.o (symbol from plugin)
GPIO_StructInit                                   obj/main/SPRACINGF3/stm32f30x_gpio.o (symbol from plugin)
                                                  obj/main/SPRACINGF3/drivers/light_ws2811strip_stm32f30x.o (symbol from plugin)
                                                  obj/main/SPRACINGF3/drivers/bus_i2c_stm32f30x.o (symbol from plugin)
                                                  obj/main/SPRACINGF3/drivers/adc_stm32f30x.o (symbol from plugin)
GPIO_Write                                        obj/main/SPRACINGF3/stm32f30x_gpio.o (symbol from plugin)
GPIO_WriteBit                                     obj/main/SPRACINGF3/stm32f30x_gpio.o (symbol from plugin)
GPS_WP.lto_priv.518                               /tmp/ccGYWBCE.ltrans11.ltrans.o
                                                  /tmp/ccGYWBCE.ltrans14.ltrans.o
GPS_altitude                                      /tmp/ccGYWBCE.ltrans5.ltrans.o
                                                  obj/main/SPRACINGF3/io/gps.o (symbol from plugin)
                                                  /tmp/ccGYWBCE.ltrans11.ltrans.o
                                                  /tmp/ccGYWBCE.ltrans9.ltrans.o
                                                  /tmp/ccGYWBCE.ltrans2.ltrans.o
                                                  obj/main/SPRACINGF3/io/serial_msp.o (symbol from plugin)
                                                  obj/main/SPRACINGF3/blackbox/blackbox.o (symbol from plugin)
                                                  obj/main/SPRACINGF3/telemetry/ltm.o (symbol from plugin)
                                                  obj/main/SPRACINGF3/telemetry/smartport.o (symbol from plugin)
                                                  obj/main/SPRACINGF3/telemetry/hott.o (symbol from plugin)
                                                  obj/main/SPRACINGF3/telemetry/frsky.o (symbol from plugin)
GPS_angle                                         /tmp/ccGYWBCE.ltrans13.ltrans.o
                                                  obj/main/SPRACINGF3/flight/navigation.o (symbol from plugin)
                                                  /tmp/ccGYWBCE.ltrans3.ltrans.o
                                                  /tmp/ccGYWBCE.ltrans1.ltrans.o
                                                  obj/main/SPRACINGF3/flight/pid.o (symbol from plugin)
GPS_calculateDistanceAndDirectionToHome           obj/main/SPRACINGF3/flight/navigation.o (symbol from plugin)
GPS_coord                                         /tmp/ccGYWBCE.ltrans5.ltrans.o
                                                  obj/main/SPRACINGF3/io/gps.o (symbol from plugin)
                                                  /tmp/ccGYWBCE.ltrans19.ltrans.o
                                                  /tmp/ccGYWBCE.ltrans14.ltrans.o
                                                  /tmp/ccGYWBCE.ltrans11.ltrans.o
                                                  /tmp/ccGYWBCE.ltrans9.ltrans.o
                                                  /tmp/ccGYWBCE.ltrans3.ltrans.o
                                                  /tmp/ccGYWBCE.ltrans2.ltrans.o
                                                  obj/main/SPRACINGF3/io/serial_msp.o (symbol from plugin)
                                                  obj/main/SPRACINGF3/blackbox/blackbox.o (symbol from plugin)
                                                  obj/main/SPRACINGF3/telemetry/ltm.o (symbol from plugin)
                                                  obj/main/SPRACINGF3/telemetry/smartport.o (symbol from plugin)
                                                  obj/main/SPRACINGF3/telemetry/hott.o (symbol from plugin)
                                                  obj/main/SPRACINGF3/telemetry/frsky.o (symbol from plugin)
                                                  obj/main/SPRACINGF3/io/display.o (symbol from plugin)
                                                  obj/main/SPRACINGF3/flight/navigation.o (symbol from plugin)
GPS_coord_to_degrees                              obj/main/SPRACINGF3/flight/gps_conversion.o (symbol from plugin)
                                                  obj/main/SPRACINGF3/io/gps.o (symbol from plugin)
GPS_coord_to_degrees.constprop.105                /tmp/ccGYWBCE.ltrans16.ltrans.o
                                                  /tmp/ccGYWBCE.ltrans11.ltrans.o
GPS_directionToHome                               /tmp/ccGYWBCE.ltrans5.ltrans.o
                                                  obj/main/SPRACINGF3/flight/navigation.o (symbol from plugin)
                                                  /tmp/ccGYWBCE.ltrans11.ltrans.o
                                                  /tmp/ccGYWBCE.ltrans2.ltrans.o
                                                  obj/main/SPRACINGF3/io/serial_msp.o (symbol from plugin)
                                                  obj/main/SPRACINGF3/telemetry/hott.o (symbol from plugin)
GPS_distanceToHome                                /tmp/ccGYWBCE.ltrans5.ltrans.o
                                                  obj/main/SPRACINGF3/flight/navigation.o (symbol from plugin)
                                                  /tmp/ccGYWBCE.ltrans11.ltrans.o
                                                  /tmp/ccGYWBCE.ltrans2.ltrans.o
                                                  obj/main/SPRACINGF3/io/serial_msp.o (symbol from plugin)
                                                  obj/main/SPRACINGF3/telemetry/hott.o (symbol from plugin)
GPS_distance_cm_bearing.isra.3.lto_priv.533       /tmp/ccGYWBCE.ltrans11.ltrans.o
                                                  /tmp/ccGYWBCE.ltrans14.ltrans.o
GPS_garbageByteCount                              /tmp/ccGYWBCE.ltrans19.ltrans.o
                                                  obj/main/SPRACINGF3/io/gps.o (symbol from plugin)
                                                  /tmp/ccGYWBCE.ltrans11.ltrans.o
                                                  obj/main/SPRACINGF3/io/display.o (symbol from plugin)
GPS_ground_course                                 /tmp/ccGYWBCE.ltrans2.ltrans.o
                                                  obj/main/SPRACINGF3/io/gps.o (symbol from plugin)
                                                  /tmp/ccGYWBCE.ltrans19.ltrans.o
                                                  /tmp/ccGYWBCE.ltrans11.ltrans.o
                                                  /tmp/ccGYWBCE.ltrans9.ltrans.o
                                                  /tmp/ccGYWBCE.ltrans1.ltrans.o
                                                  obj/main/SPRACINGF3/io/serial_msp.o (symbol from plugin)
                                                  obj/main/SPRACINGF3/flight/imu.o (symbol from plugin)
                                                  obj/main/SPRACINGF3/blackbox/blackbox.o (symbol from plugin)
                                                  obj/main/SPRACINGF3/io/display.o (symbol from plugin)
GPS_hdop                                          /tmp/ccGYWBCE.ltrans5.ltrans.o
                                                  obj/main/SPRACINGF3/io/gps.o (symbol from plugin)
                                                  /tmp/ccGYWBCE.ltrans11.ltrans.o
                                                  obj/main/SPRACINGF3/telemetry/frsky.o (symbol from plugin)
GPS_hold                                          /tmp/ccGYWBCE.ltrans3.ltrans.o
                                                  obj/main/SPRACINGF3/flight/navigation.o (symbol from plugin)
                                                  /tmp/ccGYWBCE.ltrans2.ltrans.o
                                                  obj/main/SPRACINGF3/io/serial_msp.o (symbol from plugin)
GPS_home                                          /tmp/ccGYWBCE.ltrans5.ltrans.o
                                                  obj/main/SPRACINGF3/flight/navigation.o (symbol from plugin)
                                                  /tmp/ccGYWBCE.ltrans14.ltrans.o
                                                  /tmp/ccGYWBCE.ltrans11.ltrans.o
                                                  /tmp/ccGYWBCE.ltrans9.ltrans.o
                                                  /tmp/ccGYWBCE.ltrans3.ltrans.o
                                                  /tmp/ccGYWBCE.ltrans2.ltrans.o
                                                  obj/main/SPRACINGF3/io/serial_msp.o (symbol from plugin)
                                                  obj/main/SPRACINGF3/blackbox/blackbox.o (symbol from plugin)
                                                  obj/main/SPRACINGF3/telemetry/ltm.o (symbol from plugin)
GPS_numCh                                         /tmp/ccGYWBCE.ltrans2.ltrans.o
                                                  obj/main/SPRACINGF3/io/gps.o (symbol from plugin)
                                                  /tmp/ccGYWBCE.ltrans11.ltrans.o
                                                  obj/main/SPRACINGF3/io/serial_msp.o (symbol from plugin)
GPS_numSat                                        /tmp/ccGYWBCE.ltrans5.ltrans.o
                                                  obj/main/SPRACINGF3/io/gps.o (symbol from plugin)
                                                  /tmp/ccGYWBCE.ltrans23.ltrans.o
                                                  /tmp/ccGYWBCE.ltrans19.ltrans.o
                                                  /tmp/ccGYWBCE.ltrans18.ltrans.o
                                                  /tmp/ccGYWBCE.ltrans17.ltrans.o
                                                  /tmp/ccGYWBCE.ltrans14.ltrans.o
                                                  /tmp/ccGYWBCE.ltrans11.ltrans.o
                                                  /tmp/ccGYWBCE.ltrans9.ltrans.o
                                                  /tmp/ccGYWBCE.ltrans3.ltrans.o
                                                  /tmp/ccGYWBCE.ltrans2.ltrans.o
                                                  /tmp/ccGYWBCE.ltrans1.ltrans.o
                                                  obj/main/SPRACINGF3/io/serial_msp.o (symbol from plugin)
                                                  obj/main/SPRACINGF3/io/beeper.o (symbol from plugin)
                                                  obj/main/SPRACINGF3/flight/imu.o (symbol from plugin)
                                                  obj/main/SPRACINGF3/mw.o (symbol from plugin)
                                                  obj/main/SPRACINGF3/blackbox/blackbox.o (symbol from plugin)
                                                  obj/main/SPRACINGF3/telemetry/ltm.o (symbol from plugin)
                                                  obj/main/SPRACINGF3/telemetry/smartport.o (symbol from plugin)
                                                  obj/main/SPRACINGF3/telemetry/hott.o (symbol from plugin)
                                                  obj/main/SPRACINGF3/telemetry/frsky.o (symbol from plugin)
                                                  obj/main/SPRACINGF3/io/display.o (symbol from plugin)
                                                  obj/main/SPRACINGF3/flight/navigation.o (symbol from plugin)
GPS_packetCount                                   /tmp/ccGYWBCE.ltrans19.ltrans.o
                                                  obj/main/SPRACINGF3/io/gps.o (symbol from plugin)
                                                  /tmp/ccGYWBCE.ltrans11.ltrans.o
                                                  obj/main/SPRACINGF3/io/display.o (symbol from plugin)
GPS_reset_home_position                           /tmp/ccGYWBCE.ltrans14.ltrans.o
                                                  obj/main/SPRACINGF3/flight/navigation.o (symbol from plugin)
                                                  /tmp/ccGYWBCE.ltrans11.ltrans.o
                                                  /tmp/ccGYWBCE.ltrans3.ltrans.o
                                                  obj/main/SPRACINGF3/io/rc_controls.o (symbol from plugin)
GPS_reset_nav                                     obj/main/SPRACINGF3/flight/navigation.o (symbol from plugin)
GPS_scaleLonDown.lto_priv.524                     /tmp/ccGYWBCE.ltrans11.ltrans.o
                                                  /tmp/ccGYWBCE.ltrans14.ltrans.o
GPS_set_next_wp                                   /tmp/ccGYWBCE.ltrans14.ltrans.o
                                                  obj/main/SPRACINGF3/flight/navigation.o (symbol from plugin)
                                                  /tmp/ccGYWBCE.ltrans3.ltrans.o
                                                  /tmp/ccGYWBCE.ltrans2.ltrans.o
                                                  obj/main/SPRACINGF3/io/serial_msp.o (symbol from plugin)
GPS_speed                                         /tmp/ccGYWBCE.ltrans5.ltrans.o
                                                  obj/main/SPRACINGF3/io/gps.o (symbol from plugin)
                                                  /tmp/ccGYWBCE.ltrans19.ltrans.o
                                                  /tmp/ccGYWBCE.ltrans11.ltrans.o
                                                  /tmp/ccGYWBCE.ltrans9.ltrans.o
                                                  /tmp/ccGYWBCE.ltrans2.ltrans.o
                                                  /tmp/ccGYWBCE.ltrans1.ltrans.o
                                                  obj/main/SPRACINGF3/io/serial_msp.o (symbol from plugin)
                                                  obj/main/SPRACINGF3/flight/imu.o (symbol from plugin)
                                                  obj/main/SPRACINGF3/blackbox/blackbox.o (symbol from plugin)
                                                  obj/main/SPRACINGF3/telemetry/ltm.o (symbol from plugin)
                                                  obj/main/SPRACINGF3/telemetry/smartport.o (symbol from plugin)
                                                  obj/main/SPRACINGF3/telemetry/hott.o (symbol from plugin)
                                                  obj/main/SPRACINGF3/telemetry/frsky.o (symbol from plugin)
                                                  obj/main/SPRACINGF3/io/display.o (symbol from plugin)
GPS_svInfoReceivedCount                           /tmp/ccGYWBCE.ltrans19.ltrans.o
                                                  obj/main/SPRACINGF3/io/gps.o (symbol from plugin)
                                                  /tmp/ccGYWBCE.ltrans11.ltrans.o
                                                  obj/main/SPRACINGF3/io/display.o (symbol from plugin)
GPS_svinfo_chn                                    /tmp/ccGYWBCE.ltrans2.ltrans.o
                                                  obj/main/SPRACINGF3/io/gps.o (symbol from plugin)
                                                  /tmp/ccGYWBCE.ltrans11.ltrans.o
                                                  obj/main/SPRACINGF3/io/serial_msp.o (symbol from plugin)
GPS_svinfo_cno                                    /tmp/ccGYWBCE.ltrans2.ltrans.o
                                                  obj/main/SPRACINGF3/io/gps.o (symbol from plugin)
                                                  /tmp/ccGYWBCE.ltrans19.ltrans.o
                                                  /tmp/ccGYWBCE.ltrans11.ltrans.o
                                                  obj/main/SPRACINGF3/io/serial_msp.o (symbol from plugin)
                                                  obj/main/SPRACINGF3/io/display.o (symbol from plugin)
GPS_svinfo_quality                                /tmp/ccGYWBCE.ltrans2.ltrans.o
                                                  obj/main/SPRACINGF3/io/gps.o (symbol from plugin)
                                                  /tmp/ccGYWBCE.ltrans11.ltrans.o
                                                  obj/main/SPRACINGF3/io/serial_msp.o (symbol from plugin)
GPS_svinfo_svid                                   /tmp/ccGYWBCE.ltrans2.ltrans.o
                                                  obj/main/SPRACINGF3/io/gps.o (symbol from plugin)
                                                  /tmp/ccGYWBCE.ltrans11.ltrans.o
                                                  obj/main/SPRACINGF3/io/serial_msp.o (symbol from plugin)
GPS_update                                        /tmp/ccGYWBCE.ltrans2.ltrans.o
                                                  obj/main/SPRACINGF3/io/gps.o (symbol from plugin)
                                                  /tmp/ccGYWBCE.ltrans11.ltrans.o
                                                  obj/main/SPRACINGF3/io/serial_msp.o (symbol from plugin)
HRTIM_ADCTriggerConfig                            obj/main/SPRACINGF3/stm32f30x_hrtim.o (symbol from plugin)
HRTIM_BurstDMAConfig                              obj/main/SPRACINGF3/stm32f30x_hrtim.o (symbol from plugin)
HRTIM_BurstModeConfig                             obj/main/SPRACINGF3/stm32f30x_hrtim.o (symbol from plugin)
HRTIM_BurstModeCtl                                obj/main/SPRACINGF3/stm32f30x_hrtim.o (symbol from plugin)
HRTIM_ChopperModeConfig                           obj/main/SPRACINGF3/stm32f30x_hrtim.o (symbol from plugin)
HRTIM_ClearCommonFlag                             obj/main/SPRACINGF3/stm32f30x_hrtim.o (symbol from plugin)
HRTIM_ClearCommonITPendingBit                     obj/main/SPRACINGF3/stm32f30x_hrtim.o (symbol from plugin)
HRTIM_ClearFlag                                   obj/main/SPRACINGF3/stm32f30x_hrtim.o (symbol from plugin)
HRTIM_ClearITPendingBit                           obj/main/SPRACINGF3/stm32f30x_hrtim.o (symbol from plugin)
HRTIM_DLLCalibrationStart                         obj/main/SPRACINGF3/stm32f30x_hrtim.o (symbol from plugin)
HRTIM_DMACmd                                      obj/main/SPRACINGF3/stm32f30x_hrtim.o (symbol from plugin)
HRTIM_DeInit                                      obj/main/SPRACINGF3/stm32f30x_hrtim.o (symbol from plugin)
HRTIM_DeadTimeConfig                              obj/main/SPRACINGF3/stm32f30x_hrtim.o (symbol from plugin)
HRTIM_EventConfig                                 obj/main/SPRACINGF3/stm32f30x_hrtim.o (symbol from plugin)
HRTIM_EventPrescalerConfig                        obj/main/SPRACINGF3/stm32f30x_hrtim.o (symbol from plugin)
HRTIM_FaultConfig                                 obj/main/SPRACINGF3/stm32f30x_hrtim.o (symbol from plugin)
HRTIM_FaultModeCtl                                obj/main/SPRACINGF3/stm32f30x_hrtim.o (symbol from plugin)
HRTIM_FaultPrescalerConfig                        obj/main/SPRACINGF3/stm32f30x_hrtim.o (symbol from plugin)
HRTIM_GetBurstStatus                              obj/main/SPRACINGF3/stm32f30x_hrtim.o (symbol from plugin)
HRTIM_GetCapturedValue                            obj/main/SPRACINGF3/stm32f30x_hrtim.o (symbol from plugin)
HRTIM_GetCommonFlagStatus                         obj/main/SPRACINGF3/stm32f30x_hrtim.o (symbol from plugin)
HRTIM_GetCommonITStatus                           obj/main/SPRACINGF3/stm32f30x_hrtim.o (symbol from plugin)
HRTIM_GetCurrentPushPullStatus                    obj/main/SPRACINGF3/stm32f30x_hrtim.o (symbol from plugin)
HRTIM_GetDelayedProtectionStatus                  obj/main/SPRACINGF3/stm32f30x_hrtim.o (symbol from plugin)
HRTIM_GetFlagStatus                               obj/main/SPRACINGF3/stm32f30x_hrtim.o (symbol from plugin)
HRTIM_GetITStatus                                 obj/main/SPRACINGF3/stm32f30x_hrtim.o (symbol from plugin)
HRTIM_GetIdlePushPullStatus                       obj/main/SPRACINGF3/stm32f30x_hrtim.o (symbol from plugin)
HRTIM_ITCommonConfig                              obj/main/SPRACINGF3/stm32f30x_hrtim.o (symbol from plugin)
HRTIM_ITConfig                                    obj/main/SPRACINGF3/stm32f30x_hrtim.o (symbol from plugin)
HRTIM_MasterSetCompare                            obj/main/SPRACINGF3/stm32f30x_hrtim.o (symbol from plugin)
HRTIM_SimpleBaseStart                             obj/main/SPRACINGF3/stm32f30x_hrtim.o (symbol from plugin)
HRTIM_SimpleBaseStop                              obj/main/SPRACINGF3/stm32f30x_hrtim.o (symbol from plugin)
HRTIM_SimpleBase_Init                             obj/main/SPRACINGF3/stm32f30x_hrtim.o (symbol from plugin)
HRTIM_SimpleCaptureChannelConfig                  obj/main/SPRACINGF3/stm32f30x_hrtim.o (symbol from plugin)
HRTIM_SimpleCaptureStart                          obj/main/SPRACINGF3/stm32f30x_hrtim.o (symbol from plugin)
HRTIM_SimpleCaptureStop                           obj/main/SPRACINGF3/stm32f30x_hrtim.o (symbol from plugin)
HRTIM_SimpleCapture_Init                          obj/main/SPRACINGF3/stm32f30x_hrtim.o (symbol from plugin)
HRTIM_SimpleOCChannelConfig                       obj/main/SPRACINGF3/stm32f30x_hrtim.o (symbol from plugin)
HRTIM_SimpleOCStart                               obj/main/SPRACINGF3/stm32f30x_hrtim.o (symbol from plugin)
HRTIM_SimpleOCStop                                obj/main/SPRACINGF3/stm32f30x_hrtim.o (symbol from plugin)
HRTIM_SimpleOC_Init                               obj/main/SPRACINGF3/stm32f30x_hrtim.o (symbol from plugin)
HRTIM_SimpleOnePulseChannelConfig                 obj/main/SPRACINGF3/stm32f30x_hrtim.o (symbol from plugin)
HRTIM_SimpleOnePulseStart                         obj/main/SPRACINGF3/stm32f30x_hrtim.o (symbol from plugin)
HRTIM_SimpleOnePulseStop                          obj/main/SPRACINGF3/stm32f30x_hrtim.o (symbol from plugin)
HRTIM_SimpleOnePulse_Init                         obj/main/SPRACINGF3/stm32f30x_hrtim.o (symbol from plugin)
HRTIM_SimplePWMChannelConfig                      obj/main/SPRACINGF3/stm32f30x_hrtim.o (symbol from plugin)
HRTIM_SimplePWMStart                              obj/main/SPRACINGF3/stm32f30x_hrtim.o (symbol from plugin)
HRTIM_SimplePWMStop                               obj/main/SPRACINGF3/stm32f30x_hrtim.o (symbol from plugin)
HRTIM_SimplePWM_Init                              obj/main/SPRACINGF3/stm32f30x_hrtim.o (symbol from plugin)
HRTIM_SlaveSetCompare                             obj/main/SPRACINGF3/stm32f30x_hrtim.o (symbol from plugin)
HRTIM_SoftwareCapture                             obj/main/SPRACINGF3/stm32f30x_hrtim.o (symbol from plugin)
HRTIM_SoftwareReset                               obj/main/SPRACINGF3/stm32f30x_hrtim.o (symbol from plugin)
HRTIM_SoftwareUpdate                              obj/main/SPRACINGF3/stm32f30x_hrtim.o (symbol from plugin)
HRTIM_SynchronizationConfig                       obj/main/SPRACINGF3/stm32f30x_hrtim.o (symbol from plugin)
HRTIM_TimerEventFilteringConfig                   obj/main/SPRACINGF3/stm32f30x_hrtim.o (symbol from plugin)
HRTIM_WaveformCaptureConfig                       obj/main/SPRACINGF3/stm32f30x_hrtim.o (symbol from plugin)
HRTIM_WaveformCompareConfig                       obj/main/SPRACINGF3/stm32f30x_hrtim.o (symbol from plugin)
HRTIM_WaveformCounterStart                        obj/main/SPRACINGF3/stm32f30x_hrtim.o (symbol from plugin)
HRTIM_WaveformCounterStop                         obj/main/SPRACINGF3/stm32f30x_hrtim.o (symbol from plugin)
HRTIM_WaveformGetOutputLevel                      obj/main/SPRACINGF3/stm32f30x_hrtim.o (symbol from plugin)
HRTIM_WaveformGetOutputState                      obj/main/SPRACINGF3/stm32f30x_hrtim.o (symbol from plugin)
HRTIM_WaveformOutputConfig                        obj/main/SPRACINGF3/stm32f30x_hrtim.o (symbol from plugin)
HRTIM_WaveformOutputStart                         obj/main/SPRACINGF3/stm32f30x_hrtim.o (symbol from plugin)
HRTIM_WaveformOutputStop                          obj/main/SPRACINGF3/stm32f30x_hrtim.o (symbol from plugin)
HRTIM_WaveformSetOutputLevel                      obj/main/SPRACINGF3/stm32f30x_hrtim.o (symbol from plugin)
HRTIM_WaveformTimerConfig                         obj/main/SPRACINGF3/stm32f30x_hrtim.o (symbol from plugin)
HRTIM_Waveform_Init                               obj/main/SPRACINGF3/stm32f30x_hrtim.o (symbol from plugin)
HardFault_Handler                                 /tmp/ccGYWBCE.ltrans18.ltrans.o
                                                  obj/main/SPRACINGF3/main.o (symbol from plugin)
                                                  obj/main/SPRACINGF3/startup_stm32f30x_md_gcc.o
I2C1_ER_IRQHandler                                obj/main/SPRACINGF3/startup_stm32f30x_md_gcc.o
I2C1_EV_IRQHandler                                obj/main/SPRACINGF3/startup_stm32f30x_md_gcc.o
I2C2_ER_IRQHandler                                obj/main/SPRACINGF3/startup_stm32f30x_md_gcc.o
I2C2_EV_IRQHandler                                obj/main/SPRACINGF3/startup_stm32f30x_md_gcc.o
I2C_10BitAddressHeaderCmd                         obj/main/SPRACINGF3/stm32f30x_i2c.o (symbol from plugin)
I2C_10BitAddressingModeCmd                        obj/main/SPRACINGF3/stm32f30x_i2c.o (symbol from plugin)
I2C_AcknowledgeConfig                             obj/main/SPRACINGF3/stm32f30x_i2c.o (symbol from plugin)
I2C_AutoEndCmd                                    obj/main/SPRACINGF3/stm32f30x_i2c.o (symbol from plugin)
I2C_CalculatePEC                                  obj/main/SPRACINGF3/stm32f30x_i2c.o (symbol from plugin)
I2C_ClearFlag                                     obj/main/SPRACINGF3/stm32f30x_i2c.o (symbol from plugin)
                                                  obj/main/SPRACINGF3/drivers/bus_i2c_stm32f30x.o (symbol from plugin)
I2C_ClearITPendingBit                             obj/main/SPRACINGF3/stm32f30x_i2c.o (symbol from plugin)
I2C_ClockTimeoutCmd                               obj/main/SPRACINGF3/stm32f30x_i2c.o (symbol from plugin)
I2C_Cmd                                           obj/main/SPRACINGF3/stm32f30x_i2c.o (symbol from plugin)
                                                  obj/main/SPRACINGF3/drivers/bus_i2c_stm32f30x.o (symbol from plugin)
I2C_DMACmd                                        obj/main/SPRACINGF3/stm32f30x_i2c.o (symbol from plugin)
I2C_DeInit                                        obj/main/SPRACINGF3/stm32f30x_i2c.o (symbol from plugin)
I2C_DualAddressCmd                                obj/main/SPRACINGF3/stm32f30x_i2c.o (symbol from plugin)
I2C_ExtendedClockTimeoutCmd                       obj/main/SPRACINGF3/stm32f30x_i2c.o (symbol from plugin)
I2C_GeneralCallCmd                                obj/main/SPRACINGF3/stm32f30x_i2c.o (symbol from plugin)
I2C_GenerateSTART                                 obj/main/SPRACINGF3/stm32f30x_i2c.o (symbol from plugin)
I2C_GenerateSTOP                                  obj/main/SPRACINGF3/stm32f30x_i2c.o (symbol from plugin)
I2C_GetAddressMatched                             obj/main/SPRACINGF3/stm32f30x_i2c.o (symbol from plugin)
I2C_GetFlagStatus                                 obj/main/SPRACINGF3/stm32f30x_i2c.o (symbol from plugin)
                                                  obj/main/SPRACINGF3/drivers/bus_i2c_stm32f30x.o (symbol from plugin)
I2C_GetITStatus                                   obj/main/SPRACINGF3/stm32f30x_i2c.o (symbol from plugin)
I2C_GetPEC                                        obj/main/SPRACINGF3/stm32f30x_i2c.o (symbol from plugin)
I2C_GetTransferDirection                          obj/main/SPRACINGF3/stm32f30x_i2c.o (symbol from plugin)
I2C_ITConfig                                      obj/main/SPRACINGF3/stm32f30x_i2c.o (symbol from plugin)
I2C_IdleClockTimeoutCmd                           obj/main/SPRACINGF3/stm32f30x_i2c.o (symbol from plugin)
I2C_Init                                          /tmp/ccGYWBCE.ltrans16.ltrans.o
                                                  obj/main/SPRACINGF3/stm32f30x_i2c.o (symbol from plugin)
                                                  /tmp/ccGYWBCE.ltrans0.ltrans.o
                                                  obj/main/SPRACINGF3/drivers/bus_i2c_stm32f30x.o (symbol from plugin)
I2C_MasterRequestConfig                           obj/main/SPRACINGF3/stm32f30x_i2c.o (symbol from plugin)
I2C_NumberOfBytesConfig                           obj/main/SPRACINGF3/stm32f30x_i2c.o (symbol from plugin)
I2C_OwnAddress2Config                             obj/main/SPRACINGF3/stm32f30x_i2c.o (symbol from plugin)
I2C_PECRequestCmd                                 obj/main/SPRACINGF3/stm32f30x_i2c.o (symbol from plugin)
I2C_ReadRegister                                  obj/main/SPRACINGF3/stm32f30x_i2c.o (symbol from plugin)
I2C_ReceiveData                                   obj/main/SPRACINGF3/stm32f30x_i2c.o (symbol from plugin)
                                                  obj/main/SPRACINGF3/drivers/bus_i2c_stm32f30x.o (symbol from plugin)
I2C_ReloadCmd                                     obj/main/SPRACINGF3/stm32f30x_i2c.o (symbol from plugin)
I2C_SMBusAlertCmd                                 obj/main/SPRACINGF3/stm32f30x_i2c.o (symbol from plugin)
I2C_SendData                                      obj/main/SPRACINGF3/stm32f30x_i2c.o (symbol from plugin)
                                                  obj/main/SPRACINGF3/drivers/bus_i2c_stm32f30x.o (symbol from plugin)
I2C_SlaveAddressConfig                            obj/main/SPRACINGF3/stm32f30x_i2c.o (symbol from plugin)
I2C_SlaveByteControlCmd                           obj/main/SPRACINGF3/stm32f30x_i2c.o (symbol from plugin)
I2C_SoftwareResetCmd                              obj/main/SPRACINGF3/stm32f30x_i2c.o (symbol from plugin)
I2C_StopModeCmd                                   obj/main/SPRACINGF3/stm32f30x_i2c.o (symbol from plugin)
I2C_StretchClockCmd                               obj/main/SPRACINGF3/stm32f30x_i2c.o (symbol from plugin)
I2C_StructInit                                    obj/main/SPRACINGF3/stm32f30x_i2c.o (symbol from plugin)
                                                  obj/main/SPRACINGF3/drivers/bus_i2c_stm32f30x.o (symbol from plugin)
I2C_TimeoutAConfig                                obj/main/SPRACINGF3/stm32f30x_i2c.o (symbol from plugin)
I2C_TimeoutBConfig                                obj/main/SPRACINGF3/stm32f30x_i2c.o (symbol from plugin)
I2C_TransferHandling                              obj/main/SPRACINGF3/stm32f30x_i2c.o (symbol from plugin)
                                                  obj/main/SPRACINGF3/drivers/bus_i2c_stm32f30x.o (symbol from plugin)
I2Cx.lto_priv.547                                 /tmp/ccGYWBCE.ltrans0.ltrans.o
                                                  /tmp/ccGYWBCE.ltrans4.ltrans.o
I2S_Cmd                                           obj/main/SPRACINGF3/stm32f30x_spi.o (symbol from plugin)
I2S_FullDuplexConfig                              obj/main/SPRACINGF3/stm32f30x_spi.o (symbol from plugin)
I2S_Init                                          obj/main/SPRACINGF3/stm32f30x_spi.o (symbol from plugin)
I2S_StructInit                                    obj/main/SPRACINGF3/stm32f30x_spi.o (symbol from plugin)
IWDG_Enable                                       obj/main/SPRACINGF3/stm32f30x_iwdg.o (symbol from plugin)
IWDG_GetFlagStatus                                obj/main/SPRACINGF3/stm32f30x_iwdg.o (symbol from plugin)
IWDG_ReloadCounter                                obj/main/SPRACINGF3/stm32f30x_iwdg.o (symbol from plugin)
IWDG_SetPrescaler                                 obj/main/SPRACINGF3/stm32f30x_iwdg.o (symbol from plugin)
IWDG_SetReload                                    obj/main/SPRACINGF3/stm32f30x_iwdg.o (symbol from plugin)
IWDG_SetWindowValue                               obj/main/SPRACINGF3/stm32f30x_iwdg.o (symbol from plugin)
IWDG_WriteAccessCmd                               obj/main/SPRACINGF3/stm32f30x_iwdg.o (symbol from plugin)
InflightcalibratingA                              /tmp/ccGYWBCE.ltrans3.ltrans.o
                                                  obj/main/SPRACINGF3/mw.o (symbol from plugin)
                                                  /tmp/ccGYWBCE.ltrans25.ltrans.o
                                                  obj/main/SPRACINGF3/sensors/acceleration.o (symbol from plugin)
LCDprint                                          obj/main/SPRACINGF3/io/display.o (symbol from plugin)
MAG_DATA_READY_EXTI_Handler                       obj/main/SPRACINGF3/drivers/compass_hmc5883l.o (symbol from plugin)
MPU_DATA_READY_EXTI_Handler                       obj/main/SPRACINGF3/drivers/accgyro_mpu.o (symbol from plugin)
MemManage_Handler                                 obj/main/SPRACINGF3/startup_stm32f30x_md_gcc.o
NMI_Handler                                       obj/main/SPRACINGF3/startup_stm32f30x_md_gcc.o
NVIC_Init                                         obj/main/SPRACINGF3/stm32f30x_misc.o (symbol from plugin)
                                                  obj/main/SPRACINGF3/drivers/sonar_hcsr04.o (symbol from plugin)
                                                  obj/main/SPRACINGF3/drivers/light_ws2811strip_stm32f30x.o (symbol from plugin)
                                                  obj/main/SPRACINGF3/drivers/compass_hmc5883l.o (symbol from plugin)
                                                  obj/main/SPRACINGF3/drivers/accgyro_mpu.o (symbol from plugin)
                                                  obj/main/SPRACINGF3/drivers/timer.o (symbol from plugin)
                                                  obj/main/SPRACINGF3/drivers/serial_uart_stm32f30x.o (symbol from plugin)
NVIC_Init.part.0.constprop.132                    /tmp/ccGYWBCE.ltrans16.ltrans.o
                                                  /tmp/ccGYWBCE.ltrans21.ltrans.o
                                                  /tmp/ccGYWBCE.ltrans15.ltrans.o
                                                  /tmp/ccGYWBCE.ltrans4.ltrans.o
                                                  /tmp/ccGYWBCE.ltrans0.ltrans.o
NVIC_PriorityGroupConfig                          obj/main/SPRACINGF3/stm32f30x_misc.o (symbol from plugin)
                                                  obj/main/SPRACINGF3/drivers/system.o (symbol from plugin)
NVIC_SetVectorTable                               obj/main/SPRACINGF3/stm32f30x_misc.o (symbol from plugin)
NVIC_SystemLPConfig                               obj/main/SPRACINGF3/stm32f30x_misc.o (symbol from plugin)
OPAMP_Cmd                                         obj/main/SPRACINGF3/stm32f30x_opamp.o (symbol from plugin)
OPAMP_DeInit                                      obj/main/SPRACINGF3/stm32f30x_opamp.o (symbol from plugin)
OPAMP_GetOutputLevel                              obj/main/SPRACINGF3/stm32f30x_opamp.o (symbol from plugin)
OPAMP_Init                                        obj/main/SPRACINGF3/stm32f30x_opamp.o (symbol from plugin)
OPAMP_LockConfig                                  obj/main/SPRACINGF3/stm32f30x_opamp.o (symbol from plugin)
OPAMP_OffsetTrimConfig                            obj/main/SPRACINGF3/stm32f30x_opamp.o (symbol from plugin)
OPAMP_OffsetTrimModeSelect                        obj/main/SPRACINGF3/stm32f30x_opamp.o (symbol from plugin)
OPAMP_PGAConfig                                   obj/main/SPRACINGF3/stm32f30x_opamp.o (symbol from plugin)
OPAMP_StartCalibration                            obj/main/SPRACINGF3/stm32f30x_opamp.o (symbol from plugin)
OPAMP_StructInit                                  obj/main/SPRACINGF3/stm32f30x_opamp.o (symbol from plugin)
OPAMP_TimerControlledMuxCmd                       obj/main/SPRACINGF3/stm32f30x_opamp.o (symbol from plugin)
OPAMP_TimerControlledMuxConfig                    obj/main/SPRACINGF3/stm32f30x_opamp.o (symbol from plugin)
OPAMP_VrefConfig                                  obj/main/SPRACINGF3/stm32f30x_opamp.o (symbol from plugin)
OPAMP_VrefConnectADCCmd                           obj/main/SPRACINGF3/stm32f30x_opamp.o (symbol from plugin)
OPAMP_VrefConnectNonInvertingInput                obj/main/SPRACINGF3/stm32f30x_opamp.o (symbol from plugin)
PIDweight                                         /tmp/ccGYWBCE.ltrans13.ltrans.o
                                                  obj/main/SPRACINGF3/flight/pid.o (symbol from plugin)
                                                  /tmp/ccGYWBCE.ltrans1.ltrans.o
                                                  obj/main/SPRACINGF3/mw.o (symbol from plugin)
PVD_IRQHandler                                    obj/main/SPRACINGF3/startup_stm32f30x_md_gcc.o
PWR_BackupAccessCmd                               obj/main/SPRACINGF3/stm32f30x_pwr.o (symbol from plugin)
PWR_ClearFlag                                     obj/main/SPRACINGF3/stm32f30x_pwr.o (symbol from plugin)
PWR_DeInit                                        obj/main/SPRACINGF3/stm32f30x_pwr.o (symbol from plugin)
PWR_EnterSTANDBYMode                              obj/main/SPRACINGF3/stm32f30x_pwr.o (symbol from plugin)
PWR_EnterSTOPMode                                 obj/main/SPRACINGF3/stm32f30x_pwr.o (symbol from plugin)
PWR_EnterSleepMode                                obj/main/SPRACINGF3/stm32f30x_pwr.o (symbol from plugin)
PWR_GetFlagStatus                                 obj/main/SPRACINGF3/stm32f30x_pwr.o (symbol from plugin)
PWR_PVDCmd                                        obj/main/SPRACINGF3/stm32f30x_pwr.o (symbol from plugin)
PWR_PVDLevelConfig                                obj/main/SPRACINGF3/stm32f30x_pwr.o (symbol from plugin)
PWR_WakeUpPinCmd                                  obj/main/SPRACINGF3/stm32f30x_pwr.o (symbol from plugin)
PendSV_Handler                                    obj/main/SPRACINGF3/startup_stm32f30x_md_gcc.o
RCC_ADCCLKConfig                                  obj/main/SPRACINGF3/stm32f30x_rcc.o (symbol from plugin)
                                                  obj/main/SPRACINGF3/drivers/adc_stm32f30x.o (symbol from plugin)
RCC_AHBPeriphClockCmd                             obj/main/SPRACINGF3/stm32f30x_rcc.o (symbol from plugin)
                                                  obj/main/SPRACINGF3/drivers/sonar_hcsr04.o (symbol from plugin)
                                                  obj/main/SPRACINGF3/drivers/light_ws2811strip_stm32f30x.o (symbol from plugin)
                                                  obj/main/SPRACINGF3/drivers/compass_hmc5883l.o (symbol from plugin)
                                                  obj/main/SPRACINGF3/drivers/accgyro_mpu.o (symbol from plugin)
                                                  obj/main/SPRACINGF3/drivers/timer.o (symbol from plugin)
                                                  obj/main/SPRACINGF3/drivers/system_stm32f30x.o (symbol from plugin)
                                                  obj/main/SPRACINGF3/drivers/sound_beeper_stm32f30x.o (symbol from plugin)
                                                  obj/main/SPRACINGF3/drivers/serial_uart_stm32f30x.o (symbol from plugin)
                                                  obj/main/SPRACINGF3/drivers/light_led_stm32f30x.o (symbol from plugin)
                                                  obj/main/SPRACINGF3/drivers/bus_spi.o (symbol from plugin)
                                                  obj/main/SPRACINGF3/drivers/bus_i2c_stm32f30x.o (symbol from plugin)
                                                  obj/main/SPRACINGF3/drivers/adc_stm32f30x.o (symbol from plugin)
RCC_AHBPeriphResetCmd                             obj/main/SPRACINGF3/stm32f30x_rcc.o (symbol from plugin)
                                                  obj/main/SPRACINGF3/stm32f30x_adc.o (symbol from plugin)
                                                  obj/main/SPRACINGF3/stm32f30x_gpio.o (symbol from plugin)
RCC_APB1PeriphClockCmd                            obj/main/SPRACINGF3/stm32f30x_rcc.o (symbol from plugin)
                                                  obj/main/SPRACINGF3/drivers/timer.o (symbol from plugin)
                                                  obj/main/SPRACINGF3/drivers/serial_uart_stm32f30x.o (symbol from plugin)
                                                  obj/main/SPRACINGF3/drivers/bus_spi.o (symbol from plugin)
                                                  obj/main/SPRACINGF3/drivers/bus_i2c_stm32f30x.o (symbol from plugin)
RCC_APB1PeriphResetCmd                            obj/main/SPRACINGF3/stm32f30x_rcc.o (symbol from plugin)
                                                  obj/main/SPRACINGF3/stm32f30x_wwdg.o (symbol from plugin)
                                                  obj/main/SPRACINGF3/stm32f30x_tim.o (symbol from plugin)
                                                  obj/main/SPRACINGF3/stm32f30x_usart.o (symbol from plugin)
                                                  obj/main/SPRACINGF3/stm32f30x_spi.o (symbol from plugin)
                                                  obj/main/SPRACINGF3/stm32f30x_i2c.o (symbol from plugin)
                                                  obj/main/SPRACINGF3/stm32f30x_pwr.o (symbol from plugin)
                                                  obj/main/SPRACINGF3/stm32f30x_dac.o (symbol from plugin)
                                                  obj/main/SPRACINGF3/drivers/bus_spi.o (symbol from plugin)
RCC_APB2PeriphClockCmd                            obj/main/SPRACINGF3/stm32f30x_rcc.o (symbol from plugin)
                                                  obj/main/SPRACINGF3/drivers/sonar_hcsr04.o (symbol from plugin)
                                                  obj/main/SPRACINGF3/drivers/light_ws2811strip_stm32f30x.o (symbol from plugin)
                                                  obj/main/SPRACINGF3/drivers/compass_hmc5883l.o (symbol from plugin)
                                                  obj/main/SPRACINGF3/drivers/accgyro_mpu.o (symbol from plugin)
                                                  obj/main/SPRACINGF3/drivers/timer.o (symbol from plugin)
                                                  obj/main/SPRACINGF3/drivers/serial_uart_stm32f30x.o (symbol from plugin)
RCC_APB2PeriphResetCmd                            obj/main/SPRACINGF3/stm32f30x_rcc.o (symbol from plugin)
                                                  obj/main/SPRACINGF3/stm32f30x_hrtim.o (symbol from plugin)
                                                  obj/main/SPRACINGF3/stm32f30x_tim.o (symbol from plugin)
                                                  obj/main/SPRACINGF3/stm32f30x_usart.o (symbol from plugin)
                                                  obj/main/SPRACINGF3/stm32f30x_spi.o (symbol from plugin)
RCC_AdjustHSICalibrationValue                     obj/main/SPRACINGF3/stm32f30x_rcc.o (symbol from plugin)
RCC_BackupResetCmd                                obj/main/SPRACINGF3/stm32f30x_rcc.o (symbol from plugin)
RCC_ClearFlag                                     obj/main/SPRACINGF3/stm32f30x_rcc.o (symbol from plugin)
                                                  obj/main/SPRACINGF3/drivers/system.o (symbol from plugin)
RCC_ClearITPendingBit                             obj/main/SPRACINGF3/stm32f30x_rcc.o (symbol from plugin)
RCC_ClockSecuritySystemCmd                        obj/main/SPRACINGF3/stm32f30x_rcc.o (symbol from plugin)
RCC_DeInit                                        obj/main/SPRACINGF3/stm32f30x_rcc.o (symbol from plugin)
RCC_GetClocksFreq                                 /tmp/ccGYWBCE.ltrans8.ltrans.o
                                                  obj/main/SPRACINGF3/stm32f30x_rcc.o (symbol from plugin)
                                                  /tmp/ccGYWBCE.ltrans4.ltrans.o
                                                  /tmp/ccGYWBCE.ltrans0.ltrans.o
                                                  obj/main/SPRACINGF3/stm32f30x_usart.o (symbol from plugin)
                                                  obj/main/SPRACINGF3/stm32f30x_spi.o (symbol from plugin)
                                                  obj/main/SPRACINGF3/drivers/system.o (symbol from plugin)
RCC_GetFlagStatus                                 obj/main/SPRACINGF3/stm32f30x_rcc.o (symbol from plugin)
RCC_GetITStatus                                   obj/main/SPRACINGF3/stm32f30x_rcc.o (symbol from plugin)
RCC_GetSYSCLKSource                               obj/main/SPRACINGF3/stm32f30x_rcc.o (symbol from plugin)
RCC_HCLKConfig                                    obj/main/SPRACINGF3/stm32f30x_rcc.o (symbol from plugin)
RCC_HRTIM1CLKConfig                               obj/main/SPRACINGF3/stm32f30x_rcc.o (symbol from plugin)
RCC_HSEConfig                                     obj/main/SPRACINGF3/stm32f30x_rcc.o (symbol from plugin)
RCC_HSICmd                                        obj/main/SPRACINGF3/stm32f30x_rcc.o (symbol from plugin)
RCC_I2CCLKConfig                                  obj/main/SPRACINGF3/stm32f30x_rcc.o (symbol from plugin)
                                                  obj/main/SPRACINGF3/drivers/bus_i2c_stm32f30x.o (symbol from plugin)
RCC_I2SCLKConfig                                  obj/main/SPRACINGF3/stm32f30x_rcc.o (symbol from plugin)
RCC_IRQHandler                                    obj/main/SPRACINGF3/startup_stm32f30x_md_gcc.o
RCC_ITConfig                                      obj/main/SPRACINGF3/stm32f30x_rcc.o (symbol from plugin)
RCC_LSEConfig                                     obj/main/SPRACINGF3/stm32f30x_rcc.o (symbol from plugin)
RCC_LSEDriveConfig                                obj/main/SPRACINGF3/stm32f30x_rcc.o (symbol from plugin)
RCC_LSICmd                                        obj/main/SPRACINGF3/stm32f30x_rcc.o (symbol from plugin)
RCC_MCOConfig                                     obj/main/SPRACINGF3/stm32f30x_rcc.o (symbol from plugin)
RCC_PCLK1Config                                   obj/main/SPRACINGF3/stm32f30x_rcc.o (symbol from plugin)
RCC_PCLK2Config                                   obj/main/SPRACINGF3/stm32f30x_rcc.o (symbol from plugin)
RCC_PLLCmd                                        obj/main/SPRACINGF3/stm32f30x_rcc.o (symbol from plugin)
RCC_PLLConfig                                     obj/main/SPRACINGF3/stm32f30x_rcc.o (symbol from plugin)
RCC_PREDIV1Config                                 obj/main/SPRACINGF3/stm32f30x_rcc.o (symbol from plugin)
RCC_RTCCLKCmd                                     obj/main/SPRACINGF3/stm32f30x_rcc.o (symbol from plugin)
RCC_RTCCLKConfig                                  obj/main/SPRACINGF3/stm32f30x_rcc.o (symbol from plugin)
RCC_SYSCLKConfig                                  obj/main/SPRACINGF3/stm32f30x_rcc.o (symbol from plugin)
RCC_TIMCLKConfig                                  obj/main/SPRACINGF3/stm32f30x_rcc.o (symbol from plugin)
RCC_USARTCLKConfig                                obj/main/SPRACINGF3/stm32f30x_rcc.o (symbol from plugin)
RCC_USBCLKConfig                                  obj/main/SPRACINGF3/stm32f30x_rcc.o (symbol from plugin)
RCC_WaitForHSEStartUp                             obj/main/SPRACINGF3/stm32f30x_rcc.o (symbol from plugin)
RTC_AlarmCmd                                      obj/main/SPRACINGF3/stm32f30x_rtc.o (symbol from plugin)
RTC_AlarmStructInit                               obj/main/SPRACINGF3/stm32f30x_rtc.o (symbol from plugin)
RTC_AlarmSubSecondConfig                          obj/main/SPRACINGF3/stm32f30x_rtc.o (symbol from plugin)
RTC_Alarm_IRQHandler                              obj/main/SPRACINGF3/startup_stm32f30x_md_gcc.o
RTC_BypassShadowCmd                               obj/main/SPRACINGF3/stm32f30x_rtc.o (symbol from plugin)
RTC_CalibOutputCmd                                obj/main/SPRACINGF3/stm32f30x_rtc.o (symbol from plugin)
RTC_CalibOutputConfig                             obj/main/SPRACINGF3/stm32f30x_rtc.o (symbol from plugin)
RTC_ClearFlag                                     obj/main/SPRACINGF3/stm32f30x_rtc.o (symbol from plugin)
RTC_ClearITPendingBit                             obj/main/SPRACINGF3/stm32f30x_rtc.o (symbol from plugin)
RTC_DateStructInit                                obj/main/SPRACINGF3/stm32f30x_rtc.o (symbol from plugin)
RTC_DayLightSavingConfig                          obj/main/SPRACINGF3/stm32f30x_rtc.o (symbol from plugin)
RTC_DeInit                                        obj/main/SPRACINGF3/stm32f30x_rtc.o (symbol from plugin)
RTC_EnterInitMode                                 obj/main/SPRACINGF3/stm32f30x_rtc.o (symbol from plugin)
RTC_ExitInitMode                                  obj/main/SPRACINGF3/stm32f30x_rtc.o (symbol from plugin)
RTC_GetAlarm                                      obj/main/SPRACINGF3/stm32f30x_rtc.o (symbol from plugin)
RTC_GetAlarmSubSecond                             obj/main/SPRACINGF3/stm32f30x_rtc.o (symbol from plugin)
RTC_GetDate                                       obj/main/SPRACINGF3/stm32f30x_rtc.o (symbol from plugin)
RTC_GetFlagStatus                                 obj/main/SPRACINGF3/stm32f30x_rtc.o (symbol from plugin)
RTC_GetITStatus                                   obj/main/SPRACINGF3/stm32f30x_rtc.o (symbol from plugin)
RTC_GetStoreOperation                             obj/main/SPRACINGF3/stm32f30x_rtc.o (symbol from plugin)
RTC_GetSubSecond                                  obj/main/SPRACINGF3/stm32f30x_rtc.o (symbol from plugin)
RTC_GetTime                                       obj/main/SPRACINGF3/stm32f30x_rtc.o (symbol from plugin)
RTC_GetTimeStamp                                  obj/main/SPRACINGF3/stm32f30x_rtc.o (symbol from plugin)
RTC_GetTimeStampSubSecond                         obj/main/SPRACINGF3/stm32f30x_rtc.o (symbol from plugin)
RTC_GetWakeUpCounter                              obj/main/SPRACINGF3/stm32f30x_rtc.o (symbol from plugin)
RTC_ITConfig                                      obj/main/SPRACINGF3/stm32f30x_rtc.o (symbol from plugin)
RTC_Init                                          obj/main/SPRACINGF3/stm32f30x_rtc.o (symbol from plugin)
RTC_OutputConfig                                  obj/main/SPRACINGF3/stm32f30x_rtc.o (symbol from plugin)
RTC_OutputTypeConfig                              obj/main/SPRACINGF3/stm32f30x_rtc.o (symbol from plugin)
RTC_ReadBackupRegister                            obj/main/SPRACINGF3/stm32f30x_rtc.o (symbol from plugin)
RTC_RefClockCmd                                   obj/main/SPRACINGF3/stm32f30x_rtc.o (symbol from plugin)
RTC_SetAlarm                                      obj/main/SPRACINGF3/stm32f30x_rtc.o (symbol from plugin)
RTC_SetDate                                       obj/main/SPRACINGF3/stm32f30x_rtc.o (symbol from plugin)
RTC_SetTime                                       obj/main/SPRACINGF3/stm32f30x_rtc.o (symbol from plugin)
RTC_SetWakeUpCounter                              obj/main/SPRACINGF3/stm32f30x_rtc.o (symbol from plugin)
RTC_SmoothCalibConfig                             obj/main/SPRACINGF3/stm32f30x_rtc.o (symbol from plugin)
RTC_StructInit                                    obj/main/SPRACINGF3/stm32f30x_rtc.o (symbol from plugin)
RTC_SynchroShiftConfig                            obj/main/SPRACINGF3/stm32f30x_rtc.o (symbol from plugin)
RTC_TamperCmd                                     obj/main/SPRACINGF3/stm32f30x_rtc.o (symbol from plugin)
RTC_TamperFilterConfig                            obj/main/SPRACINGF3/stm32f30x_rtc.o (symbol from plugin)
RTC_TamperPinsPrechargeDuration                   obj/main/SPRACINGF3/stm32f30x_rtc.o (symbol from plugin)
RTC_TamperPullUpCmd                               obj/main/SPRACINGF3/stm32f30x_rtc.o (symbol from plugin)
RTC_TamperSamplingFreqConfig                      obj/main/SPRACINGF3/stm32f30x_rtc.o (symbol from plugin)
RTC_TamperTriggerConfig                           obj/main/SPRACINGF3/stm32f30x_rtc.o (symbol from plugin)
RTC_TimeStampCmd                                  obj/main/SPRACINGF3/stm32f30x_rtc.o (symbol from plugin)
RTC_TimeStampOnTamperDetectionCmd                 obj/main/SPRACINGF3/stm32f30x_rtc.o (symbol from plugin)
RTC_TimeStructInit                                obj/main/SPRACINGF3/stm32f30x_rtc.o (symbol from plugin)
RTC_WKUP_IRQHandler                               obj/main/SPRACINGF3/startup_stm32f30x_md_gcc.o
RTC_WaitForSynchro                                obj/main/SPRACINGF3/stm32f30x_rtc.o (symbol from plugin)
RTC_WakeUpClockConfig                             obj/main/SPRACINGF3/stm32f30x_rtc.o (symbol from plugin)
RTC_WakeUpCmd                                     obj/main/SPRACINGF3/stm32f30x_rtc.o (symbol from plugin)
RTC_WriteBackupRegister                           obj/main/SPRACINGF3/stm32f30x_rtc.o (symbol from plugin)
RTC_WriteProtectionCmd                            obj/main/SPRACINGF3/stm32f30x_rtc.o (symbol from plugin)
Reset_Handler                                     obj/main/SPRACINGF3/startup_stm32f30x_md_gcc.o
SPI1_IRQHandler                                   obj/main/SPRACINGF3/startup_stm32f30x_md_gcc.o
SPI2_IRQHandler                                   obj/main/SPRACINGF3/startup_stm32f30x_md_gcc.o
SPI3_IRQHandler                                   obj/main/SPRACINGF3/startup_stm32f30x_md_gcc.o
SPI_BiDirectionalLineConfig                       obj/main/SPRACINGF3/stm32f30x_spi.o (symbol from plugin)
SPI_CRCLengthConfig                               obj/main/SPRACINGF3/stm32f30x_spi.o (symbol from plugin)
SPI_CalculateCRC                                  obj/main/SPRACINGF3/stm32f30x_spi.o (symbol from plugin)
SPI_Cmd                                           obj/main/SPRACINGF3/stm32f30x_spi.o (symbol from plugin)
                                                  obj/main/SPRACINGF3/drivers/bus_spi.o (symbol from plugin)
SPI_DataSizeConfig                                obj/main/SPRACINGF3/stm32f30x_spi.o (symbol from plugin)
SPI_GetCRC                                        obj/main/SPRACINGF3/stm32f30x_spi.o (symbol from plugin)
SPI_GetCRCPolynomial                              obj/main/SPRACINGF3/stm32f30x_spi.o (symbol from plugin)
SPI_GetReceptionFIFOStatus                        obj/main/SPRACINGF3/stm32f30x_spi.o (symbol from plugin)
SPI_GetTransmissionFIFOStatus                     obj/main/SPRACINGF3/stm32f30x_spi.o (symbol from plugin)
                                                  obj/main/SPRACINGF3/drivers/bus_spi.o (symbol from plugin)
SPI_I2S_ClearFlag                                 obj/main/SPRACINGF3/stm32f30x_spi.o (symbol from plugin)
SPI_I2S_DMACmd                                    obj/main/SPRACINGF3/stm32f30x_spi.o (symbol from plugin)
SPI_I2S_DeInit                                    obj/main/SPRACINGF3/stm32f30x_spi.o (symbol from plugin)
                                                  obj/main/SPRACINGF3/drivers/bus_spi.o (symbol from plugin)
SPI_I2S_GetFlagStatus                             obj/main/SPRACINGF3/stm32f30x_spi.o (symbol from plugin)
                                                  obj/main/SPRACINGF3/drivers/bus_spi.o (symbol from plugin)
SPI_I2S_GetITStatus                               obj/main/SPRACINGF3/stm32f30x_spi.o (symbol from plugin)
SPI_I2S_ITConfig                                  obj/main/SPRACINGF3/stm32f30x_spi.o (symbol from plugin)
SPI_I2S_ReceiveData16                             obj/main/SPRACINGF3/stm32f30x_spi.o (symbol from plugin)
SPI_I2S_SendData16                                obj/main/SPRACINGF3/stm32f30x_spi.o (symbol from plugin)
SPI_Init                                          obj/main/SPRACINGF3/stm32f30x_spi.o (symbol from plugin)
                                                  obj/main/SPRACINGF3/drivers/bus_spi.o (symbol from plugin)
SPI_LastDMATransferCmd                            obj/main/SPRACINGF3/stm32f30x_spi.o (symbol from plugin)
SPI_NSSInternalSoftwareConfig                     obj/main/SPRACINGF3/stm32f30x_spi.o (symbol from plugin)
SPI_NSSPulseModeCmd                               obj/main/SPRACINGF3/stm32f30x_spi.o (symbol from plugin)
SPI_ReceiveData8                                  obj/main/SPRACINGF3/stm32f30x_spi.o (symbol from plugin)
                                                  obj/main/SPRACINGF3/drivers/bus_spi.o (symbol from plugin)
SPI_RxFIFOThresholdConfig                         obj/main/SPRACINGF3/stm32f30x_spi.o (symbol from plugin)
                                                  obj/main/SPRACINGF3/drivers/bus_spi.o (symbol from plugin)
SPI_SSOutputCmd                                   obj/main/SPRACINGF3/stm32f30x_spi.o (symbol from plugin)
SPI_SendData8                                     obj/main/SPRACINGF3/stm32f30x_spi.o (symbol from plugin)
                                                  obj/main/SPRACINGF3/drivers/bus_spi.o (symbol from plugin)
SPI_StructInit                                    obj/main/SPRACINGF3/stm32f30x_spi.o (symbol from plugin)
SPI_TIModeCmd                                     obj/main/SPRACINGF3/stm32f30x_spi.o (symbol from plugin)
SPI_TransmitCRC                                   obj/main/SPRACINGF3/stm32f30x_spi.o (symbol from plugin)
SVC_Handler                                       obj/main/SPRACINGF3/startup_stm32f30x_md_gcc.o
SYSCFG_BreakConfig                                obj/main/SPRACINGF3/stm32f30x_syscfg.o (symbol from plugin)
SYSCFG_BypassParityCheckDisable                   obj/main/SPRACINGF3/stm32f30x_syscfg.o (symbol from plugin)
SYSCFG_ClearFlag                                  obj/main/SPRACINGF3/stm32f30x_syscfg.o (symbol from plugin)
SYSCFG_DMAChannelRemapConfig                      obj/main/SPRACINGF3/stm32f30x_syscfg.o (symbol from plugin)
SYSCFG_DeInit                                     obj/main/SPRACINGF3/stm32f30x_syscfg.o (symbol from plugin)
SYSCFG_EXTILineConfig                             /tmp/ccGYWBCE.ltrans16.ltrans.o
                                                  obj/main/SPRACINGF3/stm32f30x_syscfg.o (symbol from plugin)
                                                  /tmp/ccGYWBCE.ltrans21.ltrans.o
                                                  /tmp/ccGYWBCE.ltrans15.ltrans.o
                                                  /tmp/ccGYWBCE.ltrans0.ltrans.o
                                                  obj/main/SPRACINGF3/drivers/gpio_stm32f30x.o (symbol from plugin)
SYSCFG_EncoderRemapConfig                         obj/main/SPRACINGF3/stm32f30x_syscfg.o (symbol from plugin)
SYSCFG_GetFlagStatus                              obj/main/SPRACINGF3/stm32f30x_syscfg.o (symbol from plugin)
SYSCFG_I2CFastModePlusConfig                      obj/main/SPRACINGF3/stm32f30x_syscfg.o (symbol from plugin)
SYSCFG_ITConfig                                   obj/main/SPRACINGF3/stm32f30x_syscfg.o (symbol from plugin)
SYSCFG_MemoryRemapConfig                          obj/main/SPRACINGF3/stm32f30x_syscfg.o (symbol from plugin)
SYSCFG_SRAMWRPEnable                              obj/main/SPRACINGF3/stm32f30x_syscfg.o (symbol from plugin)
SYSCFG_TriggerRemapConfig                         obj/main/SPRACINGF3/stm32f30x_syscfg.o (symbol from plugin)
SYSCFG_USBInterruptLineRemapCmd                   obj/main/SPRACINGF3/stm32f30x_syscfg.o (symbol from plugin)
SetSysClock                                       obj/main/SPRACINGF3/system_stm32f30x.o (symbol from plugin)
                                                  obj/main/SPRACINGF3/main.o (symbol from plugin)
StopPwmAllMotors                                  obj/main/SPRACINGF3/flight/mixer.o (symbol from plugin)
                                                  obj/main/SPRACINGF3/config/config.o (symbol from plugin)
SysTick_CLKSourceConfig                           obj/main/SPRACINGF3/stm32f30x_misc.o (symbol from plugin)
SysTick_Handler                                   /tmp/ccGYWBCE.ltrans7.ltrans.o
                                                  obj/main/SPRACINGF3/drivers/system.o (symbol from plugin)
                                                  obj/main/SPRACINGF3/startup_stm32f30x_md_gcc.o
SystemCoreClock                                   /tmp/ccGYWBCE.ltrans22.ltrans.o
                                                  obj/main/SPRACINGF3/system_stm32f30x.o (symbol from plugin)
                                                  obj/main/SPRACINGF3/io/serial_cli.o (symbol from plugin)
                                                  obj/main/SPRACINGF3/drivers/system.o (symbol from plugin)
                                                  obj/main/SPRACINGF3/drivers/serial_softserial.o (symbol from plugin)
                                                  obj/main/SPRACINGF3/drivers/light_ws2811strip_stm32f30x.o (symbol from plugin)
                                                  obj/main/SPRACINGF3/drivers/timer.o (symbol from plugin)
SystemCoreClockUpdate                             obj/main/SPRACINGF3/system_stm32f30x.o (symbol from plugin)
SystemInit                                        /tmp/ccGYWBCE.ltrans10.ltrans.o
                                                  obj/main/SPRACINGF3/system_stm32f30x.o (symbol from plugin)
                                                  obj/main/SPRACINGF3/startup_stm32f30x_md_gcc.o
TAMPER_STAMP_IRQHandler                           obj/main/SPRACINGF3/startup_stm32f30x_md_gcc.o
TIM1_BRK_TIM15_IRQHandler                         /tmp/ccGYWBCE.ltrans21.ltrans.o
                                                  obj/main/SPRACINGF3/drivers/timer.o (symbol from plugin)
                                                  obj/main/SPRACINGF3/startup_stm32f30x_md_gcc.o
TIM1_CC_IRQHandler                                /tmp/ccGYWBCE.ltrans21.ltrans.o
                                                  obj/main/SPRACINGF3/drivers/timer.o (symbol from plugin)
                                                  obj/main/SPRACINGF3/startup_stm32f30x_md_gcc.o
TIM1_TRG_COM_TIM17_IRQHandler                     /tmp/ccGYWBCE.ltrans21.ltrans.o
                                                  obj/main/SPRACINGF3/drivers/timer.o (symbol from plugin)
                                                  obj/main/SPRACINGF3/startup_stm32f30x_md_gcc.o
TIM1_UP_TIM16_IRQHandler                          /tmp/ccGYWBCE.ltrans21.ltrans.o
                                                  obj/main/SPRACINGF3/drivers/timer.o (symbol from plugin)
                                                  obj/main/SPRACINGF3/startup_stm32f30x_md_gcc.o
TIM2_IRQHandler                                   /tmp/ccGYWBCE.ltrans21.ltrans.o
                                                  obj/main/SPRACINGF3/drivers/timer.o (symbol from plugin)
                                                  obj/main/SPRACINGF3/startup_stm32f30x_md_gcc.o
TIM3_IRQHandler                                   /tmp/ccGYWBCE.ltrans21.ltrans.o
                                                  obj/main/SPRACINGF3/drivers/timer.o (symbol from plugin)
                                                  obj/main/SPRACINGF3/startup_stm32f30x_md_gcc.o
TIM4_IRQHandler                                   /tmp/ccGYWBCE.ltrans21.ltrans.o
                                                  obj/main/SPRACINGF3/drivers/timer.o (symbol from plugin)
                                                  obj/main/SPRACINGF3/startup_stm32f30x_md_gcc.o
TIM6_DAC_IRQHandler                               obj/main/SPRACINGF3/startup_stm32f30x_md_gcc.o
TIM7_IRQHandler                                   obj/main/SPRACINGF3/startup_stm32f30x_md_gcc.o
TIM8_BRK_IRQHandler                               obj/main/SPRACINGF3/startup_stm32f30x_md_gcc.o
TIM8_CC_IRQHandler                                obj/main/SPRACINGF3/startup_stm32f30x_md_gcc.o
TIM8_TRG_COM_IRQHandler                           obj/main/SPRACINGF3/startup_stm32f30x_md_gcc.o
TIM8_UP_IRQHandler                                obj/main/SPRACINGF3/startup_stm32f30x_md_gcc.o
TIM_ARRPreloadConfig                              obj/main/SPRACINGF3/stm32f30x_tim.o (symbol from plugin)
TIM_BDTRConfig                                    obj/main/SPRACINGF3/stm32f30x_tim.o (symbol from plugin)
TIM_BDTRStructInit                                obj/main/SPRACINGF3/stm32f30x_tim.o (symbol from plugin)
TIM_Break1Cmd                                     obj/main/SPRACINGF3/stm32f30x_tim.o (symbol from plugin)
TIM_Break1Config                                  obj/main/SPRACINGF3/stm32f30x_tim.o (symbol from plugin)
TIM_Break2Cmd                                     obj/main/SPRACINGF3/stm32f30x_tim.o (symbol from plugin)
TIM_Break2Config                                  obj/main/SPRACINGF3/stm32f30x_tim.o (symbol from plugin)
TIM_CCPreloadControl                              obj/main/SPRACINGF3/stm32f30x_tim.o (symbol from plugin)
TIM_CCxCmd                                        obj/main/SPRACINGF3/stm32f30x_tim.o (symbol from plugin)
TIM_CCxNCmd                                       obj/main/SPRACINGF3/stm32f30x_tim.o (symbol from plugin)
TIM_ClearFlag                                     obj/main/SPRACINGF3/stm32f30x_tim.o (symbol from plugin)
                                                  obj/main/SPRACINGF3/drivers/timer.o (symbol from plugin)
TIM_ClearITPendingBit                             obj/main/SPRACINGF3/stm32f30x_tim.o (symbol from plugin)
TIM_ClearOC1Ref                                   obj/main/SPRACINGF3/stm32f30x_tim.o (symbol from plugin)
TIM_ClearOC2Ref                                   obj/main/SPRACINGF3/stm32f30x_tim.o (symbol from plugin)
TIM_ClearOC3Ref                                   obj/main/SPRACINGF3/stm32f30x_tim.o (symbol from plugin)
TIM_ClearOC4Ref                                   obj/main/SPRACINGF3/stm32f30x_tim.o (symbol from plugin)
TIM_ClearOC5Ref                                   obj/main/SPRACINGF3/stm32f30x_tim.o (symbol from plugin)
TIM_ClearOC6Ref                                   obj/main/SPRACINGF3/stm32f30x_tim.o (symbol from plugin)
TIM_Cmd                                           obj/main/SPRACINGF3/stm32f30x_tim.o (symbol from plugin)
                                                  obj/main/SPRACINGF3/drivers/light_ws2811strip_stm32f30x.o (symbol from plugin)
                                                  obj/main/SPRACINGF3/drivers/timer.o (symbol from plugin)
                                                  obj/main/SPRACINGF3/drivers/pwm_output.o (symbol from plugin)
TIM_CounterModeConfig                             obj/main/SPRACINGF3/stm32f30x_tim.o (symbol from plugin)
TIM_CtrlPWMOutputs                                obj/main/SPRACINGF3/stm32f30x_tim.o (symbol from plugin)
                                                  obj/main/SPRACINGF3/drivers/light_ws2811strip_stm32f30x.o (symbol from plugin)
                                                  obj/main/SPRACINGF3/drivers/pwm_output.o (symbol from plugin)
TIM_DMACmd                                        obj/main/SPRACINGF3/stm32f30x_tim.o (symbol from plugin)
                                                  obj/main/SPRACINGF3/drivers/light_ws2811strip_stm32f30x.o (symbol from plugin)
TIM_DMAConfig                                     obj/main/SPRACINGF3/stm32f30x_tim.o (symbol from plugin)
TIM_DeInit                                        obj/main/SPRACINGF3/stm32f30x_tim.o (symbol from plugin)
TIM_ETRClockMode1Config                           obj/main/SPRACINGF3/stm32f30x_tim.o (symbol from plugin)
TIM_ETRClockMode2Config                           obj/main/SPRACINGF3/stm32f30x_tim.o (symbol from plugin)
TIM_ETRConfig                                     obj/main/SPRACINGF3/stm32f30x_tim.o (symbol from plugin)
TIM_EncoderInterfaceConfig                        obj/main/SPRACINGF3/stm32f30x_tim.o (symbol from plugin)
TIM_ForcedOC1Config                               obj/main/SPRACINGF3/stm32f30x_tim.o (symbol from plugin)
TIM_ForcedOC2Config                               obj/main/SPRACINGF3/stm32f30x_tim.o (symbol from plugin)
TIM_ForcedOC3Config                               obj/main/SPRACINGF3/stm32f30x_tim.o (symbol from plugin)
TIM_ForcedOC4Config                               obj/main/SPRACINGF3/stm32f30x_tim.o (symbol from plugin)
TIM_ForcedOC5Config                               obj/main/SPRACINGF3/stm32f30x_tim.o (symbol from plugin)
TIM_ForcedOC6Config                               obj/main/SPRACINGF3/stm32f30x_tim.o (symbol from plugin)
TIM_GenerateEvent                                 obj/main/SPRACINGF3/stm32f30x_tim.o (symbol from plugin)
TIM_GetCapture1                                   obj/main/SPRACINGF3/stm32f30x_tim.o (symbol from plugin)
TIM_GetCapture2                                   obj/main/SPRACINGF3/stm32f30x_tim.o (symbol from plugin)
TIM_GetCapture3                                   obj/main/SPRACINGF3/stm32f30x_tim.o (symbol from plugin)
TIM_GetCapture4                                   obj/main/SPRACINGF3/stm32f30x_tim.o (symbol from plugin)
TIM_GetCounter                                    obj/main/SPRACINGF3/stm32f30x_tim.o (symbol from plugin)
TIM_GetFlagStatus                                 obj/main/SPRACINGF3/stm32f30x_tim.o (symbol from plugin)
TIM_GetITStatus                                   obj/main/SPRACINGF3/stm32f30x_tim.o (symbol from plugin)
TIM_GetPrescaler                                  obj/main/SPRACINGF3/stm32f30x_tim.o (symbol from plugin)
TIM_ICInit                                        /tmp/ccGYWBCE.ltrans16.ltrans.o
                                                  obj/main/SPRACINGF3/stm32f30x_tim.o (symbol from plugin)
                                                  /tmp/ccGYWBCE.ltrans15.ltrans.o
                                                  /tmp/ccGYWBCE.ltrans4.ltrans.o
                                                  obj/main/SPRACINGF3/drivers/serial_softserial.o (symbol from plugin)
                                                  obj/main/SPRACINGF3/drivers/timer.o (symbol from plugin)
                                                  obj/main/SPRACINGF3/drivers/pwm_rx.o (symbol from plugin)
TIM_ICStructInit                                  obj/main/SPRACINGF3/stm32f30x_tim.o (symbol from plugin)
                                                  obj/main/SPRACINGF3/drivers/serial_softserial.o (symbol from plugin)
                                                  obj/main/SPRACINGF3/drivers/timer.o (symbol from plugin)
                                                  obj/main/SPRACINGF3/drivers/pwm_rx.o (symbol from plugin)
TIM_ITConfig                                      obj/main/SPRACINGF3/stm32f30x_tim.o (symbol from plugin)
                                                  obj/main/SPRACINGF3/drivers/timer.o (symbol from plugin)
TIM_ITRxExternalClockConfig                       obj/main/SPRACINGF3/stm32f30x_tim.o (symbol from plugin)
TIM_InternalClockConfig                           obj/main/SPRACINGF3/stm32f30x_tim.o (symbol from plugin)
TIM_OC1FastConfig                                 obj/main/SPRACINGF3/stm32f30x_tim.o (symbol from plugin)
TIM_OC1Init                                       /tmp/ccGYWBCE.ltrans16.ltrans.o
                                                  obj/main/SPRACINGF3/stm32f30x_tim.o (symbol from plugin)
                                                  /tmp/ccGYWBCE.ltrans4.ltrans.o
                                                  /tmp/ccGYWBCE.ltrans0.ltrans.o
                                                  obj/main/SPRACINGF3/drivers/light_ws2811strip_stm32f30x.o (symbol from plugin)
                                                  obj/main/SPRACINGF3/drivers/timer.o (symbol from plugin)
                                                  obj/main/SPRACINGF3/drivers/pwm_output.o (symbol from plugin)
TIM_OC1NPolarityConfig                            obj/main/SPRACINGF3/stm32f30x_tim.o (symbol from plugin)
TIM_OC1PolarityConfig                             obj/main/SPRACINGF3/stm32f30x_tim.o (symbol from plugin)
TIM_OC1PreloadConfig                              obj/main/SPRACINGF3/stm32f30x_tim.o (symbol from plugin)
                                                  obj/main/SPRACINGF3/drivers/light_ws2811strip_stm32f30x.o (symbol from plugin)
                                                  obj/main/SPRACINGF3/drivers/timer.o (symbol from plugin)
                                                  obj/main/SPRACINGF3/drivers/pwm_output.o (symbol from plugin)
TIM_OC2FastConfig                                 obj/main/SPRACINGF3/stm32f30x_tim.o (symbol from plugin)
TIM_OC2Init                                       obj/main/SPRACINGF3/stm32f30x_tim.o (symbol from plugin)
                                                  obj/main/SPRACINGF3/drivers/timer.o (symbol from plugin)
                                                  obj/main/SPRACINGF3/drivers/pwm_output.o (symbol from plugin)
TIM_OC2NPolarityConfig                            obj/main/SPRACINGF3/stm32f30x_tim.o (symbol from plugin)
TIM_OC2PolarityConfig                             obj/main/SPRACINGF3/stm32f30x_tim.o (symbol from plugin)
TIM_OC2PreloadConfig                              obj/main/SPRACINGF3/stm32f30x_tim.o (symbol from plugin)
                                                  obj/main/SPRACINGF3/drivers/timer.o (symbol from plugin)
                                                  obj/main/SPRACINGF3/drivers/pwm_output.o (symbol from plugin)
TIM_OC3FastConfig                                 obj/main/SPRACINGF3/stm32f30x_tim.o (symbol from plugin)
TIM_OC3Init                                       obj/main/SPRACINGF3/stm32f30x_tim.o (symbol from plugin)
                                                  obj/main/SPRACINGF3/drivers/timer.o (symbol from plugin)
                                                  obj/main/SPRACINGF3/drivers/pwm_output.o (symbol from plugin)
TIM_OC3NPolarityConfig                            obj/main/SPRACINGF3/stm32f30x_tim.o (symbol from plugin)
TIM_OC3PolarityConfig                             obj/main/SPRACINGF3/stm32f30x_tim.o (symbol from plugin)
TIM_OC3PreloadConfig                              obj/main/SPRACINGF3/stm32f30x_tim.o (symbol from plugin)
                                                  obj/main/SPRACINGF3/drivers/timer.o (symbol from plugin)
                                                  obj/main/SPRACINGF3/drivers/pwm_output.o (symbol from plugin)
TIM_OC4FastConfig                                 obj/main/SPRACINGF3/stm32f30x_tim.o (symbol from plugin)
TIM_OC4Init                                       obj/main/SPRACINGF3/stm32f30x_tim.o (symbol from plugin)
                                                  obj/main/SPRACINGF3/drivers/timer.o (symbol from plugin)
                                                  obj/main/SPRACINGF3/drivers/pwm_output.o (symbol from plugin)
TIM_OC4PolarityConfig                             obj/main/SPRACINGF3/stm32f30x_tim.o (symbol from plugin)
TIM_OC4PreloadConfig                              obj/main/SPRACINGF3/stm32f30x_tim.o (symbol from plugin)
                                                  obj/main/SPRACINGF3/drivers/timer.o (symbol from plugin)
                                                  obj/main/SPRACINGF3/drivers/pwm_output.o (symbol from plugin)
TIM_OC5Init                                       obj/main/SPRACINGF3/stm32f30x_tim.o (symbol from plugin)
TIM_OC5PolarityConfig                             obj/main/SPRACINGF3/stm32f30x_tim.o (symbol from plugin)
TIM_OC5PreloadConfig                              obj/main/SPRACINGF3/stm32f30x_tim.o (symbol from plugin)
TIM_OC6Init                                       obj/main/SPRACINGF3/stm32f30x_tim.o (symbol from plugin)
TIM_OC6PolarityConfig                             obj/main/SPRACINGF3/stm32f30x_tim.o (symbol from plugin)
TIM_OC6PreloadConfig                              obj/main/SPRACINGF3/stm32f30x_tim.o (symbol from plugin)
TIM_OCStructInit                                  obj/main/SPRACINGF3/stm32f30x_tim.o (symbol from plugin)
                                                  obj/main/SPRACINGF3/drivers/light_ws2811strip_stm32f30x.o (symbol from plugin)
                                                  obj/main/SPRACINGF3/drivers/timer.o (symbol from plugin)
                                                  obj/main/SPRACINGF3/drivers/pwm_output.o (symbol from plugin)
TIM_PWMIConfig                                    obj/main/SPRACINGF3/stm32f30x_tim.o (symbol from plugin)
TIM_PrescalerConfig                               obj/main/SPRACINGF3/stm32f30x_tim.o (symbol from plugin)
TIM_RemapConfig                                   obj/main/SPRACINGF3/stm32f30x_tim.o (symbol from plugin)
TIM_SelectCCDMA                                   obj/main/SPRACINGF3/stm32f30x_tim.o (symbol from plugin)
TIM_SelectCOM                                     obj/main/SPRACINGF3/stm32f30x_tim.o (symbol from plugin)
TIM_SelectGC5C1                                   obj/main/SPRACINGF3/stm32f30x_tim.o (symbol from plugin)
TIM_SelectGC5C2                                   obj/main/SPRACINGF3/stm32f30x_tim.o (symbol from plugin)
TIM_SelectGC5C3                                   obj/main/SPRACINGF3/stm32f30x_tim.o (symbol from plugin)
TIM_SelectHallSensor                              obj/main/SPRACINGF3/stm32f30x_tim.o (symbol from plugin)
TIM_SelectInputTrigger                            obj/main/SPRACINGF3/stm32f30x_tim.o (symbol from plugin)
TIM_SelectMasterSlaveMode                         obj/main/SPRACINGF3/stm32f30x_tim.o (symbol from plugin)
TIM_SelectOCREFClear                              obj/main/SPRACINGF3/stm32f30x_tim.o (symbol from plugin)
TIM_SelectOCxM                                    obj/main/SPRACINGF3/stm32f30x_tim.o (symbol from plugin)
TIM_SelectOCxM_NoDisable                          obj/main/SPRACINGF3/drivers/timer_stm32f30x.o (symbol from plugin)
TIM_SelectOnePulseMode                            obj/main/SPRACINGF3/stm32f30x_tim.o (symbol from plugin)
TIM_SelectOutputTrigger                           obj/main/SPRACINGF3/stm32f30x_tim.o (symbol from plugin)
TIM_SelectOutputTrigger2                          obj/main/SPRACINGF3/stm32f30x_tim.o (symbol from plugin)
TIM_SelectSlaveMode                               obj/main/SPRACINGF3/stm32f30x_tim.o (symbol from plugin)
TIM_SetAutoreload                                 obj/main/SPRACINGF3/stm32f30x_tim.o (symbol from plugin)
TIM_SetClockDivision                              obj/main/SPRACINGF3/stm32f30x_tim.o (symbol from plugin)
TIM_SetCompare1                                   obj/main/SPRACINGF3/stm32f30x_tim.o (symbol from plugin)
TIM_SetCompare2                                   obj/main/SPRACINGF3/stm32f30x_tim.o (symbol from plugin)
TIM_SetCompare3                                   obj/main/SPRACINGF3/stm32f30x_tim.o (symbol from plugin)
TIM_SetCompare4                                   obj/main/SPRACINGF3/stm32f30x_tim.o (symbol from plugin)
TIM_SetCompare5                                   obj/main/SPRACINGF3/stm32f30x_tim.o (symbol from plugin)
TIM_SetCompare6                                   obj/main/SPRACINGF3/stm32f30x_tim.o (symbol from plugin)
TIM_SetCounter                                    obj/main/SPRACINGF3/stm32f30x_tim.o (symbol from plugin)
                                                  obj/main/SPRACINGF3/drivers/serial_softserial.o (symbol from plugin)
                                                  obj/main/SPRACINGF3/drivers/light_ws2811strip_stm32f30x.o (symbol from plugin)
TIM_SetIC1Prescaler                               obj/main/SPRACINGF3/stm32f30x_tim.o (symbol from plugin)
TIM_SetIC2Prescaler                               obj/main/SPRACINGF3/stm32f30x_tim.o (symbol from plugin)
TIM_SetIC3Prescaler                               obj/main/SPRACINGF3/stm32f30x_tim.o (symbol from plugin)
TIM_SetIC4Prescaler                               obj/main/SPRACINGF3/stm32f30x_tim.o (symbol from plugin)
TIM_TIxExternalClockConfig                        obj/main/SPRACINGF3/stm32f30x_tim.o (symbol from plugin)
TIM_TimeBaseInit                                  obj/main/SPRACINGF3/stm32f30x_tim.o (symbol from plugin)
                                                  obj/main/SPRACINGF3/drivers/light_ws2811strip_stm32f30x.o (symbol from plugin)
                                                  obj/main/SPRACINGF3/drivers/timer.o (symbol from plugin)
TIM_TimeBaseStructInit                            obj/main/SPRACINGF3/stm32f30x_tim.o (symbol from plugin)
                                                  obj/main/SPRACINGF3/drivers/light_ws2811strip_stm32f30x.o (symbol from plugin)
                                                  obj/main/SPRACINGF3/drivers/timer.o (symbol from plugin)
TIM_UIFRemap                                      obj/main/SPRACINGF3/stm32f30x_tim.o (symbol from plugin)
TIM_UpdateDisableConfig                           obj/main/SPRACINGF3/stm32f30x_tim.o (symbol from plugin)
TIM_UpdateRequestConfig                           obj/main/SPRACINGF3/stm32f30x_tim.o (symbol from plugin)
UART4_IRQHandler                                  obj/main/SPRACINGF3/startup_stm32f30x_md_gcc.o
UART5_IRQHandler                                  obj/main/SPRACINGF3/startup_stm32f30x_md_gcc.o
USART1_IRQHandler                                 /tmp/ccGYWBCE.ltrans21.ltrans.o
                                                  obj/main/SPRACINGF3/drivers/serial_uart_stm32f30x.o (symbol from plugin)
                                                  obj/main/SPRACINGF3/startup_stm32f30x_md_gcc.o
USART2_IRQHandler                                 /tmp/ccGYWBCE.ltrans21.ltrans.o
                                                  obj/main/SPRACINGF3/drivers/serial_uart_stm32f30x.o (symbol from plugin)
                                                  obj/main/SPRACINGF3/startup_stm32f30x_md_gcc.o
USART3_IRQHandler                                 /tmp/ccGYWBCE.ltrans21.ltrans.o
                                                  obj/main/SPRACINGF3/drivers/serial_uart_stm32f30x.o (symbol from plugin)
                                                  obj/main/SPRACINGF3/startup_stm32f30x_md_gcc.o
USART_AddressDetectionConfig                      obj/main/SPRACINGF3/stm32f30x_usart.o (symbol from plugin)
USART_AutoBaudRateCmd                             obj/main/SPRACINGF3/stm32f30x_usart.o (symbol from plugin)
USART_AutoBaudRateConfig                          obj/main/SPRACINGF3/stm32f30x_usart.o (symbol from plugin)
USART_ClearFlag                                   obj/main/SPRACINGF3/stm32f30x_usart.o (symbol from plugin)
USART_ClearITPendingBit                           obj/main/SPRACINGF3/stm32f30x_usart.o (symbol from plugin)
                                                  obj/main/SPRACINGF3/drivers/serial_uart_stm32f30x.o (symbol from plugin)
                                                  obj/main/SPRACINGF3/drivers/serial_uart.o (symbol from plugin)
USART_ClockInit                                   obj/main/SPRACINGF3/stm32f30x_usart.o (symbol from plugin)
USART_ClockStructInit                             obj/main/SPRACINGF3/stm32f30x_usart.o (symbol from plugin)
USART_Cmd                                         obj/main/SPRACINGF3/stm32f30x_usart.o (symbol from plugin)
                                                  obj/main/SPRACINGF3/drivers/serial_uart.o (symbol from plugin)
USART_DECmd                                       obj/main/SPRACINGF3/stm32f30x_usart.o (symbol from plugin)
USART_DEPolarityConfig                            obj/main/SPRACINGF3/stm32f30x_usart.o (symbol from plugin)
USART_DMACmd                                      obj/main/SPRACINGF3/stm32f30x_usart.o (symbol from plugin)
                                                  obj/main/SPRACINGF3/drivers/serial_uart.o (symbol from plugin)
USART_DMAReceptionErrorConfig                     obj/main/SPRACINGF3/stm32f30x_usart.o (symbol from plugin)
USART_DataInvCmd                                  obj/main/SPRACINGF3/stm32f30x_usart.o (symbol from plugin)
USART_DeInit                                      obj/main/SPRACINGF3/stm32f30x_usart.o (symbol from plugin)
USART_DirectionModeCmd                            obj/main/SPRACINGF3/stm32f30x_usart.o (symbol from plugin)
USART_GetFlagStatus                               obj/main/SPRACINGF3/stm32f30x_usart.o (symbol from plugin)
USART_GetITStatus                                 obj/main/SPRACINGF3/stm32f30x_usart.o (symbol from plugin)
USART_HalfDuplexCmd                               obj/main/SPRACINGF3/stm32f30x_usart.o (symbol from plugin)
                                                  obj/main/SPRACINGF3/drivers/serial_uart.o (symbol from plugin)
USART_ITConfig                                    obj/main/SPRACINGF3/stm32f30x_usart.o (symbol from plugin)
                                                  obj/main/SPRACINGF3/drivers/serial_uart_stm32f30x.o (symbol from plugin)
                                                  obj/main/SPRACINGF3/drivers/serial_uart.o (symbol from plugin)
USART_Init                                        obj/main/SPRACINGF3/stm32f30x_usart.o (symbol from plugin)
                                                  obj/main/SPRACINGF3/drivers/serial_uart.o (symbol from plugin)
USART_InvPinCmd                                   obj/main/SPRACINGF3/stm32f30x_usart.o (symbol from plugin)
                                                  obj/main/SPRACINGF3/drivers/serial_uart.o (symbol from plugin)
USART_IrDACmd                                     obj/main/SPRACINGF3/stm32f30x_usart.o (symbol from plugin)
USART_IrDAConfig                                  obj/main/SPRACINGF3/stm32f30x_usart.o (symbol from plugin)
USART_LINBreakDetectLengthConfig                  obj/main/SPRACINGF3/stm32f30x_usart.o (symbol from plugin)
USART_LINCmd                                      obj/main/SPRACINGF3/stm32f30x_usart.o (symbol from plugin)
USART_MSBFirstCmd                                 obj/main/SPRACINGF3/stm32f30x_usart.o (symbol from plugin)
USART_MuteModeCmd                                 obj/main/SPRACINGF3/stm32f30x_usart.o (symbol from plugin)
USART_MuteModeWakeUpConfig                        obj/main/SPRACINGF3/stm32f30x_usart.o (symbol from plugin)
USART_OneBitMethodCmd                             obj/main/SPRACINGF3/stm32f30x_usart.o (symbol from plugin)
USART_OverSampling8Cmd                            obj/main/SPRACINGF3/stm32f30x_usart.o (symbol from plugin)
USART_OverrunDetectionConfig                      obj/main/SPRACINGF3/stm32f30x_usart.o (symbol from plugin)
USART_ReceiveData                                 obj/main/SPRACINGF3/stm32f30x_usart.o (symbol from plugin)
USART_ReceiverTimeOutCmd                          obj/main/SPRACINGF3/stm32f30x_usart.o (symbol from plugin)
USART_RequestCmd                                  obj/main/SPRACINGF3/stm32f30x_usart.o (symbol from plugin)
USART_STOPModeCmd                                 obj/main/SPRACINGF3/stm32f30x_usart.o (symbol from plugin)
USART_SWAPPinCmd                                  obj/main/SPRACINGF3/stm32f30x_usart.o (symbol from plugin)
USART_SendData                                    obj/main/SPRACINGF3/stm32f30x_usart.o (symbol from plugin)
                                                  obj/main/SPRACINGF3/drivers/serial_uart_stm32f30x.o (symbol from plugin)
USART_SetAddress                                  obj/main/SPRACINGF3/stm32f30x_usart.o (symbol from plugin)
USART_SetAutoRetryCount                           obj/main/SPRACINGF3/stm32f30x_usart.o (symbol from plugin)
USART_SetBlockLength                              obj/main/SPRACINGF3/stm32f30x_usart.o (symbol from plugin)
USART_SetDEAssertionTime                          obj/main/SPRACINGF3/stm32f30x_usart.o (symbol from plugin)
USART_SetDEDeassertionTime                        obj/main/SPRACINGF3/stm32f30x_usart.o (symbol from plugin)
USART_SetGuardTime                                obj/main/SPRACINGF3/stm32f30x_usart.o (symbol from plugin)
USART_SetPrescaler                                obj/main/SPRACINGF3/stm32f30x_usart.o (symbol from plugin)
USART_SetReceiverTimeOut                          obj/main/SPRACINGF3/stm32f30x_usart.o (symbol from plugin)
USART_SmartCardCmd                                obj/main/SPRACINGF3/stm32f30x_usart.o (symbol from plugin)
USART_SmartCardNACKCmd                            obj/main/SPRACINGF3/stm32f30x_usart.o (symbol from plugin)
USART_StopModeWakeUpSourceConfig                  obj/main/SPRACINGF3/stm32f30x_usart.o (symbol from plugin)
USART_StructInit                                  obj/main/SPRACINGF3/stm32f30x_usart.o (symbol from plugin)
USBWakeUp_IRQHandler                              obj/main/SPRACINGF3/startup_stm32f30x_md_gcc.o
USBWakeUp_RMP_IRQHandler                          obj/main/SPRACINGF3/startup_stm32f30x_md_gcc.o
USB_HP_CAN1_TX_IRQHandler                         obj/main/SPRACINGF3/startup_stm32f30x_md_gcc.o
USB_HP_IRQHandler                                 obj/main/SPRACINGF3/startup_stm32f30x_md_gcc.o
USB_LP_CAN1_RX0_IRQHandler                        obj/main/SPRACINGF3/startup_stm32f30x_md_gcc.o
USB_LP_IRQHandler                                 obj/main/SPRACINGF3/startup_stm32f30x_md_gcc.o
UsageFault_Handler                                obj/main/SPRACINGF3/startup_stm32f30x_md_gcc.o
WWDG_ClearFlag                                    obj/main/SPRACINGF3/stm32f30x_wwdg.o (symbol from plugin)
WWDG_DeInit                                       obj/main/SPRACINGF3/stm32f30x_wwdg.o (symbol from plugin)
WWDG_Enable                                       obj/main/SPRACINGF3/stm32f30x_wwdg.o (symbol from plugin)
WWDG_EnableIT                                     obj/main/SPRACINGF3/stm32f30x_wwdg.o (symbol from plugin)
WWDG_GetFlagStatus                                obj/main/SPRACINGF3/stm32f30x_wwdg.o (symbol from plugin)
WWDG_IRQHandler                                   obj/main/SPRACINGF3/startup_stm32f30x_md_gcc.o
WWDG_SetCounter                                   obj/main/SPRACINGF3/stm32f30x_wwdg.o (symbol from plugin)
WWDG_SetPrescaler                                 obj/main/SPRACINGF3/stm32f30x_wwdg.o (symbol from plugin)
WWDG_SetWindowValue                               obj/main/SPRACINGF3/stm32f30x_wwdg.o (symbol from plugin)
__adddf3                                          /usr/lib/gcc/arm-none-eabi/4.9.3/armv7e-m/fpu/libgcc.a(_arm_addsubdf3.o)
__aeabi_cdcmpeq                                   /usr/lib/gcc/arm-none-eabi/4.9.3/armv7e-m/fpu/libgcc.a(_arm_cmpdf2.o)
__aeabi_cdcmple                                   /usr/lib/gcc/arm-none-eabi/4.9.3/armv7e-m/fpu/libgcc.a(_arm_cmpdf2.o)
__aeabi_cdrcmple                                  /usr/lib/gcc/arm-none-eabi/4.9.3/armv7e-m/fpu/libgcc.a(_arm_cmpdf2.o)
__aeabi_d2f                                       /usr/lib/gcc/arm-none-eabi/4.9.3/armv7e-m/fpu/libgcc.a(_arm_truncdfsf2.o)
                                                  /usr/lib/gcc/arm-none-eabi/4.9.3/../../../arm-none-eabi/lib/armv7e-m/fpu/libm.a(lib_a-wf_sqrt.o)
                                                  /usr/lib/gcc/arm-none-eabi/4.9.3/../../../arm-none-eabi/lib/armv7e-m/fpu/libm.a(lib_a-wf_pow.o)
__aeabi_d2uiz                                     /usr/lib/gcc/arm-none-eabi/4.9.3/armv7e-m/fpu/libgcc.a(_arm_fixunsdfsi.o)
                                                  /usr/lib/gcc/arm-none-eabi/4.9.3/armv7e-m/fpu/libgcc.a(_fixunssfdi.o)
__aeabi_dadd                                      /usr/lib/gcc/arm-none-eabi/4.9.3/armv7e-m/fpu/libgcc.a(_arm_addsubdf3.o)
                                                  /usr/lib/gcc/arm-none-eabi/4.9.3/../../../arm-none-eabi/lib/armv7e-m/fpu/libm.a(lib_a-s_rint.o)
__aeabi_dcmpeq                                    /usr/lib/gcc/arm-none-eabi/4.9.3/armv7e-m/fpu/libgcc.a(_arm_cmpdf2.o)
                                                  /usr/lib/gcc/arm-none-eabi/4.9.3/../../../arm-none-eabi/lib/armv7e-m/fpu/libm.a(lib_a-wf_pow.o)
__aeabi_dcmpge                                    /usr/lib/gcc/arm-none-eabi/4.9.3/armv7e-m/fpu/libgcc.a(_arm_cmpdf2.o)
__aeabi_dcmpgt                                    /usr/lib/gcc/arm-none-eabi/4.9.3/armv7e-m/fpu/libgcc.a(_arm_cmpdf2.o)
__aeabi_dcmple                                    /usr/lib/gcc/arm-none-eabi/4.9.3/armv7e-m/fpu/libgcc.a(_arm_cmpdf2.o)
__aeabi_dcmplt                                    /usr/lib/gcc/arm-none-eabi/4.9.3/armv7e-m/fpu/libgcc.a(_arm_cmpdf2.o)
__aeabi_ddiv                                      /usr/lib/gcc/arm-none-eabi/4.9.3/armv7e-m/fpu/libgcc.a(_arm_muldivdf3.o)
                                                  /usr/lib/gcc/arm-none-eabi/4.9.3/../../../arm-none-eabi/lib/armv7e-m/fpu/libm.a(lib_a-wf_sqrt.o)
                                                  /usr/lib/gcc/arm-none-eabi/4.9.3/../../../arm-none-eabi/lib/armv7e-m/fpu/libm.a(lib_a-wf_pow.o)
__aeabi_dmul                                      /usr/lib/gcc/arm-none-eabi/4.9.3/armv7e-m/fpu/libgcc.a(_arm_muldivdf3.o)
                                                  /usr/lib/gcc/arm-none-eabi/4.9.3/armv7e-m/fpu/libgcc.a(_fixunssfdi.o)
__aeabi_drsub                                     /usr/lib/gcc/arm-none-eabi/4.9.3/armv7e-m/fpu/libgcc.a(_arm_addsubdf3.o)
__aeabi_dsub                                      /usr/lib/gcc/arm-none-eabi/4.9.3/armv7e-m/fpu/libgcc.a(_arm_addsubdf3.o)
                                                  /usr/lib/gcc/arm-none-eabi/4.9.3/armv7e-m/fpu/libgcc.a(_fixunssfdi.o)
                                                  /usr/lib/gcc/arm-none-eabi/4.9.3/../../../arm-none-eabi/lib/armv7e-m/fpu/libm.a(lib_a-s_rint.o)
__aeabi_f2d                                       /usr/lib/gcc/arm-none-eabi/4.9.3/armv7e-m/fpu/libgcc.a(_arm_addsubdf3.o)
                                                  /usr/lib/gcc/arm-none-eabi/4.9.3/armv7e-m/fpu/libgcc.a(_fixunssfdi.o)
                                                  /usr/lib/gcc/arm-none-eabi/4.9.3/../../../arm-none-eabi/lib/armv7e-m/fpu/libm.a(lib_a-wf_sqrt.o)
                                                  /usr/lib/gcc/arm-none-eabi/4.9.3/../../../arm-none-eabi/lib/armv7e-m/fpu/libm.a(lib_a-wf_pow.o)
__aeabi_f2lz                                      /usr/lib/gcc/arm-none-eabi/4.9.3/armv7e-m/fpu/libgcc.a(_fixsfdi.o)
                                                  /tmp/ccGYWBCE.ltrans13.ltrans.o
__aeabi_f2ulz                                     /usr/lib/gcc/arm-none-eabi/4.9.3/armv7e-m/fpu/libgcc.a(_fixunssfdi.o)
                                                  /usr/lib/gcc/arm-none-eabi/4.9.3/armv7e-m/fpu/libgcc.a(_fixsfdi.o)
__aeabi_i2d                                       /usr/lib/gcc/arm-none-eabi/4.9.3/armv7e-m/fpu/libgcc.a(_arm_addsubdf3.o)
__aeabi_idiv0                                     /usr/lib/gcc/arm-none-eabi/4.9.3/armv7e-m/fpu/libgcc.a(_dvmd_tls.o)
__aeabi_l2d                                       /usr/lib/gcc/arm-none-eabi/4.9.3/armv7e-m/fpu/libgcc.a(_arm_addsubdf3.o)
__aeabi_lasr                                      /usr/lib/gcc/arm-none-eabi/4.9.3/armv7e-m/fpu/libgcc.a(_ashrdi3.o)
                                                  /tmp/ccGYWBCE.ltrans13.ltrans.o
__aeabi_ldiv0                                     /usr/lib/gcc/arm-none-eabi/4.9.3/armv7e-m/fpu/libgcc.a(_dvmd_tls.o)
                                                  /usr/lib/gcc/arm-none-eabi/4.9.3/armv7e-m/fpu/libgcc.a(_aeabi_ldivmod.o)
__aeabi_ldivmod                                   /usr/lib/gcc/arm-none-eabi/4.9.3/armv7e-m/fpu/libgcc.a(_aeabi_ldivmod.o)
                                                  /tmp/ccGYWBCE.ltrans23.ltrans.o
__aeabi_ui2d                                      /usr/lib/gcc/arm-none-eabi/4.9.3/armv7e-m/fpu/libgcc.a(_arm_addsubdf3.o)
                                                  /usr/lib/gcc/arm-none-eabi/4.9.3/armv7e-m/fpu/libgcc.a(_fixunssfdi.o)
__aeabi_ul2d                                      /usr/lib/gcc/arm-none-eabi/4.9.3/armv7e-m/fpu/libgcc.a(_arm_addsubdf3.o)
__ashrdi3                                         /usr/lib/gcc/arm-none-eabi/4.9.3/armv7e-m/fpu/libgcc.a(_ashrdi3.o)
__cmpdf2                                          /usr/lib/gcc/arm-none-eabi/4.9.3/armv7e-m/fpu/libgcc.a(_arm_cmpdf2.o)
__ctype_ptr__                                     /usr/lib/gcc/arm-none-eabi/4.9.3/../../../arm-none-eabi/lib/armv7e-m/fpu/libc_nano.a(lib_a-ctype_.o)
                                                  /usr/lib/gcc/arm-none-eabi/4.9.3/../../../arm-none-eabi/lib/armv7e-m/fpu/libc_nano.a(lib_a-strncasecmp.o)
                                                  /usr/lib/gcc/arm-none-eabi/4.9.3/../../../arm-none-eabi/lib/armv7e-m/fpu/libc_nano.a(lib_a-strcasecmp.o)
                                                  /tmp/ccGYWBCE.ltrans22.ltrans.o
                                                  /tmp/ccGYWBCE.ltrans16.ltrans.o
                                                  /tmp/ccGYWBCE.ltrans2.ltrans.o
                                                  /usr/lib/gcc/arm-none-eabi/4.9.3/../../../arm-none-eabi/lib/armv7e-m/fpu/libc_nano.a(lib_a-strtol.o)
                                                  obj/main/SPRACINGF3/io/serial_cli.o (symbol from plugin)
                                                  obj/main/SPRACINGF3/flight/gps_conversion.o (symbol from plugin)
__divdf3                                          /usr/lib/gcc/arm-none-eabi/4.9.3/armv7e-m/fpu/libgcc.a(_arm_muldivdf3.o)
__divdi3                                          /usr/lib/gcc/arm-none-eabi/4.9.3/armv7e-m/fpu/libgcc.a(_divdi3.o)
                                                  /usr/lib/gcc/arm-none-eabi/4.9.3/armv7e-m/fpu/libgcc.a(bpabi.o)
__eqdf2                                           /usr/lib/gcc/arm-none-eabi/4.9.3/armv7e-m/fpu/libgcc.a(_arm_cmpdf2.o)
__errno                                           /usr/lib/gcc/arm-none-eabi/4.9.3/../../../arm-none-eabi/lib/armv7e-m/fpu/libc_nano.a(lib_a-errno.o)
                                                  /usr/lib/gcc/arm-none-eabi/4.9.3/../../../arm-none-eabi/lib/armv7e-m/fpu/libm.a(lib_a-wf_sqrt.o)
                                                  /usr/lib/gcc/arm-none-eabi/4.9.3/../../../arm-none-eabi/lib/armv7e-m/fpu/libm.a(lib_a-wf_pow.o)
__extendsfdf2                                     /usr/lib/gcc/arm-none-eabi/4.9.3/armv7e-m/fpu/libgcc.a(_arm_addsubdf3.o)
__fdlib_version                                   /usr/lib/gcc/arm-none-eabi/4.9.3/../../../arm-none-eabi/lib/armv7e-m/fpu/libm.a(lib_a-s_lib_ver.o)
                                                  /usr/lib/gcc/arm-none-eabi/4.9.3/../../../arm-none-eabi/lib/armv7e-m/fpu/libm.a(lib_a-wf_sqrt.o)
                                                  /usr/lib/gcc/arm-none-eabi/4.9.3/../../../arm-none-eabi/lib/armv7e-m/fpu/libm.a(lib_a-wf_pow.o)
__fixsfdi                                         /usr/lib/gcc/arm-none-eabi/4.9.3/armv7e-m/fpu/libgcc.a(_fixsfdi.o)
__fixunsdfsi                                      /usr/lib/gcc/arm-none-eabi/4.9.3/armv7e-m/fpu/libgcc.a(_arm_fixunsdfsi.o)
__fixunssfdi                                      /usr/lib/gcc/arm-none-eabi/4.9.3/armv7e-m/fpu/libgcc.a(_fixunssfdi.o)
__floatdidf                                       /usr/lib/gcc/arm-none-eabi/4.9.3/armv7e-m/fpu/libgcc.a(_arm_addsubdf3.o)
__floatsidf                                       /usr/lib/gcc/arm-none-eabi/4.9.3/armv7e-m/fpu/libgcc.a(_arm_addsubdf3.o)
__floatundidf                                     /usr/lib/gcc/arm-none-eabi/4.9.3/armv7e-m/fpu/libgcc.a(_arm_addsubdf3.o)
__floatunsidf                                     /usr/lib/gcc/arm-none-eabi/4.9.3/armv7e-m/fpu/libgcc.a(_arm_addsubdf3.o)
__fpclassifyf                                     /usr/lib/gcc/arm-none-eabi/4.9.3/../../../arm-none-eabi/lib/armv7e-m/fpu/libm.a(lib_a-sf_fpclassify.o)
                                                  /usr/lib/gcc/arm-none-eabi/4.9.3/../../../arm-none-eabi/lib/armv7e-m/fpu/libm.a(lib_a-wf_sqrt.o)
                                                  /usr/lib/gcc/arm-none-eabi/4.9.3/../../../arm-none-eabi/lib/armv7e-m/fpu/libm.a(lib_a-wf_pow.o)
__gedf2                                           /usr/lib/gcc/arm-none-eabi/4.9.3/armv7e-m/fpu/libgcc.a(_arm_cmpdf2.o)
__gnu_ldivmod_helper                              /usr/lib/gcc/arm-none-eabi/4.9.3/armv7e-m/fpu/libgcc.a(bpabi.o)
                                                  /usr/lib/gcc/arm-none-eabi/4.9.3/armv7e-m/fpu/libgcc.a(_aeabi_ldivmod.o)
__gnu_uldivmod_helper                             /usr/lib/gcc/arm-none-eabi/4.9.3/armv7e-m/fpu/libgcc.a(bpabi.o)
__gtdf2                                           /usr/lib/gcc/arm-none-eabi/4.9.3/armv7e-m/fpu/libgcc.a(_arm_cmpdf2.o)
__ieee754_powf                                    /usr/lib/gcc/arm-none-eabi/4.9.3/../../../arm-none-eabi/lib/armv7e-m/fpu/libm.a(lib_a-ef_pow.o)
                                                  /usr/lib/gcc/arm-none-eabi/4.9.3/../../../arm-none-eabi/lib/armv7e-m/fpu/libm.a(lib_a-wf_pow.o)
__ieee754_rem_pio2f                               /usr/lib/gcc/arm-none-eabi/4.9.3/../../../arm-none-eabi/lib/armv7e-m/fpu/libm.a(lib_a-ef_rem_pio2.o)
                                                  /usr/lib/gcc/arm-none-eabi/4.9.3/../../../arm-none-eabi/lib/armv7e-m/fpu/libm.a(lib_a-sf_tan.o)
__ieee754_sqrtf                                   /usr/lib/gcc/arm-none-eabi/4.9.3/../../../arm-none-eabi/lib/armv7e-m/fpu/libm.a(lib_a-ef_sqrt.o)
                                                  /usr/lib/gcc/arm-none-eabi/4.9.3/../../../arm-none-eabi/lib/armv7e-m/fpu/libm.a(lib_a-ef_pow.o)
                                                  /usr/lib/gcc/arm-none-eabi/4.9.3/../../../arm-none-eabi/lib/armv7e-m/fpu/libm.a(lib_a-wf_sqrt.o)
__kernel_rem_pio2f                                /usr/lib/gcc/arm-none-eabi/4.9.3/../../../arm-none-eabi/lib/armv7e-m/fpu/libm.a(lib_a-kf_rem_pio2.o)
                                                  /usr/lib/gcc/arm-none-eabi/4.9.3/../../../arm-none-eabi/lib/armv7e-m/fpu/libm.a(lib_a-ef_rem_pio2.o)
__kernel_tanf                                     /usr/lib/gcc/arm-none-eabi/4.9.3/../../../arm-none-eabi/lib/armv7e-m/fpu/libm.a(lib_a-kf_tan.o)
                                                  /usr/lib/gcc/arm-none-eabi/4.9.3/../../../arm-none-eabi/lib/armv7e-m/fpu/libm.a(lib_a-sf_tan.o)
__ledf2                                           /usr/lib/gcc/arm-none-eabi/4.9.3/armv7e-m/fpu/libgcc.a(_arm_cmpdf2.o)
__ltdf2                                           /usr/lib/gcc/arm-none-eabi/4.9.3/armv7e-m/fpu/libgcc.a(_arm_cmpdf2.o)
__malloc_free_list                                /usr/lib/gcc/arm-none-eabi/4.9.3/../../../arm-none-eabi/lib/armv7e-m/fpu/libc_nano.a(lib_a-nano-mallocr.o)
                                                  /usr/lib/gcc/arm-none-eabi/4.9.3/../../../arm-none-eabi/lib/armv7e-m/fpu/libc_nano.a(lib_a-nano-freer.o)
__malloc_sbrk_start                               /usr/lib/gcc/arm-none-eabi/4.9.3/../../../arm-none-eabi/lib/armv7e-m/fpu/libc_nano.a(lib_a-nano-mallocr.o)
__muldf3                                          /usr/lib/gcc/arm-none-eabi/4.9.3/armv7e-m/fpu/libgcc.a(_arm_muldivdf3.o)
__nedf2                                           /usr/lib/gcc/arm-none-eabi/4.9.3/armv7e-m/fpu/libgcc.a(_arm_cmpdf2.o)
__sf_fake_stderr                                  /usr/lib/gcc/arm-none-eabi/4.9.3/../../../arm-none-eabi/lib/armv7e-m/fpu/libc_nano.a(lib_a-impure.o)
__sf_fake_stdin                                   /usr/lib/gcc/arm-none-eabi/4.9.3/../../../arm-none-eabi/lib/armv7e-m/fpu/libc_nano.a(lib_a-impure.o)
__sf_fake_stdout                                  /usr/lib/gcc/arm-none-eabi/4.9.3/../../../arm-none-eabi/lib/armv7e-m/fpu/libc_nano.a(lib_a-impure.o)
__strtok_r                                        /usr/lib/gcc/arm-none-eabi/4.9.3/../../../arm-none-eabi/lib/armv7e-m/fpu/libc_nano.a(lib_a-strtok_r.o)
                                                  /usr/lib/gcc/arm-none-eabi/4.9.3/../../../arm-none-eabi/lib/armv7e-m/fpu/libc_nano.a(lib_a-strtok.o)
__subdf3                                          /usr/lib/gcc/arm-none-eabi/4.9.3/armv7e-m/fpu/libgcc.a(_arm_addsubdf3.o)
__truncdfsf2                                      /usr/lib/gcc/arm-none-eabi/4.9.3/armv7e-m/fpu/libgcc.a(_arm_truncdfsf2.o)
__udivdi3                                         /usr/lib/gcc/arm-none-eabi/4.9.3/armv7e-m/fpu/libgcc.a(_udivdi3.o)
                                                  /usr/lib/gcc/arm-none-eabi/4.9.3/armv7e-m/fpu/libgcc.a(bpabi.o)
_atoi_r                                           /usr/lib/gcc/arm-none-eabi/4.9.3/../../../arm-none-eabi/lib/armv7e-m/fpu/libc_nano.a(lib_a-atoi.o)
_ctype_                                           /usr/lib/gcc/arm-none-eabi/4.9.3/../../../arm-none-eabi/lib/armv7e-m/fpu/libc_nano.a(lib_a-ctype_.o)
_ebss                                             obj/main/SPRACINGF3/startup_stm32f30x_md_gcc.o
_edata                                            obj/main/SPRACINGF3/startup_stm32f30x_md_gcc.o
_estack                                           obj/main/SPRACINGF3/startup_stm32f30x_md_gcc.o
_free_r                                           /usr/lib/gcc/arm-none-eabi/4.9.3/../../../arm-none-eabi/lib/armv7e-m/fpu/libc_nano.a(lib_a-nano-freer.o)
                                                  /usr/lib/gcc/arm-none-eabi/4.9.3/../../../arm-none-eabi/lib/armv7e-m/fpu/libc_nano.a(lib_a-reent.o)
                                                  /usr/lib/gcc/arm-none-eabi/4.9.3/../../../arm-none-eabi/lib/armv7e-m/fpu/libc_nano.a(lib_a-malloc.o)
_global_impure_ptr                                /usr/lib/gcc/arm-none-eabi/4.9.3/../../../arm-none-eabi/lib/armv7e-m/fpu/libc_nano.a(lib_a-impure.o)
_i2a.lto_priv.175                                 /tmp/ccGYWBCE.ltrans20.ltrans.o
                                                  /tmp/ccGYWBCE.ltrans16.ltrans.o
_impure_ptr                                       /usr/lib/gcc/arm-none-eabi/4.9.3/../../../arm-none-eabi/lib/armv7e-m/fpu/libc_nano.a(lib_a-impure.o)
                                                  /usr/lib/gcc/arm-none-eabi/4.9.3/../../../arm-none-eabi/lib/armv7e-m/fpu/libc_nano.a(lib_a-errno.o)
                                                  /usr/lib/gcc/arm-none-eabi/4.9.3/../../../arm-none-eabi/lib/armv7e-m/fpu/libc_nano.a(lib_a-reent.o)
                                                  /usr/lib/gcc/arm-none-eabi/4.9.3/../../../arm-none-eabi/lib/armv7e-m/fpu/libc_nano.a(lib_a-malloc.o)
                                                  /usr/lib/gcc/arm-none-eabi/4.9.3/../../../arm-none-eabi/lib/armv7e-m/fpu/libc_nano.a(lib_a-strtol.o)
                                                  /usr/lib/gcc/arm-none-eabi/4.9.3/../../../arm-none-eabi/lib/armv7e-m/fpu/libc_nano.a(lib_a-strtok.o)
_malloc_r                                         /usr/lib/gcc/arm-none-eabi/4.9.3/../../../arm-none-eabi/lib/armv7e-m/fpu/libc_nano.a(lib_a-nano-mallocr.o)
                                                  /usr/lib/gcc/arm-none-eabi/4.9.3/../../../arm-none-eabi/lib/armv7e-m/fpu/libc_nano.a(lib_a-malloc.o)
_putc.lto_priv.447                                /tmp/ccGYWBCE.ltrans20.ltrans.o
                                                  /tmp/ccGYWBCE.ltrans0.ltrans.o
_reclaim_reent                                    /usr/lib/gcc/arm-none-eabi/4.9.3/../../../arm-none-eabi/lib/armv7e-m/fpu/libc_nano.a(lib_a-reent.o)
_sbrk                                             /usr/lib/gcc/arm-none-eabi/4.9.3/../../../arm-none-eabi/lib/armv7e-m/fpu/libnosys.a(sbrk.o)
                                                  /usr/lib/gcc/arm-none-eabi/4.9.3/../../../arm-none-eabi/lib/armv7e-m/fpu/libc_nano.a(lib_a-sbrkr.o)
_sbrk_r                                           /usr/lib/gcc/arm-none-eabi/4.9.3/../../../arm-none-eabi/lib/armv7e-m/fpu/libc_nano.a(lib_a-sbrkr.o)
                                                  /usr/lib/gcc/arm-none-eabi/4.9.3/../../../arm-none-eabi/lib/armv7e-m/fpu/libc_nano.a(lib_a-nano-mallocr.o)
_sbss                                             obj/main/SPRACINGF3/startup_stm32f30x_md_gcc.o
_sdata                                            obj/main/SPRACINGF3/startup_stm32f30x_md_gcc.o
_sidata                                           obj/main/SPRACINGF3/startup_stm32f30x_md_gcc.o
_strtol_r                                         /usr/lib/gcc/arm-none-eabi/4.9.3/../../../arm-none-eabi/lib/armv7e-m/fpu/libc_nano.a(lib_a-strtol.o)
                                                  /usr/lib/gcc/arm-none-eabi/4.9.3/../../../arm-none-eabi/lib/armv7e-m/fpu/libc_nano.a(lib_a-atoi.o)
_update_checksum                                  obj/main/SPRACINGF3/io/gps.o (symbol from plugin)
a2d                                               obj/main/SPRACINGF3/common/typeconversion.o (symbol from plugin)
a2i                                               obj/main/SPRACINGF3/common/typeconversion.o (symbol from plugin)
                                                  obj/main/SPRACINGF3/common/printf.o (symbol from plugin)
acc                                               /tmp/ccGYWBCE.ltrans22.ltrans.o
                                                  obj/main/SPRACINGF3/sensors/acceleration.o (symbol from plugin)
                                                  /tmp/ccGYWBCE.ltrans25.ltrans.o
                                                  /tmp/ccGYWBCE.ltrans0.ltrans.o
                                                  obj/main/SPRACINGF3/sensors/initialisation.o (symbol from plugin)
                                                  obj/main/SPRACINGF3/io/serial_cli.o (symbol from plugin)
accADC                                            /tmp/ccGYWBCE.ltrans25.ltrans.o
                                                  obj/main/SPRACINGF3/sensors/acceleration.o (symbol from plugin)
                                                  /tmp/ccGYWBCE.ltrans1.ltrans.o
                                                  obj/main/SPRACINGF3/flight/imu.o (symbol from plugin)
accAlign                                          /tmp/ccGYWBCE.ltrans25.ltrans.o
                                                  obj/main/SPRACINGF3/sensors/acceleration.o (symbol from plugin)
                                                  /tmp/ccGYWBCE.ltrans0.ltrans.o
                                                  obj/main/SPRACINGF3/sensors/initialisation.o (symbol from plugin)
accDeadband.lto_priv.482                          /tmp/ccGYWBCE.ltrans1.ltrans.o
                                                  /tmp/ccGYWBCE.ltrans10.ltrans.o
accSetCalibrationCycles                           obj/main/SPRACINGF3/sensors/acceleration.o (symbol from plugin)
                                                  obj/main/SPRACINGF3/io/serial_msp.o (symbol from plugin)
                                                  obj/main/SPRACINGF3/io/rc_controls.o (symbol from plugin)
                                                  obj/main/SPRACINGF3/main.o (symbol from plugin)
accSmooth                                         /tmp/ccGYWBCE.ltrans5.ltrans.o
                                                  obj/main/SPRACINGF3/flight/imu.o (symbol from plugin)
                                                  /tmp/ccGYWBCE.ltrans19.ltrans.o
                                                  /tmp/ccGYWBCE.ltrans9.ltrans.o
                                                  /tmp/ccGYWBCE.ltrans2.ltrans.o
                                                  /tmp/ccGYWBCE.ltrans1.ltrans.o
                                                  obj/main/SPRACINGF3/io/serial_msp.o (symbol from plugin)
                                                  obj/main/SPRACINGF3/blackbox/blackbox.o (symbol from plugin)
                                                  obj/main/SPRACINGF3/telemetry/smartport.o (symbol from plugin)
                                                  obj/main/SPRACINGF3/telemetry/frsky.o (symbol from plugin)
                                                  obj/main/SPRACINGF3/io/display.o (symbol from plugin)
accSum                                            /tmp/ccGYWBCE.ltrans17.ltrans.o
                                                  obj/main/SPRACINGF3/flight/imu.o (symbol from plugin)
                                                  /tmp/ccGYWBCE.ltrans1.ltrans.o
                                                  obj/main/SPRACINGF3/flight/altitudehold.o (symbol from plugin)
accSumCount                                       /tmp/ccGYWBCE.ltrans17.ltrans.o
                                                  obj/main/SPRACINGF3/flight/imu.o (symbol from plugin)
                                                  /tmp/ccGYWBCE.ltrans1.ltrans.o
                                                  obj/main/SPRACINGF3/flight/altitudehold.o (symbol from plugin)
accTimeSum                                        /tmp/ccGYWBCE.ltrans17.ltrans.o
                                                  obj/main/SPRACINGF3/flight/imu.o (symbol from plugin)
                                                  /tmp/ccGYWBCE.ltrans1.ltrans.o
                                                  obj/main/SPRACINGF3/flight/altitudehold.o (symbol from plugin)
accVelScale                                       /tmp/ccGYWBCE.ltrans17.ltrans.o
                                                  obj/main/SPRACINGF3/flight/imu.o (symbol from plugin)
                                                  /tmp/ccGYWBCE.ltrans0.ltrans.o
                                                  obj/main/SPRACINGF3/flight/altitudehold.o (symbol from plugin)
acc_1G                                            /tmp/ccGYWBCE.ltrans5.ltrans.o
                                                  obj/main/SPRACINGF3/sensors/acceleration.o (symbol from plugin)
                                                  /tmp/ccGYWBCE.ltrans25.ltrans.o
                                                  /tmp/ccGYWBCE.ltrans15.ltrans.o
                                                  /tmp/ccGYWBCE.ltrans2.ltrans.o
                                                  /tmp/ccGYWBCE.ltrans1.ltrans.o
                                                  /tmp/ccGYWBCE.ltrans0.ltrans.o
                                                  obj/main/SPRACINGF3/io/serial_msp.o (symbol from plugin)
                                                  obj/main/SPRACINGF3/flight/imu.o (symbol from plugin)
                                                  obj/main/SPRACINGF3/blackbox/blackbox.o (symbol from plugin)
                                                  obj/main/SPRACINGF3/telemetry/frsky.o (symbol from plugin)
                                                  obj/main/SPRACINGF3/drivers/accgyro_mpu6050.o (symbol from plugin)
accelerationTrims.lto_priv.486                    /tmp/ccGYWBCE.ltrans25.ltrans.o
                                                  /tmp/ccGYWBCE.ltrans10.ltrans.o
acosf                                             /tmp/ccGYWBCE.ltrans20.ltrans.o
                                                  /tmp/ccGYWBCE.ltrans1.ltrans.o
activateConfig                                    obj/main/SPRACINGF3/config/config.o (symbol from plugin)
activateControlRateConfig                         /tmp/ccGYWBCE.ltrans10.ltrans.o
                                                  obj/main/SPRACINGF3/config/config.o (symbol from plugin)
                                                  /tmp/ccGYWBCE.ltrans22.ltrans.o
                                                  /tmp/ccGYWBCE.ltrans3.ltrans.o
activeBoxIdCount.lto_priv.312                     /tmp/ccGYWBCE.ltrans8.ltrans.o
                                                  /tmp/ccGYWBCE.ltrans2.ltrans.o
                                                  /tmp/ccGYWBCE.ltrans0.ltrans.o
activeBoxIds.lto_priv.313                         /tmp/ccGYWBCE.ltrans8.ltrans.o
                                                  /tmp/ccGYWBCE.ltrans2.ltrans.o
                                                  /tmp/ccGYWBCE.ltrans0.ltrans.o
activeFeaturesLatch.lto_priv.178                  /tmp/ccGYWBCE.ltrans16.ltrans.o
                                                  /tmp/ccGYWBCE.ltrans25.ltrans.o
                                                  /tmp/ccGYWBCE.ltrans23.ltrans.o
                                                  /tmp/ccGYWBCE.ltrans22.ltrans.o
                                                  /tmp/ccGYWBCE.ltrans20.ltrans.o
                                                  /tmp/ccGYWBCE.ltrans19.ltrans.o
                                                  /tmp/ccGYWBCE.ltrans18.ltrans.o
                                                  /tmp/ccGYWBCE.ltrans17.ltrans.o
                                                  /tmp/ccGYWBCE.ltrans14.ltrans.o
                                                  /tmp/ccGYWBCE.ltrans13.ltrans.o
                                                  /tmp/ccGYWBCE.ltrans9.ltrans.o
                                                  /tmp/ccGYWBCE.ltrans8.ltrans.o
                                                  /tmp/ccGYWBCE.ltrans7.ltrans.o
                                                  /tmp/ccGYWBCE.ltrans6.ltrans.o
                                                  /tmp/ccGYWBCE.ltrans5.ltrans.o
                                                  /tmp/ccGYWBCE.ltrans3.ltrans.o
                                                  /tmp/ccGYWBCE.ltrans1.ltrans.o
                                                  /tmp/ccGYWBCE.ltrans0.ltrans.o
adcConfig                                         /tmp/ccGYWBCE.ltrans8.ltrans.o
                                                  obj/main/SPRACINGF3/drivers/adc.o (symbol from plugin)
                                                  /tmp/ccGYWBCE.ltrans23.ltrans.o
                                                  /tmp/ccGYWBCE.ltrans3.ltrans.o
                                                  /tmp/ccGYWBCE.ltrans0.ltrans.o
                                                  obj/main/SPRACINGF3/drivers/adc_stm32f30x.o (symbol from plugin)
adcGetChannel                                     obj/main/SPRACINGF3/drivers/adc.o (symbol from plugin)
                                                  obj/main/SPRACINGF3/sensors/battery.o (symbol from plugin)
                                                  obj/main/SPRACINGF3/rx/rx.o (symbol from plugin)
adcInit                                           obj/main/SPRACINGF3/drivers/adc_stm32f30x.o (symbol from plugin)
                                                  obj/main/SPRACINGF3/main.o (symbol from plugin)
adcValues                                         /tmp/ccGYWBCE.ltrans8.ltrans.o
                                                  obj/main/SPRACINGF3/drivers/adc.o (symbol from plugin)
                                                  /tmp/ccGYWBCE.ltrans23.ltrans.o
                                                  /tmp/ccGYWBCE.ltrans3.ltrans.o
                                                  /tmp/ccGYWBCE.ltrans0.ltrans.o
                                                  obj/main/SPRACINGF3/drivers/adc_stm32f30x.o (symbol from plugin)
addGPSCoordinates                                 obj/main/SPRACINGF3/telemetry/hott.o (symbol from plugin)
adjustmentStateMask                               obj/main/SPRACINGF3/io/rc_controls.o (symbol from plugin)
adjustmentStates                                  /tmp/ccGYWBCE.ltrans3.ltrans.o
                                                  obj/main/SPRACINGF3/io/rc_controls.o (symbol from plugin)
                                                  /tmp/ccGYWBCE.ltrans10.ltrans.o
ak8975Init                                        /tmp/ccGYWBCE.ltrans15.ltrans.o
                                                  obj/main/SPRACINGF3/drivers/compass_ak8975.o (symbol from plugin)
                                                  /tmp/ccGYWBCE.ltrans0.ltrans.o
ak8975Read                                        /tmp/ccGYWBCE.ltrans15.ltrans.o
                                                  obj/main/SPRACINGF3/drivers/compass_ak8975.o (symbol from plugin)
                                                  /tmp/ccGYWBCE.ltrans0.ltrans.o
ak8975detect                                      obj/main/SPRACINGF3/drivers/compass_ak8975.o (symbol from plugin)
                                                  obj/main/SPRACINGF3/sensors/initialisation.o (symbol from plugin)
alignSensors                                      /tmp/ccGYWBCE.ltrans8.ltrans.o
                                                  obj/main/SPRACINGF3/sensors/boardalignment.o (symbol from plugin)
                                                  /tmp/ccGYWBCE.ltrans25.ltrans.o
                                                  /tmp/ccGYWBCE.ltrans17.ltrans.o
                                                  /tmp/ccGYWBCE.ltrans1.ltrans.o
                                                  obj/main/SPRACINGF3/sensors/gyro.o (symbol from plugin)
                                                  obj/main/SPRACINGF3/sensors/compass.o (symbol from plugin)
                                                  obj/main/SPRACINGF3/sensors/acceleration.o (symbol from plugin)
altHoldThrottleAdjustment                         /tmp/ccGYWBCE.ltrans17.ltrans.o
                                                  obj/main/SPRACINGF3/flight/altitudehold.o (symbol from plugin)
                                                  /tmp/ccGYWBCE.ltrans3.ltrans.o
                                                  /tmp/ccGYWBCE.ltrans1.ltrans.o
altitudeHoldGetEstimatedAltitude                  obj/main/SPRACINGF3/flight/altitudehold.o (symbol from plugin)
                                                  obj/main/SPRACINGF3/io/serial_msp.o (symbol from plugin)
                                                  obj/main/SPRACINGF3/telemetry/ltm.o (symbol from plugin)
amperage                                          /tmp/ccGYWBCE.ltrans5.ltrans.o
                                                  obj/main/SPRACINGF3/sensors/battery.o (symbol from plugin)
                                                  /tmp/ccGYWBCE.ltrans23.ltrans.o
                                                  /tmp/ccGYWBCE.ltrans19.ltrans.o
                                                  /tmp/ccGYWBCE.ltrans2.ltrans.o
                                                  obj/main/SPRACINGF3/io/serial_msp.o (symbol from plugin)
                                                  obj/main/SPRACINGF3/telemetry/smartport.o (symbol from plugin)
                                                  obj/main/SPRACINGF3/telemetry/hott.o (symbol from plugin)
                                                  obj/main/SPRACINGF3/telemetry/frsky.o (symbol from plugin)
                                                  obj/main/SPRACINGF3/io/display.o (symbol from plugin)
amperageLatestADC                                 /tmp/ccGYWBCE.ltrans23.ltrans.o
                                                  obj/main/SPRACINGF3/sensors/battery.o (symbol from plugin)
                                                  /tmp/ccGYWBCE.ltrans9.ltrans.o
                                                  obj/main/SPRACINGF3/blackbox/blackbox.o (symbol from plugin)
annexCode                                         obj/main/SPRACINGF3/mw.o (symbol from plugin)
applyAccelerationTrims                            obj/main/SPRACINGF3/sensors/acceleration.o (symbol from plugin)
applyAltHold                                      obj/main/SPRACINGF3/flight/altitudehold.o (symbol from plugin)
                                                  obj/main/SPRACINGF3/mw.o (symbol from plugin)
applyAndSaveAccelerometerTrimsDelta               obj/main/SPRACINGF3/mw.o (symbol from plugin)
                                                  obj/main/SPRACINGF3/io/rc_controls.o (symbol from plugin)
applyBiQuadFilter                                 /tmp/ccGYWBCE.ltrans20.ltrans.o
                                                  obj/main/SPRACINGF3/common/filter.o (symbol from plugin)
                                                  /tmp/ccGYWBCE.ltrans13.ltrans.o
                                                  /tmp/ccGYWBCE.ltrans1.ltrans.o
                                                  obj/main/SPRACINGF3/sensors/gyro.o (symbol from plugin)
                                                  obj/main/SPRACINGF3/flight/pid.o (symbol from plugin)
applyChangedBits                                  obj/main/SPRACINGF3/drivers/serial_softserial.o (symbol from plugin)
applyDeadband                                     /tmp/ccGYWBCE.ltrans20.ltrans.o
                                                  obj/main/SPRACINGF3/common/maths.o (symbol from plugin)
                                                  /tmp/ccGYWBCE.ltrans17.ltrans.o
                                                  /tmp/ccGYWBCE.ltrans1.ltrans.o
                                                  obj/main/SPRACINGF3/flight/imu.o (symbol from plugin)
                                                  obj/main/SPRACINGF3/flight/altitudehold.o (symbol from plugin)
applyDefaultColors                                obj/main/SPRACINGF3/io/ledstrip.o (symbol from plugin)
                                                  obj/main/SPRACINGF3/config/config.o (symbol from plugin)
applyDefaultLedStripConfig                        obj/main/SPRACINGF3/io/ledstrip.o (symbol from plugin)
                                                  obj/main/SPRACINGF3/config/config.o (symbol from plugin)
applyDirectionalModeColor                         /tmp/ccGYWBCE.ltrans19.ltrans.o
                                                  obj/main/SPRACINGF3/io/ledstrip.o (symbol from plugin)
                                                  /tmp/ccGYWBCE.ltrans6.ltrans.o
applyLedIndicatorLayer                            obj/main/SPRACINGF3/io/ledstrip.o (symbol from plugin)
applyLedModeLayer                                 obj/main/SPRACINGF3/io/ledstrip.o (symbol from plugin)
applyLedThrottleLayer                             obj/main/SPRACINGF3/io/ledstrip.o (symbol from plugin)
applyLedThrustRingLayer                           obj/main/SPRACINGF3/io/ledstrip.o (symbol from plugin)
applyLedWarningLayer                              obj/main/SPRACINGF3/io/ledstrip.o (symbol from plugin)
applyQuadrantColor                                obj/main/SPRACINGF3/io/ledstrip.o (symbol from plugin)
applySelectAdjustment                             obj/main/SPRACINGF3/io/rc_controls.o (symbol from plugin)
applyStepAdjustment                               obj/main/SPRACINGF3/io/rc_controls.o (symbol from plugin)
areSticksInApModePosition                         obj/main/SPRACINGF3/io/rc_controls.o (symbol from plugin)
                                                  obj/main/SPRACINGF3/flight/navigation.o (symbol from plugin)
armingBeepTimeMicros.lto_priv.370                 /tmp/ccGYWBCE.ltrans23.ltrans.o
                                                  /tmp/ccGYWBCE.ltrans18.ltrans.o
                                                  /tmp/ccGYWBCE.ltrans9.ltrans.o
armingFlags                                       /tmp/ccGYWBCE.ltrans8.ltrans.o
                                                  obj/main/SPRACINGF3/config/runtime_config.o (symbol from plugin)
                                                  /tmp/ccGYWBCE.ltrans24.ltrans.o
                                                  /tmp/ccGYWBCE.ltrans23.ltrans.o
                                                  /tmp/ccGYWBCE.ltrans19.ltrans.o
                                                  /tmp/ccGYWBCE.ltrans18.ltrans.o
                                                  /tmp/ccGYWBCE.ltrans13.ltrans.o
                                                  /tmp/ccGYWBCE.ltrans11.ltrans.o
                                                  /tmp/ccGYWBCE.ltrans6.ltrans.o
                                                  /tmp/ccGYWBCE.ltrans5.ltrans.o
                                                  /tmp/ccGYWBCE.ltrans3.ltrans.o
                                                  /tmp/ccGYWBCE.ltrans2.ltrans.o
                                                  /tmp/ccGYWBCE.ltrans1.ltrans.o
                                                  /tmp/ccGYWBCE.ltrans0.ltrans.o
                                                  obj/main/SPRACINGF3/sensors/battery.o (symbol from plugin)
                                                  obj/main/SPRACINGF3/io/serial_msp.o (symbol from plugin)
                                                  obj/main/SPRACINGF3/io/serial_cli.o (symbol from plugin)
                                                  obj/main/SPRACINGF3/io/rc_controls.o (symbol from plugin)
                                                  obj/main/SPRACINGF3/flight/mixer.o (symbol from plugin)
                                                  obj/main/SPRACINGF3/flight/imu.o (symbol from plugin)
                                                  obj/main/SPRACINGF3/flight/pid.o (symbol from plugin)
                                                  obj/main/SPRACINGF3/flight/failsafe.o (symbol from plugin)
                                                  obj/main/SPRACINGF3/mw.o (symbol from plugin)
                                                  obj/main/SPRACINGF3/main.o (symbol from plugin)
                                                  obj/main/SPRACINGF3/telemetry/ltm.o (symbol from plugin)
                                                  obj/main/SPRACINGF3/telemetry/smartport.o (symbol from plugin)
                                                  obj/main/SPRACINGF3/telemetry/frsky.o (symbol from plugin)
                                                  obj/main/SPRACINGF3/telemetry/telemetry.o (symbol from plugin)
                                                  obj/main/SPRACINGF3/io/display.o (symbol from plugin)
                                                  obj/main/SPRACINGF3/io/ledstrip.o (symbol from plugin)
                                                  obj/main/SPRACINGF3/flight/navigation.o (symbol from plugin)
arraySubInt32                                     obj/main/SPRACINGF3/common/maths.o (symbol from plugin)
                                                  obj/main/SPRACINGF3/blackbox/blackbox.o (symbol from plugin)
atan2f                                            /tmp/ccGYWBCE.ltrans20.ltrans.o
                                                  /tmp/ccGYWBCE.ltrans11.ltrans.o
                                                  /tmp/ccGYWBCE.ltrans1.ltrans.o
atoi                                              /usr/lib/gcc/arm-none-eabi/4.9.3/../../../arm-none-eabi/lib/armv7e-m/fpu/libc_nano.a(lib_a-atoi.o)
                                                  /tmp/ccGYWBCE.ltrans22.ltrans.o
                                                  /tmp/ccGYWBCE.ltrans12.ltrans.o
                                                  /tmp/ccGYWBCE.ltrans7.ltrans.o
                                                  obj/main/SPRACINGF3/io/serial_cli.o (symbol from plugin)
                                                  obj/main/SPRACINGF3/io/ledstrip.o (symbol from plugin)
attitude                                          /tmp/ccGYWBCE.ltrans13.ltrans.o
                                                  obj/main/SPRACINGF3/flight/imu.o (symbol from plugin)
                                                  /tmp/ccGYWBCE.ltrans19.ltrans.o
                                                  /tmp/ccGYWBCE.ltrans18.ltrans.o
                                                  /tmp/ccGYWBCE.ltrans17.ltrans.o
                                                  /tmp/ccGYWBCE.ltrans14.ltrans.o
                                                  /tmp/ccGYWBCE.ltrans5.ltrans.o
                                                  /tmp/ccGYWBCE.ltrans3.ltrans.o
                                                  /tmp/ccGYWBCE.ltrans2.ltrans.o
                                                  /tmp/ccGYWBCE.ltrans1.ltrans.o
                                                  obj/main/SPRACINGF3/io/serial_msp.o (symbol from plugin)
                                                  obj/main/SPRACINGF3/flight/mixer.o (symbol from plugin)
                                                  obj/main/SPRACINGF3/flight/pid.o (symbol from plugin)
                                                  obj/main/SPRACINGF3/flight/altitudehold.o (symbol from plugin)
                                                  obj/main/SPRACINGF3/mw.o (symbol from plugin)
                                                  obj/main/SPRACINGF3/telemetry/ltm.o (symbol from plugin)
                                                  obj/main/SPRACINGF3/telemetry/smartport.o (symbol from plugin)
                                                  obj/main/SPRACINGF3/telemetry/frsky.o (symbol from plugin)
                                                  obj/main/SPRACINGF3/io/display.o (symbol from plugin)
                                                  obj/main/SPRACINGF3/flight/navigation.o (symbol from plugin)
averageSystemLoadPercent                          /tmp/ccGYWBCE.ltrans22.ltrans.o
                                                  obj/main/SPRACINGF3/scheduler.o (symbol from plugin)
                                                  /tmp/ccGYWBCE.ltrans20.ltrans.o
                                                  /tmp/ccGYWBCE.ltrans2.ltrans.o
                                                  /tmp/ccGYWBCE.ltrans1.ltrans.o
                                                  obj/main/SPRACINGF3/io/serial_msp.o (symbol from plugin)
                                                  obj/main/SPRACINGF3/io/serial_cli.o (symbol from plugin)
                                                  obj/main/SPRACINGF3/mw.o (symbol from plugin)
axis                                              obj/main/SPRACINGF3/sensors/gyro.o (symbol from plugin)
axisPID                                           /tmp/ccGYWBCE.ltrans13.ltrans.o
                                                  obj/main/SPRACINGF3/flight/pid.o (symbol from plugin)
                                                  /tmp/ccGYWBCE.ltrans1.ltrans.o
                                                  obj/main/SPRACINGF3/flight/mixer.o (symbol from plugin)
axisPID_D                                         /tmp/ccGYWBCE.ltrans13.ltrans.o
                                                  obj/main/SPRACINGF3/flight/pid.o (symbol from plugin)
                                                  /tmp/ccGYWBCE.ltrans9.ltrans.o
                                                  obj/main/SPRACINGF3/blackbox/blackbox.o (symbol from plugin)
axisPID_I                                         /tmp/ccGYWBCE.ltrans13.ltrans.o
                                                  obj/main/SPRACINGF3/flight/pid.o (symbol from plugin)
                                                  /tmp/ccGYWBCE.ltrans9.ltrans.o
                                                  obj/main/SPRACINGF3/blackbox/blackbox.o (symbol from plugin)
axisPID_P                                         /tmp/ccGYWBCE.ltrans13.ltrans.o
                                                  obj/main/SPRACINGF3/flight/pid.o (symbol from plugin)
                                                  /tmp/ccGYWBCE.ltrans9.ltrans.o
                                                  obj/main/SPRACINGF3/blackbox/blackbox.o (symbol from plugin)
baro                                              /tmp/ccGYWBCE.ltrans17.ltrans.o
                                                  obj/main/SPRACINGF3/sensors/barometer.o (symbol from plugin)
                                                  /tmp/ccGYWBCE.ltrans0.ltrans.o
                                                  obj/main/SPRACINGF3/sensors/initialisation.o (symbol from plugin)
baroCalculateAltitude                             obj/main/SPRACINGF3/sensors/barometer.o (symbol from plugin)
                                                  obj/main/SPRACINGF3/flight/altitudehold.o (symbol from plugin)
baroPressure                                      obj/main/SPRACINGF3/sensors/barometer.o (symbol from plugin)
baroSetCalibrationCycles                          obj/main/SPRACINGF3/sensors/barometer.o (symbol from plugin)
                                                  obj/main/SPRACINGF3/io/rc_controls.o (symbol from plugin)
                                                  obj/main/SPRACINGF3/main.o (symbol from plugin)
baroTemperature                                   /tmp/ccGYWBCE.ltrans5.ltrans.o
                                                  obj/main/SPRACINGF3/sensors/barometer.o (symbol from plugin)
                                                  /tmp/ccGYWBCE.ltrans17.ltrans.o
                                                  obj/main/SPRACINGF3/telemetry/frsky.o (symbol from plugin)
baroUpdate                                        obj/main/SPRACINGF3/sensors/barometer.o (symbol from plugin)
                                                  obj/main/SPRACINGF3/mw.o (symbol from plugin)
baro_cf_alt                                       obj/main/SPRACINGF3/sensors/sonar.o (symbol from plugin)
baro_cf_vel                                       obj/main/SPRACINGF3/sensors/sonar.o (symbol from plugin)
barometerConfig.lto_priv.252                      /tmp/ccGYWBCE.ltrans17.ltrans.o
                                                  /tmp/ccGYWBCE.ltrans10.ltrans.o
barometerConfig.lto_priv.253                      /tmp/ccGYWBCE.ltrans17.ltrans.o
                                                  /tmp/ccGYWBCE.ltrans10.ltrans.o
batteryAdcToVoltage                               /tmp/ccGYWBCE.ltrans8.ltrans.o
                                                  obj/main/SPRACINGF3/sensors/battery.o (symbol from plugin)
                                                  /tmp/ccGYWBCE.ltrans23.ltrans.o
batteryCellCount                                  /tmp/ccGYWBCE.ltrans22.ltrans.o
                                                  obj/main/SPRACINGF3/sensors/battery.o (symbol from plugin)
                                                  /tmp/ccGYWBCE.ltrans23.ltrans.o
                                                  /tmp/ccGYWBCE.ltrans19.ltrans.o
                                                  /tmp/ccGYWBCE.ltrans5.ltrans.o
                                                  /tmp/ccGYWBCE.ltrans0.ltrans.o
                                                  obj/main/SPRACINGF3/io/serial_cli.o (symbol from plugin)
                                                  obj/main/SPRACINGF3/telemetry/frsky.o (symbol from plugin)
                                                  obj/main/SPRACINGF3/io/display.o (symbol from plugin)
batteryConfig                                     /tmp/ccGYWBCE.ltrans8.ltrans.o
                                                  obj/main/SPRACINGF3/sensors/battery.o (symbol from plugin)
                                                  /tmp/ccGYWBCE.ltrans23.ltrans.o
                                                  /tmp/ccGYWBCE.ltrans19.ltrans.o
                                                  /tmp/ccGYWBCE.ltrans5.ltrans.o
                                                  /tmp/ccGYWBCE.ltrans0.ltrans.o
                                                  obj/main/SPRACINGF3/telemetry/frsky.o (symbol from plugin)
batteryCriticalVoltage                            /tmp/ccGYWBCE.ltrans23.ltrans.o
                                                  obj/main/SPRACINGF3/sensors/battery.o (symbol from plugin)
                                                  /tmp/ccGYWBCE.ltrans0.ltrans.o
batteryInit                                       obj/main/SPRACINGF3/sensors/battery.o (symbol from plugin)
                                                  obj/main/SPRACINGF3/main.o (symbol from plugin)
batteryState.lto_priv.236                         /tmp/ccGYWBCE.ltrans22.ltrans.o
                                                  /tmp/ccGYWBCE.ltrans23.ltrans.o
                                                  /tmp/ccGYWBCE.ltrans6.ltrans.o
                                                  /tmp/ccGYWBCE.ltrans5.ltrans.o
                                                  /tmp/ccGYWBCE.ltrans0.ltrans.o
batteryStateStrings                               obj/main/SPRACINGF3/sensors/battery.o (symbol from plugin)
batteryWarningVoltage                             /tmp/ccGYWBCE.ltrans23.ltrans.o
                                                  obj/main/SPRACINGF3/sensors/battery.o (symbol from plugin)
                                                  /tmp/ccGYWBCE.ltrans0.ltrans.o
baudRates                                         /tmp/ccGYWBCE.ltrans16.ltrans.o
                                                  obj/main/SPRACINGF3/io/serial.o (symbol from plugin)
                                                  /tmp/ccGYWBCE.ltrans24.ltrans.o
                                                  /tmp/ccGYWBCE.ltrans18.ltrans.o
                                                  /tmp/ccGYWBCE.ltrans17.ltrans.o
                                                  /tmp/ccGYWBCE.ltrans7.ltrans.o
                                                  obj/main/SPRACINGF3/io/serial_msp.o (symbol from plugin)
                                                  obj/main/SPRACINGF3/io/serial_cli.o (symbol from plugin)
                                                  obj/main/SPRACINGF3/blackbox/blackbox_io.o (symbol from plugin)
                                                  obj/main/SPRACINGF3/telemetry/ltm.o (symbol from plugin)
                                                  obj/main/SPRACINGF3/io/gps.o (symbol from plugin)
beepInverted.lto_priv.444                         /tmp/ccGYWBCE.ltrans13.ltrans.o
                                                  /tmp/ccGYWBCE.ltrans0.ltrans.o
beepNormal.lto_priv.445                           /tmp/ccGYWBCE.ltrans13.ltrans.o
beep_2longerBeeps.lto_priv.226                    /tmp/ccGYWBCE.ltrans22.ltrans.o
beep_2shortBeeps.lto_priv.225                     /tmp/ccGYWBCE.ltrans22.ltrans.o
beep_armedBeep.lto_priv.229                       /tmp/ccGYWBCE.ltrans22.ltrans.o
beep_armedGpsFix.lto_priv.221                     /tmp/ccGYWBCE.ltrans22.ltrans.o
beep_armingBeep.lto_priv.220                      /tmp/ccGYWBCE.ltrans22.ltrans.o
beep_critBatteryBeep.lto_priv.222                 /tmp/ccGYWBCE.ltrans22.ltrans.o
beep_disarmBeep.lto_priv.219                      /tmp/ccGYWBCE.ltrans22.ltrans.o
beep_disarmRepeatBeep.lto_priv.228                /tmp/ccGYWBCE.ltrans22.ltrans.o
beep_gyroCalibrated.lto_priv.216                  /tmp/ccGYWBCE.ltrans22.ltrans.o
beep_lowBatteryBeep.lto_priv.223                  /tmp/ccGYWBCE.ltrans22.ltrans.o
beep_multiBeeps.lto_priv.213                      /tmp/ccGYWBCE.ltrans22.ltrans.o
                                                  /tmp/ccGYWBCE.ltrans23.ltrans.o
                                                  /tmp/ccGYWBCE.ltrans7.ltrans.o
beep_readyBeep.lto_priv.227                       /tmp/ccGYWBCE.ltrans22.ltrans.o
beep_shortBeep.lto_priv.224                       /tmp/ccGYWBCE.ltrans22.ltrans.o
beep_sos.lto_priv.217                             /tmp/ccGYWBCE.ltrans22.ltrans.o
beep_txLostBeep.lto_priv.218                      /tmp/ccGYWBCE.ltrans22.ltrans.o
beeper                                            /tmp/ccGYWBCE.ltrans7.ltrans.o
                                                  obj/main/SPRACINGF3/io/beeper.o (symbol from plugin)
                                                  /tmp/ccGYWBCE.ltrans25.ltrans.o
                                                  /tmp/ccGYWBCE.ltrans23.ltrans.o
                                                  /tmp/ccGYWBCE.ltrans22.ltrans.o
                                                  /tmp/ccGYWBCE.ltrans18.ltrans.o
                                                  /tmp/ccGYWBCE.ltrans3.ltrans.o
                                                  /tmp/ccGYWBCE.ltrans1.ltrans.o
                                                  obj/main/SPRACINGF3/sensors/gyro.o (symbol from plugin)
                                                  obj/main/SPRACINGF3/sensors/battery.o (symbol from plugin)
                                                  obj/main/SPRACINGF3/sensors/acceleration.o (symbol from plugin)
                                                  obj/main/SPRACINGF3/io/serial_cli.o (symbol from plugin)
                                                  obj/main/SPRACINGF3/io/rc_controls.o (symbol from plugin)
                                                  obj/main/SPRACINGF3/flight/failsafe.o (symbol from plugin)
                                                  obj/main/SPRACINGF3/mw.o (symbol from plugin)
                                                  obj/main/SPRACINGF3/flight/navigation.o (symbol from plugin)
beeperConfirmationBeeps                           /tmp/ccGYWBCE.ltrans7.ltrans.o
                                                  obj/main/SPRACINGF3/io/beeper.o (symbol from plugin)
                                                  /tmp/ccGYWBCE.ltrans20.ltrans.o
                                                  /tmp/ccGYWBCE.ltrans18.ltrans.o
                                                  /tmp/ccGYWBCE.ltrans3.ltrans.o
                                                  obj/main/SPRACINGF3/io/rc_controls.o (symbol from plugin)
                                                  obj/main/SPRACINGF3/mw.o (symbol from plugin)
                                                  obj/main/SPRACINGF3/config/runtime_config.o (symbol from plugin)
                                                  obj/main/SPRACINGF3/config/config.o (symbol from plugin)
beeperGpsStatus                                   obj/main/SPRACINGF3/io/beeper.o (symbol from plugin)
beeperInit                                        obj/main/SPRACINGF3/drivers/sound_beeper.o (symbol from plugin)
                                                  obj/main/SPRACINGF3/main.o (symbol from plugin)
beeperIsOn.lto_priv.302                           /tmp/ccGYWBCE.ltrans7.ltrans.o
                                                  /tmp/ccGYWBCE.ltrans23.ltrans.o
beeperModeForTableIndex                           obj/main/SPRACINGF3/io/beeper.o (symbol from plugin)
                                                  obj/main/SPRACINGF3/io/serial_cli.o (symbol from plugin)
beeperNameForTableIndex                           obj/main/SPRACINGF3/io/beeper.o (symbol from plugin)
                                                  obj/main/SPRACINGF3/io/serial_cli.o (symbol from plugin)
beeperNextToggleTime.lto_priv.301                 /tmp/ccGYWBCE.ltrans7.ltrans.o
                                                  /tmp/ccGYWBCE.ltrans23.ltrans.o
beeperPos.lto_priv.303                            /tmp/ccGYWBCE.ltrans7.ltrans.o
                                                  /tmp/ccGYWBCE.ltrans23.ltrans.o
beeperSilence                                     /tmp/ccGYWBCE.ltrans7.ltrans.o
                                                  obj/main/SPRACINGF3/io/beeper.o (symbol from plugin)
                                                  /tmp/ccGYWBCE.ltrans23.ltrans.o
                                                  /tmp/ccGYWBCE.ltrans22.ltrans.o
                                                  /tmp/ccGYWBCE.ltrans3.ltrans.o
                                                  /tmp/ccGYWBCE.ltrans2.ltrans.o
                                                  obj/main/SPRACINGF3/io/serial_cli.o (symbol from plugin)
                                                  obj/main/SPRACINGF3/io/serial_1wire.o (symbol from plugin)
                                                  obj/main/SPRACINGF3/mw.o (symbol from plugin)
beeperTable.lto_priv.215                          /tmp/ccGYWBCE.ltrans22.ltrans.o
                                                  /tmp/ccGYWBCE.ltrans7.ltrans.o
beeperTableEntryCount                             obj/main/SPRACINGF3/io/beeper.o (symbol from plugin)
                                                  obj/main/SPRACINGF3/io/serial_cli.o (symbol from plugin)
beeperUpdate                                      obj/main/SPRACINGF3/io/beeper.o (symbol from plugin)
                                                  obj/main/SPRACINGF3/mw.o (symbol from plugin)
blackboxAdvanceIterationTimers.lto_priv.358       /tmp/ccGYWBCE.ltrans9.ltrans.o
                                                  /tmp/ccGYWBCE.ltrans1.ltrans.o
blackboxConditionCache.lto_priv.369               /tmp/ccGYWBCE.ltrans1.ltrans.o
                                                  /tmp/ccGYWBCE.ltrans18.ltrans.o
                                                  /tmp/ccGYWBCE.ltrans9.ltrans.o
blackboxDeviceBeginLog                            obj/main/SPRACINGF3/blackbox/blackbox_io.o (symbol from plugin)
                                                  obj/main/SPRACINGF3/blackbox/blackbox.o (symbol from plugin)
blackboxDeviceClose                               obj/main/SPRACINGF3/blackbox/blackbox_io.o (symbol from plugin)
                                                  obj/main/SPRACINGF3/blackbox/blackbox.o (symbol from plugin)
blackboxDeviceEndLog                              obj/main/SPRACINGF3/blackbox/blackbox_io.o (symbol from plugin)
                                                  obj/main/SPRACINGF3/blackbox/blackbox.o (symbol from plugin)
blackboxDeviceFlush                               obj/main/SPRACINGF3/blackbox/blackbox_io.o (symbol from plugin)
                                                  obj/main/SPRACINGF3/blackbox/blackbox.o (symbol from plugin)
blackboxDeviceFlushForce                          /tmp/ccGYWBCE.ltrans10.ltrans.o
                                                  obj/main/SPRACINGF3/blackbox/blackbox_io.o (symbol from plugin)
                                                  /tmp/ccGYWBCE.ltrans1.ltrans.o
                                                  obj/main/SPRACINGF3/blackbox/blackbox.o (symbol from plugin)
blackboxDeviceOpen                                obj/main/SPRACINGF3/blackbox/blackbox_io.o (symbol from plugin)
                                                  obj/main/SPRACINGF3/blackbox/blackbox.o (symbol from plugin)
blackboxDeviceReserveBufferSpace                  /tmp/ccGYWBCE.ltrans10.ltrans.o
                                                  obj/main/SPRACINGF3/blackbox/blackbox_io.o (symbol from plugin)
                                                  /tmp/ccGYWBCE.ltrans9.ltrans.o
                                                  /tmp/ccGYWBCE.ltrans1.ltrans.o
                                                  obj/main/SPRACINGF3/blackbox/blackbox.o (symbol from plugin)
blackboxHeaderBudget                              /tmp/ccGYWBCE.ltrans1.ltrans.o
                                                  obj/main/SPRACINGF3/blackbox/blackbox_io.o (symbol from plugin)
                                                  /tmp/ccGYWBCE.ltrans10.ltrans.o
                                                  /tmp/ccGYWBCE.ltrans9.ltrans.o
                                                  obj/main/SPRACINGF3/blackbox/blackbox.o (symbol from plugin)
blackboxHistory.lto_priv.497                      /tmp/ccGYWBCE.ltrans18.ltrans.o
                                                  /tmp/ccGYWBCE.ltrans9.ltrans.o
blackboxHistoryRing.lto_priv.498                  /tmp/ccGYWBCE.ltrans18.ltrans.o
                                                  /tmp/ccGYWBCE.ltrans9.ltrans.o
blackboxIFrameIndex.lto_priv.496                  /tmp/ccGYWBCE.ltrans18.ltrans.o
                                                  /tmp/ccGYWBCE.ltrans9.ltrans.o
blackboxIteration.lto_priv.367                    /tmp/ccGYWBCE.ltrans1.ltrans.o
                                                  /tmp/ccGYWBCE.ltrans18.ltrans.o
                                                  /tmp/ccGYWBCE.ltrans9.ltrans.o
blackboxLastArmingBeep.lto_priv.499               /tmp/ccGYWBCE.ltrans18.ltrans.o
                                                  /tmp/ccGYWBCE.ltrans9.ltrans.o
blackboxLogEvent                                  /tmp/ccGYWBCE.ltrans9.ltrans.o
                                                  obj/main/SPRACINGF3/blackbox/blackbox.o (symbol from plugin)
                                                  /tmp/ccGYWBCE.ltrans18.ltrans.o
                                                  /tmp/ccGYWBCE.ltrans16.ltrans.o
                                                  /tmp/ccGYWBCE.ltrans14.ltrans.o
                                                  /tmp/ccGYWBCE.ltrans7.ltrans.o
                                                  /tmp/ccGYWBCE.ltrans1.ltrans.o
                                                  obj/main/SPRACINGF3/io/rc_controls.o (symbol from plugin)
                                                  obj/main/SPRACINGF3/flight/gtune.o (symbol from plugin)
blackboxLogInflightAdjustmentEvent                /tmp/ccGYWBCE.ltrans7.ltrans.o
                                                  obj/main/SPRACINGF3/io/rc_controls.o (symbol from plugin)
                                                  /tmp/ccGYWBCE.ltrans16.ltrans.o
                                                  /tmp/ccGYWBCE.ltrans3.ltrans.o
blackboxLogInflightAdjustmentEventFloat           obj/main/SPRACINGF3/io/rc_controls.o (symbol from plugin)
blackboxLogIteration.lto_priv.359                 /tmp/ccGYWBCE.ltrans9.ltrans.o
                                                  /tmp/ccGYWBCE.ltrans1.ltrans.o
blackboxLoggedAnyFrames.lto_priv.371              /tmp/ccGYWBCE.ltrans1.ltrans.o
                                                  /tmp/ccGYWBCE.ltrans18.ltrans.o
                                                  /tmp/ccGYWBCE.ltrans9.ltrans.o
blackboxMaxHeaderBytesPerIteration.lto_priv.374   /tmp/ccGYWBCE.ltrans1.ltrans.o
                                                  /tmp/ccGYWBCE.ltrans18.ltrans.o
blackboxMayEditConfig                             obj/main/SPRACINGF3/blackbox/blackbox.o (symbol from plugin)
                                                  obj/main/SPRACINGF3/io/serial_msp.o (symbol from plugin)
blackboxModeActivationConditionPresent.lto_priv.366 /tmp/ccGYWBCE.ltrans1.ltrans.o
                                                  /tmp/ccGYWBCE.ltrans18.ltrans.o
blackboxPFrameIndex.lto_priv.368                  /tmp/ccGYWBCE.ltrans1.ltrans.o
                                                  /tmp/ccGYWBCE.ltrans18.ltrans.o
                                                  /tmp/ccGYWBCE.ltrans9.ltrans.o
blackboxPort.lto_priv.376                         /tmp/ccGYWBCE.ltrans1.ltrans.o
                                                  /tmp/ccGYWBCE.ltrans18.ltrans.o
                                                  /tmp/ccGYWBCE.ltrans10.ltrans.o
                                                  /tmp/ccGYWBCE.ltrans9.ltrans.o
blackboxPortSharing.lto_priv.375                  /tmp/ccGYWBCE.ltrans1.ltrans.o
                                                  /tmp/ccGYWBCE.ltrans18.ltrans.o
blackboxPrint                                     /tmp/ccGYWBCE.ltrans10.ltrans.o
                                                  obj/main/SPRACINGF3/blackbox/blackbox_io.o (symbol from plugin)
                                                  /tmp/ccGYWBCE.ltrans9.ltrans.o
                                                  obj/main/SPRACINGF3/blackbox/blackbox.o (symbol from plugin)
blackboxPrintf                                    /tmp/ccGYWBCE.ltrans10.ltrans.o
                                                  obj/main/SPRACINGF3/blackbox/blackbox_io.o (symbol from plugin)
                                                  /tmp/ccGYWBCE.ltrans9.ltrans.o
                                                  obj/main/SPRACINGF3/blackbox/blackbox.o (symbol from plugin)
blackboxPrintfHeaderLine                          /tmp/ccGYWBCE.ltrans10.ltrans.o
                                                  obj/main/SPRACINGF3/blackbox/blackbox_io.o (symbol from plugin)
                                                  /tmp/ccGYWBCE.ltrans1.ltrans.o
                                                  obj/main/SPRACINGF3/blackbox/blackbox.o (symbol from plugin)
blackboxReplenishHeaderBudget                     obj/main/SPRACINGF3/blackbox/blackbox_io.o (symbol from plugin)
                                                  obj/main/SPRACINGF3/blackbox/blackbox.o (symbol from plugin)
blackboxSlowFrameIterationTimer.lto_priv.373      /tmp/ccGYWBCE.ltrans1.ltrans.o
                                                  /tmp/ccGYWBCE.ltrans9.ltrans.o
blackboxState.lto_priv.341                        /tmp/ccGYWBCE.ltrans2.ltrans.o
                                                  /tmp/ccGYWBCE.ltrans18.ltrans.o
                                                  /tmp/ccGYWBCE.ltrans9.ltrans.o
                                                  /tmp/ccGYWBCE.ltrans1.ltrans.o
                                                  /tmp/ccGYWBCE.ltrans0.ltrans.o
blackboxWrite                                     /tmp/ccGYWBCE.ltrans9.ltrans.o
                                                  obj/main/SPRACINGF3/blackbox/blackbox_io.o (symbol from plugin)
                                                  /tmp/ccGYWBCE.ltrans10.ltrans.o
                                                  /tmp/ccGYWBCE.ltrans1.ltrans.o
                                                  obj/main/SPRACINGF3/blackbox/blackbox.o (symbol from plugin)
blackboxWriteFloat                                obj/main/SPRACINGF3/blackbox/blackbox_io.o (symbol from plugin)
                                                  obj/main/SPRACINGF3/blackbox/blackbox.o (symbol from plugin)
blackboxWriteS16                                  obj/main/SPRACINGF3/blackbox/blackbox_io.o (symbol from plugin)
                                                  obj/main/SPRACINGF3/blackbox/blackbox.o (symbol from plugin)
blackboxWriteSigned16VBArray                      obj/main/SPRACINGF3/blackbox/blackbox_io.o (symbol from plugin)
                                                  obj/main/SPRACINGF3/blackbox/blackbox.o (symbol from plugin)
blackboxWriteSigned16VBArray.constprop.74         /tmp/ccGYWBCE.ltrans16.ltrans.o
                                                  /tmp/ccGYWBCE.ltrans9.ltrans.o
blackboxWriteSignedVB                             /tmp/ccGYWBCE.ltrans10.ltrans.o
                                                  obj/main/SPRACINGF3/blackbox/blackbox_io.o (symbol from plugin)
                                                  /tmp/ccGYWBCE.ltrans16.ltrans.o
                                                  /tmp/ccGYWBCE.ltrans9.ltrans.o
                                                  obj/main/SPRACINGF3/blackbox/blackbox.o (symbol from plugin)
blackboxWriteSignedVBArray                        obj/main/SPRACINGF3/blackbox/blackbox_io.o (symbol from plugin)
                                                  obj/main/SPRACINGF3/blackbox/blackbox.o (symbol from plugin)
blackboxWriteSignedVBArray.constprop.73           /tmp/ccGYWBCE.ltrans16.ltrans.o
                                                  /tmp/ccGYWBCE.ltrans9.ltrans.o
blackboxWriteTag2_3S32                            /tmp/ccGYWBCE.ltrans10.ltrans.o
                                                  obj/main/SPRACINGF3/blackbox/blackbox_io.o (symbol from plugin)
                                                  /tmp/ccGYWBCE.ltrans9.ltrans.o
                                                  obj/main/SPRACINGF3/blackbox/blackbox.o (symbol from plugin)
blackboxWriteTag8_4S16                            obj/main/SPRACINGF3/blackbox/blackbox_io.o (symbol from plugin)
                                                  obj/main/SPRACINGF3/blackbox/blackbox.o (symbol from plugin)
blackboxWriteTag8_8SVB                            obj/main/SPRACINGF3/blackbox/blackbox_io.o (symbol from plugin)
                                                  obj/main/SPRACINGF3/blackbox/blackbox.o (symbol from plugin)
blackboxWriteU32                                  obj/main/SPRACINGF3/blackbox/blackbox_io.o (symbol from plugin)
blackboxWriteUnsignedVB                           /tmp/ccGYWBCE.ltrans10.ltrans.o
                                                  obj/main/SPRACINGF3/blackbox/blackbox_io.o (symbol from plugin)
                                                  /tmp/ccGYWBCE.ltrans9.ltrans.o
                                                  obj/main/SPRACINGF3/blackbox/blackbox.o (symbol from plugin)
boardRotation.lto_priv.431                        /tmp/ccGYWBCE.ltrans8.ltrans.o
                                                  /tmp/ccGYWBCE.ltrans0.ltrans.o
bufWriterAppend                                   /tmp/ccGYWBCE.ltrans7.ltrans.o
                                                  obj/main/SPRACINGF3/drivers/buf_writer.o (symbol from plugin)
                                                  /tmp/ccGYWBCE.ltrans22.ltrans.o
                                                  /tmp/ccGYWBCE.ltrans8.ltrans.o
                                                  obj/main/SPRACINGF3/io/serial_msp.o (symbol from plugin)
                                                  obj/main/SPRACINGF3/io/serial_cli.o (symbol from plugin)
bufWriterFlush                                    /tmp/ccGYWBCE.ltrans7.ltrans.o
                                                  obj/main/SPRACINGF3/drivers/buf_writer.o (symbol from plugin)
                                                  /tmp/ccGYWBCE.ltrans22.ltrans.o
                                                  /tmp/ccGYWBCE.ltrans12.ltrans.o
                                                  /tmp/ccGYWBCE.ltrans2.ltrans.o
                                                  obj/main/SPRACINGF3/io/serial_msp.o (symbol from plugin)
                                                  obj/main/SPRACINGF3/io/serial_cli.o (symbol from plugin)
bufWriterInit                                     obj/main/SPRACINGF3/drivers/buf_writer.o (symbol from plugin)
                                                  obj/main/SPRACINGF3/io/serial_msp.o (symbol from plugin)
                                                  obj/main/SPRACINGF3/io/serial_cli.o (symbol from plugin)
bufferHead.lto_priv.493                           /tmp/ccGYWBCE.ltrans10.ltrans.o
                                                  /tmp/ccGYWBCE.ltrans14.ltrans.o
                                                  /tmp/ccGYWBCE.ltrans9.ltrans.o
bufferIndex.lto_priv.317                          /tmp/ccGYWBCE.ltrans12.ltrans.o
                                                  /tmp/ccGYWBCE.ltrans2.ltrans.o
bufferTail.lto_priv.530                           /tmp/ccGYWBCE.ltrans10.ltrans.o
                                                  /tmp/ccGYWBCE.ltrans14.ltrans.o
buildDate                                         /tmp/ccGYWBCE.ltrans8.ltrans.o
                                                  obj/main/SPRACINGF3/version.o (symbol from plugin)
                                                  obj/main/SPRACINGF3/io/serial_msp.o (symbol from plugin)
                                                  obj/main/SPRACINGF3/io/serial_cli.o (symbol from plugin)
                                                  obj/main/SPRACINGF3/blackbox/blackbox.o (symbol from plugin)
buildRotationMatrix                               obj/main/SPRACINGF3/common/maths.o (symbol from plugin)
                                                  obj/main/SPRACINGF3/sensors/boardalignment.o (symbol from plugin)
buildTime                                         /tmp/ccGYWBCE.ltrans8.ltrans.o
                                                  obj/main/SPRACINGF3/version.o (symbol from plugin)
                                                  obj/main/SPRACINGF3/io/serial_msp.o (symbol from plugin)
                                                  obj/main/SPRACINGF3/io/serial_cli.o (symbol from plugin)
                                                  obj/main/SPRACINGF3/blackbox/blackbox.o (symbol from plugin)
cachedRccCsrValue                                 obj/main/SPRACINGF3/drivers/system.o (symbol from plugin)
                                                  obj/main/SPRACINGF3/drivers/system_stm32f30x.o (symbol from plugin)
calculateAccZLowPassFilterRCTimeConstant          obj/main/SPRACINGF3/flight/imu.o (symbol from plugin)
calculateAltHoldThrottleAdjustment                obj/main/SPRACINGF3/flight/altitudehold.o (symbol from plugin)
calculateBatteryCapacityRemainingPercentage       /tmp/ccGYWBCE.ltrans8.ltrans.o
                                                  obj/main/SPRACINGF3/sensors/battery.o (symbol from plugin)
                                                  /tmp/ccGYWBCE.ltrans19.ltrans.o
                                                  /tmp/ccGYWBCE.ltrans5.ltrans.o
                                                  obj/main/SPRACINGF3/telemetry/frsky.o (symbol from plugin)
                                                  obj/main/SPRACINGF3/io/display.o (symbol from plugin)
calculateBatteryPercentage                        obj/main/SPRACINGF3/sensors/battery.o (symbol from plugin)
                                                  obj/main/SPRACINGF3/io/display.o (symbol from plugin)
calculateChannelRemapping                         obj/main/SPRACINGF3/rx/rx.o (symbol from plugin)
calculateEstimatedAltitude                        obj/main/SPRACINGF3/flight/altitudehold.o (symbol from plugin)
                                                  obj/main/SPRACINGF3/mw.o (symbol from plugin)
calculateRxChannelsAndUpdateFailsafe              obj/main/SPRACINGF3/rx/rx.o (symbol from plugin)
                                                  obj/main/SPRACINGF3/mw.o (symbol from plugin)
calculateThrottleAngleCorrection                  obj/main/SPRACINGF3/flight/imu.o (symbol from plugin)
                                                  obj/main/SPRACINGF3/mw.o (symbol from plugin)
calculateThrottleAngleScale                       obj/main/SPRACINGF3/flight/imu.o (symbol from plugin)
calculateThrottleStatus                           /tmp/ccGYWBCE.ltrans7.ltrans.o
                                                  obj/main/SPRACINGF3/io/rc_controls.o (symbol from plugin)
                                                  /tmp/ccGYWBCE.ltrans23.ltrans.o
                                                  /tmp/ccGYWBCE.ltrans5.ltrans.o
                                                  /tmp/ccGYWBCE.ltrans3.ltrans.o
                                                  obj/main/SPRACINGF3/flight/failsafe.o (symbol from plugin)
                                                  obj/main/SPRACINGF3/mw.o (symbol from plugin)
                                                  obj/main/SPRACINGF3/telemetry/frsky.o (symbol from plugin)
calculate_Gtune                                   /tmp/ccGYWBCE.ltrans14.ltrans.o
                                                  obj/main/SPRACINGF3/flight/gtune.o (symbol from plugin)
                                                  /tmp/ccGYWBCE.ltrans13.ltrans.o
                                                  obj/main/SPRACINGF3/flight/pid.o (symbol from plugin)
calculatedAltitude.lto_priv.315                   /tmp/ccGYWBCE.ltrans17.ltrans.o
                                                  /tmp/ccGYWBCE.ltrans19.ltrans.o
                                                  /tmp/ccGYWBCE.ltrans2.ltrans.o
                                                  /tmp/ccGYWBCE.ltrans0.ltrans.o
calibratingA                                      /tmp/ccGYWBCE.ltrans3.ltrans.o
                                                  obj/main/SPRACINGF3/sensors/acceleration.o (symbol from plugin)
                                                  /tmp/ccGYWBCE.ltrans25.ltrans.o
                                                  /tmp/ccGYWBCE.ltrans2.ltrans.o
                                                  /tmp/ccGYWBCE.ltrans1.ltrans.o
                                                  /tmp/ccGYWBCE.ltrans0.ltrans.o
calibratingB                                      /tmp/ccGYWBCE.ltrans17.ltrans.o
                                                  obj/main/SPRACINGF3/sensors/barometer.o (symbol from plugin)
                                                  /tmp/ccGYWBCE.ltrans3.ltrans.o
                                                  /tmp/ccGYWBCE.ltrans1.ltrans.o
                                                  /tmp/ccGYWBCE.ltrans0.ltrans.o
calibratingG                                      /tmp/ccGYWBCE.ltrans3.ltrans.o
                                                  obj/main/SPRACINGF3/sensors/gyro.o (symbol from plugin)
                                                  /tmp/ccGYWBCE.ltrans1.ltrans.o
                                                  /tmp/ccGYWBCE.ltrans0.ltrans.o
canSendSmartPortTelemetry                         obj/main/SPRACINGF3/telemetry/smartport.o (symbol from plugin)
captures.lto_priv.278                             /tmp/ccGYWBCE.ltrans8.ltrans.o
                                                  /tmp/ccGYWBCE.ltrans23.ltrans.o
                                                  /tmp/ccGYWBCE.ltrans4.ltrans.o
castFloatBytesToInt                               obj/main/SPRACINGF3/common/encoding.o (symbol from plugin)
                                                  obj/main/SPRACINGF3/blackbox/blackbox_io.o (symbol from plugin)
                                                  obj/main/SPRACINGF3/blackbox/blackbox.o (symbol from plugin)
cfTasks                                           /tmp/ccGYWBCE.ltrans8.ltrans.o
                                                  obj/main/SPRACINGF3/scheduler_tasks.o (symbol from plugin)
                                                  /tmp/ccGYWBCE.ltrans20.ltrans.o
                                                  /tmp/ccGYWBCE.ltrans18.ltrans.o
                                                  /tmp/ccGYWBCE.ltrans17.ltrans.o
                                                  /tmp/ccGYWBCE.ltrans1.ltrans.o
                                                  obj/main/SPRACINGF3/scheduler.o (symbol from plugin)
changeControlRateProfile                          obj/main/SPRACINGF3/config/config.o (symbol from plugin)
                                                  obj/main/SPRACINGF3/io/serial_cli.o (symbol from plugin)
                                                  obj/main/SPRACINGF3/io/rc_controls.o (symbol from plugin)
changeProfile                                     obj/main/SPRACINGF3/config/config.o (symbol from plugin)
                                                  obj/main/SPRACINGF3/io/rc_controls.o (symbol from plugin)
checkFrSkyTelemetryState                          obj/main/SPRACINGF3/telemetry/frsky.o (symbol from plugin)
                                                  obj/main/SPRACINGF3/telemetry/telemetry.o (symbol from plugin)
checkHoTTTelemetryState                           obj/main/SPRACINGF3/telemetry/hott.o (symbol from plugin)
                                                  obj/main/SPRACINGF3/telemetry/telemetry.o (symbol from plugin)
checkLtmTelemetryState                            obj/main/SPRACINGF3/telemetry/ltm.o (symbol from plugin)
                                                  obj/main/SPRACINGF3/telemetry/telemetry.o (symbol from plugin)
checkSmartPortTelemetryState                      obj/main/SPRACINGF3/telemetry/smartport.o (symbol from plugin)
                                                  obj/main/SPRACINGF3/telemetry/telemetry.o (symbol from plugin)
cleanup_glue                                      /usr/lib/gcc/arm-none-eabi/4.9.3/../../../arm-none-eabi/lib/armv7e-m/fpu/libc_nano.a(lib_a-reent.o)
cliAdjustmentRange.lto_priv.182                   /tmp/ccGYWBCE.ltrans7.ltrans.o
                                                  /tmp/ccGYWBCE.ltrans22.ltrans.o
                                                  /tmp/ccGYWBCE.ltrans12.ltrans.o
cliAux.lto_priv.183                               /tmp/ccGYWBCE.ltrans7.ltrans.o
                                                  /tmp/ccGYWBCE.ltrans22.ltrans.o
                                                  /tmp/ccGYWBCE.ltrans12.ltrans.o
cliBuffer.lto_priv.318                            /tmp/ccGYWBCE.ltrans12.ltrans.o
                                                  /tmp/ccGYWBCE.ltrans2.ltrans.o
cliColor.lto_priv.184                             /tmp/ccGYWBCE.ltrans12.ltrans.o
                                                  /tmp/ccGYWBCE.ltrans22.ltrans.o
cliDefaults.lto_priv.319                          /tmp/ccGYWBCE.ltrans22.ltrans.o
cliDump.lto_priv.185                              /tmp/ccGYWBCE.ltrans12.ltrans.o
                                                  /tmp/ccGYWBCE.ltrans22.ltrans.o
cliEnter                                          obj/main/SPRACINGF3/io/serial_cli.o (symbol from plugin)
                                                  obj/main/SPRACINGF3/io/serial.o (symbol from plugin)
cliExit.lto_priv.186                              /tmp/ccGYWBCE.ltrans12.ltrans.o
                                                  /tmp/ccGYWBCE.ltrans22.ltrans.o
                                                  /tmp/ccGYWBCE.ltrans2.ltrans.o
cliFeature.lto_priv.187                           /tmp/ccGYWBCE.ltrans12.ltrans.o
                                                  /tmp/ccGYWBCE.ltrans22.ltrans.o
cliFlashErase.lto_priv.188                        /tmp/ccGYWBCE.ltrans12.ltrans.o
                                                  /tmp/ccGYWBCE.ltrans22.ltrans.o
cliFlashInfo.lto_priv.189                         /tmp/ccGYWBCE.ltrans12.ltrans.o
                                                  /tmp/ccGYWBCE.ltrans22.ltrans.o
cliGet.lto_priv.320                               /tmp/ccGYWBCE.ltrans22.ltrans.o
cliGpsPassthrough.lto_priv.321                    /tmp/ccGYWBCE.ltrans22.ltrans.o
cliHelp.lto_priv.322                              /tmp/ccGYWBCE.ltrans22.ltrans.o
cliInit                                           obj/main/SPRACINGF3/io/serial_cli.o (symbol from plugin)
                                                  obj/main/SPRACINGF3/main.o (symbol from plugin)
cliLed.lto_priv.190                               /tmp/ccGYWBCE.ltrans12.ltrans.o
                                                  /tmp/ccGYWBCE.ltrans22.ltrans.o
cliMap.lto_priv.323                               /tmp/ccGYWBCE.ltrans22.ltrans.o
cliMixer.lto_priv.324                             /tmp/ccGYWBCE.ltrans22.ltrans.o
cliMode                                           /tmp/ccGYWBCE.ltrans12.ltrans.o
                                                  obj/main/SPRACINGF3/io/serial_cli.o (symbol from plugin)
                                                  /tmp/ccGYWBCE.ltrans5.ltrans.o
                                                  /tmp/ccGYWBCE.ltrans3.ltrans.o
                                                  /tmp/ccGYWBCE.ltrans2.ltrans.o
                                                  /tmp/ccGYWBCE.ltrans1.ltrans.o
                                                  obj/main/SPRACINGF3/io/serial.o (symbol from plugin)
                                                  obj/main/SPRACINGF3/mw.o (symbol from plugin)
cliMotor.lto_priv.325                             /tmp/ccGYWBCE.ltrans22.ltrans.o
cliMotorMix.lto_priv.191                          /tmp/ccGYWBCE.ltrans7.ltrans.o
                                                  /tmp/ccGYWBCE.ltrans22.ltrans.o
cliPlaySound.lto_priv.326                         /tmp/ccGYWBCE.ltrans22.ltrans.o
cliPort.lto_priv.316                              /tmp/ccGYWBCE.ltrans22.ltrans.o
                                                  /tmp/ccGYWBCE.ltrans2.ltrans.o
cliPrint.lto_priv.205                             /tmp/ccGYWBCE.ltrans22.ltrans.o
                                                  /tmp/ccGYWBCE.ltrans12.ltrans.o
                                                  /tmp/ccGYWBCE.ltrans7.ltrans.o
                                                  /tmp/ccGYWBCE.ltrans2.ltrans.o
cliPrintVar.lto_priv.210                          /tmp/ccGYWBCE.ltrans22.ltrans.o
                                                  /tmp/ccGYWBCE.ltrans12.ltrans.o
cliPrintf.lto_priv.180                            /tmp/ccGYWBCE.ltrans22.ltrans.o
                                                  /tmp/ccGYWBCE.ltrans12.ltrans.o
                                                  /tmp/ccGYWBCE.ltrans8.ltrans.o
                                                  /tmp/ccGYWBCE.ltrans7.ltrans.o
cliProcess                                        obj/main/SPRACINGF3/io/serial_cli.o (symbol from plugin)
                                                  obj/main/SPRACINGF3/io/serial.o (symbol from plugin)
cliProfile.lto_priv.208                           /tmp/ccGYWBCE.ltrans22.ltrans.o
                                                  /tmp/ccGYWBCE.ltrans12.ltrans.o
cliPrompt.lto_priv.339                            /tmp/ccGYWBCE.ltrans7.ltrans.o
                                                  /tmp/ccGYWBCE.ltrans2.ltrans.o
cliRateProfile.lto_priv.207                       /tmp/ccGYWBCE.ltrans22.ltrans.o
                                                  /tmp/ccGYWBCE.ltrans12.ltrans.o
cliReboot.lto_priv.206                            /tmp/ccGYWBCE.ltrans22.ltrans.o
                                                  /tmp/ccGYWBCE.ltrans12.ltrans.o
cliRxFail.lto_priv.193                            /tmp/ccGYWBCE.ltrans7.ltrans.o
                                                  /tmp/ccGYWBCE.ltrans22.ltrans.o
                                                  /tmp/ccGYWBCE.ltrans12.ltrans.o
cliRxRange.lto_priv.192                           /tmp/ccGYWBCE.ltrans12.ltrans.o
                                                  /tmp/ccGYWBCE.ltrans22.ltrans.o
cliSave.lto_priv.327                              /tmp/ccGYWBCE.ltrans22.ltrans.o
cliSerial.lto_priv.194                            /tmp/ccGYWBCE.ltrans7.ltrans.o
                                                  /tmp/ccGYWBCE.ltrans22.ltrans.o
                                                  /tmp/ccGYWBCE.ltrans12.ltrans.o
cliServo.lto_priv.195                             /tmp/ccGYWBCE.ltrans12.ltrans.o
                                                  /tmp/ccGYWBCE.ltrans22.ltrans.o
cliServoMix.lto_priv.196                          /tmp/ccGYWBCE.ltrans12.ltrans.o
                                                  /tmp/ccGYWBCE.ltrans22.ltrans.o
cliSet.lto_priv.328                               /tmp/ccGYWBCE.ltrans22.ltrans.o
cliShowArgumentRangeError.lto_priv.200            /tmp/ccGYWBCE.ltrans7.ltrans.o
                                                  /tmp/ccGYWBCE.ltrans22.ltrans.o
                                                  /tmp/ccGYWBCE.ltrans12.ltrans.o
cliShowParseError.lto_priv.201                    /tmp/ccGYWBCE.ltrans7.ltrans.o
                                                  /tmp/ccGYWBCE.ltrans22.ltrans.o
                                                  /tmp/ccGYWBCE.ltrans12.ltrans.o
cliStatus.lto_priv.329                            /tmp/ccGYWBCE.ltrans22.ltrans.o
cliTasks.lto_priv.197                             /tmp/ccGYWBCE.ltrans8.ltrans.o
                                                  /tmp/ccGYWBCE.ltrans22.ltrans.o
cliVersion.lto_priv.198                           /tmp/ccGYWBCE.ltrans8.ltrans.o
                                                  /tmp/ccGYWBCE.ltrans22.ltrans.o
                                                  /tmp/ccGYWBCE.ltrans12.ltrans.o
cliWrite.lto_priv.209                             /tmp/ccGYWBCE.ltrans22.ltrans.o
                                                  /tmp/ccGYWBCE.ltrans12.ltrans.o
                                                  /tmp/ccGYWBCE.ltrans2.ltrans.o
cliWriter.lto_priv.203                            /tmp/ccGYWBCE.ltrans22.ltrans.o
                                                  /tmp/ccGYWBCE.ltrans12.ltrans.o
                                                  /tmp/ccGYWBCE.ltrans7.ltrans.o
                                                  /tmp/ccGYWBCE.ltrans2.ltrans.o
closeSerialPort                                   /tmp/ccGYWBCE.ltrans7.ltrans.o
                                                  obj/main/SPRACINGF3/io/serial.o (symbol from plugin)
                                                  /tmp/ccGYWBCE.ltrans24.ltrans.o
                                                  /tmp/ccGYWBCE.ltrans8.ltrans.o
                                                  /tmp/ccGYWBCE.ltrans1.ltrans.o
                                                  obj/main/SPRACINGF3/io/serial_msp.o (symbol from plugin)
                                                  obj/main/SPRACINGF3/blackbox/blackbox_io.o (symbol from plugin)
                                                  obj/main/SPRACINGF3/telemetry/ltm.o (symbol from plugin)
                                                  obj/main/SPRACINGF3/telemetry/smartport.o (symbol from plugin)
                                                  obj/main/SPRACINGF3/telemetry/hott.o (symbol from plugin)
                                                  obj/main/SPRACINGF3/telemetry/frsky.o (symbol from plugin)
cmdTable                                          /tmp/ccGYWBCE.ltrans22.ltrans.o
                                                  obj/main/SPRACINGF3/io/serial_cli.o (symbol from plugin)
                                                  /tmp/ccGYWBCE.ltrans2.ltrans.o
colors                                            /tmp/ccGYWBCE.ltrans12.ltrans.o
                                                  obj/main/SPRACINGF3/io/ledstrip.o (symbol from plugin)
                                                  /tmp/ccGYWBCE.ltrans19.ltrans.o
                                                  /tmp/ccGYWBCE.ltrans6.ltrans.o
                                                  /tmp/ccGYWBCE.ltrans0.ltrans.o
compassInit                                       obj/main/SPRACINGF3/sensors/compass.o (symbol from plugin)
                                                  obj/main/SPRACINGF3/main.o (symbol from plugin)
configTimeBase                                    /tmp/ccGYWBCE.ltrans21.ltrans.o
                                                  obj/main/SPRACINGF3/drivers/timer.o (symbol from plugin)
                                                  /tmp/ccGYWBCE.ltrans4.ltrans.o
                                                  obj/main/SPRACINGF3/drivers/pwm_output.o (symbol from plugin)
configureAdjustmentState                          obj/main/SPRACINGF3/io/rc_controls.o (symbol from plugin)
configureAltitudeHold                             obj/main/SPRACINGF3/flight/altitudehold.o (symbol from plugin)
                                                  obj/main/SPRACINGF3/config/config.o (symbol from plugin)
configureFrSkyTelemetryPort                       obj/main/SPRACINGF3/telemetry/frsky.o (symbol from plugin)
configureHoTTTelemetryPort                        obj/main/SPRACINGF3/telemetry/hott.o (symbol from plugin)
configureLtmTelemetryPort                         obj/main/SPRACINGF3/telemetry/ltm.o (symbol from plugin)
configureMPUDataReadyInterruptHandling            obj/main/SPRACINGF3/drivers/accgyro_mpu.o (symbol from plugin)
configureSmartPortTelemetryPort                   obj/main/SPRACINGF3/telemetry/smartport.o (symbol from plugin)
constrain                                         obj/main/SPRACINGF3/common/maths.o (symbol from plugin)
                                                  obj/main/SPRACINGF3/sensors/battery.o (symbol from plugin)
                                                  obj/main/SPRACINGF3/rx/rx.o (symbol from plugin)
                                                  obj/main/SPRACINGF3/io/serial_msp.o (symbol from plugin)
                                                  obj/main/SPRACINGF3/io/serial_cli.o (symbol from plugin)
                                                  obj/main/SPRACINGF3/io/rc_controls.o (symbol from plugin)
                                                  obj/main/SPRACINGF3/flight/mixer.o (symbol from plugin)
                                                  obj/main/SPRACINGF3/flight/pid.o (symbol from plugin)
                                                  obj/main/SPRACINGF3/flight/altitudehold.o (symbol from plugin)
                                                  obj/main/SPRACINGF3/mw.o (symbol from plugin)
                                                  obj/main/SPRACINGF3/scheduler.o (symbol from plugin)
                                                  obj/main/SPRACINGF3/config/config.o (symbol from plugin)
                                                  obj/main/SPRACINGF3/blackbox/blackbox_io.o (symbol from plugin)
                                                  obj/main/SPRACINGF3/telemetry/frsky.o (symbol from plugin)
                                                  obj/main/SPRACINGF3/io/display.o (symbol from plugin)
                                                  obj/main/SPRACINGF3/flight/navigation.o (symbol from plugin)
                                                  obj/main/SPRACINGF3/flight/gtune.o (symbol from plugin)
constrainf                                        obj/main/SPRACINGF3/common/maths.o (symbol from plugin)
                                                  obj/main/SPRACINGF3/io/rc_controls.o (symbol from plugin)
                                                  obj/main/SPRACINGF3/flight/pid.o (symbol from plugin)
copysignf                                         /usr/lib/gcc/arm-none-eabi/4.9.3/../../../arm-none-eabi/lib/armv7e-m/fpu/libm.a(lib_a-sf_copysign.o)
                                                  /usr/lib/gcc/arm-none-eabi/4.9.3/../../../arm-none-eabi/lib/armv7e-m/fpu/libm.a(lib_a-sf_scalbn.o)
cosf                                              /tmp/ccGYWBCE.ltrans20.ltrans.o
                                                  /tmp/ccGYWBCE.ltrans14.ltrans.o
                                                  /tmp/ccGYWBCE.ltrans11.ltrans.o
                                                  /tmp/ccGYWBCE.ltrans1.ltrans.o
                                                  /tmp/ccGYWBCE.ltrans0.ltrans.o
couldBeBusy.lto_priv.531                          /tmp/ccGYWBCE.ltrans0.ltrans.o
                                                  /tmp/ccGYWBCE.ltrans15.ltrans.o
                                                  /tmp/ccGYWBCE.ltrans14.ltrans.o
crc.lto_priv.287                                  /tmp/ccGYWBCE.ltrans8.ltrans.o
                                                  /tmp/ccGYWBCE.ltrans23.ltrans.o
currentBeeperEntry.lto_priv.300                   /tmp/ccGYWBCE.ltrans7.ltrans.o
                                                  /tmp/ccGYWBCE.ltrans23.ltrans.o
currentControlRateProfile                         /tmp/ccGYWBCE.ltrans22.ltrans.o
                                                  obj/main/SPRACINGF3/config/config.o (symbol from plugin)
                                                  /tmp/ccGYWBCE.ltrans10.ltrans.o
                                                  /tmp/ccGYWBCE.ltrans3.ltrans.o
                                                  /tmp/ccGYWBCE.ltrans2.ltrans.o
                                                  /tmp/ccGYWBCE.ltrans1.ltrans.o
                                                  obj/main/SPRACINGF3/io/serial_msp.o (symbol from plugin)
                                                  obj/main/SPRACINGF3/mw.o (symbol from plugin)
currentControlRateProfileIndex.lto_priv.261       /tmp/ccGYWBCE.ltrans22.ltrans.o
                                                  /tmp/ccGYWBCE.ltrans19.ltrans.o
                                                  /tmp/ccGYWBCE.ltrans10.ltrans.o
                                                  /tmp/ccGYWBCE.ltrans3.ltrans.o
currentMixer.lto_priv.434                         /tmp/ccGYWBCE.ltrans1.ltrans.o
                                                  /tmp/ccGYWBCE.ltrans0.ltrans.o
currentMixerMode.lto_priv.433                     /tmp/ccGYWBCE.ltrans1.ltrans.o
                                                  /tmp/ccGYWBCE.ltrans0.ltrans.o
currentPort.lto_priv.305                          /tmp/ccGYWBCE.ltrans8.ltrans.o
                                                  /tmp/ccGYWBCE.ltrans2.ltrans.o
currentProfile                                    /tmp/ccGYWBCE.ltrans12.ltrans.o
                                                  obj/main/SPRACINGF3/config/config.o (symbol from plugin)
                                                  /tmp/ccGYWBCE.ltrans25.ltrans.o
                                                  /tmp/ccGYWBCE.ltrans18.ltrans.o
                                                  /tmp/ccGYWBCE.ltrans10.ltrans.o
                                                  /tmp/ccGYWBCE.ltrans7.ltrans.o
                                                  /tmp/ccGYWBCE.ltrans3.ltrans.o
                                                  /tmp/ccGYWBCE.ltrans2.ltrans.o
                                                  /tmp/ccGYWBCE.ltrans1.ltrans.o
                                                  /tmp/ccGYWBCE.ltrans0.ltrans.o
                                                  obj/main/SPRACINGF3/io/serial_msp.o (symbol from plugin)
                                                  obj/main/SPRACINGF3/io/serial_cli.o (symbol from plugin)
                                                  obj/main/SPRACINGF3/mw.o (symbol from plugin)
                                                  obj/main/SPRACINGF3/main.o (symbol from plugin)
                                                  obj/main/SPRACINGF3/blackbox/blackbox.o (symbol from plugin)
currentSensorToCentiamps                          obj/main/SPRACINGF3/sensors/battery.o (symbol from plugin)
currentServoMixer.lto_priv.345                    /tmp/ccGYWBCE.ltrans13.ltrans.o
                                                  /tmp/ccGYWBCE.ltrans1.ltrans.o
                                                  /tmp/ccGYWBCE.ltrans0.ltrans.o
currentTaskId                                     /tmp/ccGYWBCE.ltrans17.ltrans.o
                                                  obj/main/SPRACINGF3/scheduler.o (symbol from plugin)
                                                  /tmp/ccGYWBCE.ltrans18.ltrans.o
                                                  /tmp/ccGYWBCE.ltrans1.ltrans.o
currentTime                                       /tmp/ccGYWBCE.ltrans17.ltrans.o
                                                  obj/main/SPRACINGF3/scheduler.o (symbol from plugin)
                                                  /tmp/ccGYWBCE.ltrans23.ltrans.o
                                                  /tmp/ccGYWBCE.ltrans18.ltrans.o
                                                  /tmp/ccGYWBCE.ltrans9.ltrans.o
                                                  /tmp/ccGYWBCE.ltrans3.ltrans.o
                                                  /tmp/ccGYWBCE.ltrans1.ltrans.o
                                                  obj/main/SPRACINGF3/sensors/compass.o (symbol from plugin)
                                                  obj/main/SPRACINGF3/mw.o (symbol from plugin)
                                                  obj/main/SPRACINGF3/blackbox/blackbox.o (symbol from plugin)
customServoMixers.lto_priv.443                    /tmp/ccGYWBCE.ltrans13.ltrans.o
                                                  /tmp/ccGYWBCE.ltrans0.ltrans.o
cyclePageIds                                      obj/main/SPRACINGF3/io/display.o (symbol from plugin)
cycleTime                                         /tmp/ccGYWBCE.ltrans22.ltrans.o
                                                  obj/main/SPRACINGF3/mw.o (symbol from plugin)
                                                  /tmp/ccGYWBCE.ltrans2.ltrans.o
                                                  /tmp/ccGYWBCE.ltrans1.ltrans.o
                                                  obj/main/SPRACINGF3/io/serial_msp.o (symbol from plugin)
                                                  obj/main/SPRACINGF3/io/serial_cli.o (symbol from plugin)
                                                  obj/main/SPRACINGF3/flight/gtune.o (symbol from plugin)
dT                                                /tmp/ccGYWBCE.ltrans13.ltrans.o
                                                  obj/main/SPRACINGF3/mw.o (symbol from plugin)
                                                  /tmp/ccGYWBCE.ltrans1.ltrans.o
                                                  obj/main/SPRACINGF3/flight/pid.o (symbol from plugin)
deadband3dThrottle.lto_priv.417                   /tmp/ccGYWBCE.ltrans3.ltrans.o
                                                  /tmp/ccGYWBCE.ltrans0.ltrans.o
debug                                             /tmp/ccGYWBCE.ltrans2.ltrans.o
                                                  obj/main/SPRACINGF3/debug.o (symbol from plugin)
                                                  /tmp/ccGYWBCE.ltrans1.ltrans.o
                                                  /tmp/ccGYWBCE.ltrans0.ltrans.o
                                                  obj/main/SPRACINGF3/io/serial_msp.o (symbol from plugin)
                                                  obj/main/SPRACINGF3/mw.o (symbol from plugin)
                                                  obj/main/SPRACINGF3/main.o (symbol from plugin)
defaultColors                                     obj/main/SPRACINGF3/io/ledstrip.o (symbol from plugin)
defaultLedStripConfig                             obj/main/SPRACINGF3/io/ledstrip.o (symbol from plugin)
degreesToRadians                                  obj/main/SPRACINGF3/common/maths.o (symbol from plugin)
                                                  obj/main/SPRACINGF3/sensors/boardalignment.o (symbol from plugin)
                                                  obj/main/SPRACINGF3/flight/imu.o (symbol from plugin)
                                                  obj/main/SPRACINGF3/mw.o (symbol from plugin)
delay                                             /tmp/ccGYWBCE.ltrans7.ltrans.o
                                                  obj/main/SPRACINGF3/drivers/system.o (symbol from plugin)
                                                  /tmp/ccGYWBCE.ltrans23.ltrans.o
                                                  /tmp/ccGYWBCE.ltrans20.ltrans.o
                                                  /tmp/ccGYWBCE.ltrans15.ltrans.o
                                                  /tmp/ccGYWBCE.ltrans14.ltrans.o
                                                  /tmp/ccGYWBCE.ltrans13.ltrans.o
                                                  /tmp/ccGYWBCE.ltrans12.ltrans.o
                                                  /tmp/ccGYWBCE.ltrans2.ltrans.o
                                                  /tmp/ccGYWBCE.ltrans0.ltrans.o
                                                  obj/main/SPRACINGF3/sensors/battery.o (symbol from plugin)
                                                  obj/main/SPRACINGF3/rx/spektrum.o (symbol from plugin)
                                                  obj/main/SPRACINGF3/io/serial_msp.o (symbol from plugin)
                                                  obj/main/SPRACINGF3/io/serial_cli.o (symbol from plugin)
                                                  obj/main/SPRACINGF3/io/serial.o (symbol from plugin)
                                                  obj/main/SPRACINGF3/flight/mixer.o (symbol from plugin)
                                                  obj/main/SPRACINGF3/main.o (symbol from plugin)
                                                  obj/main/SPRACINGF3/config/config.o (symbol from plugin)
                                                  obj/main/SPRACINGF3/io/display.o (symbol from plugin)
                                                  obj/main/SPRACINGF3/drivers/serial_softserial.o (symbol from plugin)
                                                  obj/main/SPRACINGF3/drivers/flash_m25p16.o (symbol from plugin)
                                                  obj/main/SPRACINGF3/drivers/compass_hmc5883l.o (symbol from plugin)
                                                  obj/main/SPRACINGF3/drivers/compass_ak8975.o (symbol from plugin)
                                                  obj/main/SPRACINGF3/drivers/barometer_ms5611.o (symbol from plugin)
                                                  obj/main/SPRACINGF3/drivers/accgyro_mpu6050.o (symbol from plugin)
                                                  obj/main/SPRACINGF3/drivers/accgyro_mpu.o (symbol from plugin)
                                                  obj/main/SPRACINGF3/drivers/adc_stm32f30x.o (symbol from plugin)
delayMicroseconds                                 /tmp/ccGYWBCE.ltrans7.ltrans.o
                                                  obj/main/SPRACINGF3/drivers/system.o (symbol from plugin)
                                                  /tmp/ccGYWBCE.ltrans17.ltrans.o
                                                  /tmp/ccGYWBCE.ltrans0.ltrans.o
                                                  obj/main/SPRACINGF3/rx/spektrum.o (symbol from plugin)
                                                  obj/main/SPRACINGF3/drivers/sonar_hcsr04.o (symbol from plugin)
                                                  obj/main/SPRACINGF3/drivers/barometer_ms5611.o (symbol from plugin)
deltaFilterState.lto_priv.233                     /tmp/ccGYWBCE.ltrans13.ltrans.o
                                                  /tmp/ccGYWBCE.ltrans26.ltrans.o
detectGyro                                        obj/main/SPRACINGF3/sensors/initialisation.o (symbol from plugin)
detectMpu                                         obj/main/SPRACINGF3/drivers/accgyro_mpu.o (symbol from plugin)
                                                  obj/main/SPRACINGF3/sensors/initialisation.o (symbol from plugin)
detectedSensors                                   /tmp/ccGYWBCE.ltrans22.ltrans.o
                                                  obj/main/SPRACINGF3/sensors/initialisation.o (symbol from plugin)
                                                  /tmp/ccGYWBCE.ltrans0.ltrans.o
                                                  obj/main/SPRACINGF3/io/serial_cli.o (symbol from plugin)
determineLedStripDimensions                       obj/main/SPRACINGF3/io/ledstrip.o (symbol from plugin)
determineOrientationLimits                        obj/main/SPRACINGF3/io/ledstrip.o (symbol from plugin)
determinePortSharing                              /tmp/ccGYWBCE.ltrans7.ltrans.o
                                                  obj/main/SPRACINGF3/io/serial.o (symbol from plugin)
                                                  /tmp/ccGYWBCE.ltrans18.ltrans.o
                                                  /tmp/ccGYWBCE.ltrans0.ltrans.o
                                                  obj/main/SPRACINGF3/blackbox/blackbox_io.o (symbol from plugin)
                                                  obj/main/SPRACINGF3/telemetry/ltm.o (symbol from plugin)
                                                  obj/main/SPRACINGF3/telemetry/smartport.o (symbol from plugin)
                                                  obj/main/SPRACINGF3/telemetry/hott.o (symbol from plugin)
                                                  obj/main/SPRACINGF3/telemetry/frsky.o (symbol from plugin)
determineServoMiddleOrForwardFromChannel          /tmp/ccGYWBCE.ltrans13.ltrans.o
                                                  obj/main/SPRACINGF3/flight/mixer.o (symbol from plugin)
                                                  /tmp/ccGYWBCE.ltrans1.ltrans.o
devClear                                          obj/main/SPRACINGF3/common/maths.o (symbol from plugin)
                                                  obj/main/SPRACINGF3/sensors/gyro.o (symbol from plugin)
devPush                                           obj/main/SPRACINGF3/common/maths.o (symbol from plugin)
                                                  obj/main/SPRACINGF3/sensors/gyro.o (symbol from plugin)
devStandardDeviation                              obj/main/SPRACINGF3/common/maths.o (symbol from plugin)
                                                  obj/main/SPRACINGF3/sensors/gyro.o (symbol from plugin)
devVariance                                       obj/main/SPRACINGF3/common/maths.o (symbol from plugin)
disableFlightMode                                 /tmp/ccGYWBCE.ltrans20.ltrans.o
                                                  obj/main/SPRACINGF3/config/runtime_config.o (symbol from plugin)
                                                  /tmp/ccGYWBCE.ltrans3.ltrans.o
                                                  /tmp/ccGYWBCE.ltrans2.ltrans.o
                                                  obj/main/SPRACINGF3/io/serial_msp.o (symbol from plugin)
                                                  obj/main/SPRACINGF3/flight/failsafe.o (symbol from plugin)
                                                  obj/main/SPRACINGF3/flight/altitudehold.o (symbol from plugin)
                                                  obj/main/SPRACINGF3/mw.o (symbol from plugin)
                                                  obj/main/SPRACINGF3/flight/navigation.o (symbol from plugin)
disarmAt.lto_priv.364                             /tmp/ccGYWBCE.ltrans3.ltrans.o
                                                  /tmp/ccGYWBCE.ltrans18.ltrans.o
displayDisablePageCycling                         obj/main/SPRACINGF3/io/display.o (symbol from plugin)
                                                  obj/main/SPRACINGF3/io/rc_controls.o (symbol from plugin)
displayEnablePageCycling                          obj/main/SPRACINGF3/io/display.o (symbol from plugin)
                                                  obj/main/SPRACINGF3/io/rc_controls.o (symbol from plugin)
                                                  obj/main/SPRACINGF3/main.o (symbol from plugin)
displayInit                                       obj/main/SPRACINGF3/io/display.o (symbol from plugin)
                                                  obj/main/SPRACINGF3/main.o (symbol from plugin)
displayPresent.lto_priv.513                       /tmp/ccGYWBCE.ltrans0.ltrans.o
                                                  /tmp/ccGYWBCE.ltrans19.ltrans.o
displayResetPageCycling                           obj/main/SPRACINGF3/io/display.o (symbol from plugin)
                                                  obj/main/SPRACINGF3/main.o (symbol from plugin)
displaySetNextPageChangeAt                        obj/main/SPRACINGF3/io/display.o (symbol from plugin)
displaySetPage                                    obj/main/SPRACINGF3/io/display.o (symbol from plugin)
displayShowFixedPage                              obj/main/SPRACINGF3/io/display.o (symbol from plugin)
                                                  obj/main/SPRACINGF3/io/gps.o (symbol from plugin)
dmaHandlers.lto_priv.392                          /tmp/ccGYWBCE.ltrans7.ltrans.o
                                                  /tmp/ccGYWBCE.ltrans0.ltrans.o
dmaInit                                           obj/main/SPRACINGF3/drivers/dma.o (symbol from plugin)
                                                  obj/main/SPRACINGF3/main.o (symbol from plugin)
dmaNoOpHandler                                    /tmp/ccGYWBCE.ltrans7.ltrans.o
                                                  obj/main/SPRACINGF3/drivers/dma.o (symbol from plugin)
                                                  /tmp/ccGYWBCE.ltrans0.ltrans.o
dmaSetHandler                                     obj/main/SPRACINGF3/drivers/dma.o (symbol from plugin)
                                                  obj/main/SPRACINGF3/drivers/light_ws2811strip.o (symbol from plugin)
doesConfigurationUsePort                          obj/main/SPRACINGF3/io/serial.o (symbol from plugin)
                                                  obj/main/SPRACINGF3/main.o (symbol from plugin)
drawHorizonalPercentageBar                        /tmp/ccGYWBCE.ltrans19.ltrans.o
                                                  obj/main/SPRACINGF3/io/display.o (symbol from plugin)
                                                  /tmp/ccGYWBCE.ltrans16.ltrans.o
drawRxChannel                                     obj/main/SPRACINGF3/io/display.o (symbol from plugin)
drawRxChannel.constprop.100                       /tmp/ccGYWBCE.ltrans16.ltrans.o
                                                  /tmp/ccGYWBCE.ltrans19.ltrans.o
dynD8                                             /tmp/ccGYWBCE.ltrans13.ltrans.o
                                                  obj/main/SPRACINGF3/flight/pid.o (symbol from plugin)
                                                  /tmp/ccGYWBCE.ltrans1.ltrans.o
                                                  obj/main/SPRACINGF3/mw.o (symbol from plugin)
dynI8                                             obj/main/SPRACINGF3/flight/pid.o (symbol from plugin)
                                                  obj/main/SPRACINGF3/mw.o (symbol from plugin)
dynP8                                             /tmp/ccGYWBCE.ltrans13.ltrans.o
                                                  obj/main/SPRACINGF3/flight/pid.o (symbol from plugin)
                                                  /tmp/ccGYWBCE.ltrans1.ltrans.o
                                                  obj/main/SPRACINGF3/mw.o (symbol from plugin)
enableFlightMode                                  /tmp/ccGYWBCE.ltrans20.ltrans.o
                                                  obj/main/SPRACINGF3/config/runtime_config.o (symbol from plugin)
                                                  /tmp/ccGYWBCE.ltrans26.ltrans.o
                                                  /tmp/ccGYWBCE.ltrans3.ltrans.o
                                                  obj/main/SPRACINGF3/flight/failsafe.o (symbol from plugin)
                                                  obj/main/SPRACINGF3/flight/altitudehold.o (symbol from plugin)
                                                  obj/main/SPRACINGF3/mw.o (symbol from plugin)
                                                  obj/main/SPRACINGF3/flight/navigation.o (symbol from plugin)
enableGPIOPowerUsageAndNoiseReductions            obj/main/SPRACINGF3/drivers/system_stm32f30x.o (symbol from plugin)
                                                  obj/main/SPRACINGF3/drivers/system.o (symbol from plugin)
enabledSensors.lto_priv.239                       /tmp/ccGYWBCE.ltrans22.ltrans.o
                                                  /tmp/ccGYWBCE.ltrans25.ltrans.o
                                                  /tmp/ccGYWBCE.ltrans19.ltrans.o
                                                  /tmp/ccGYWBCE.ltrans18.ltrans.o
                                                  /tmp/ccGYWBCE.ltrans17.ltrans.o
                                                  /tmp/ccGYWBCE.ltrans11.ltrans.o
                                                  /tmp/ccGYWBCE.ltrans5.ltrans.o
                                                  /tmp/ccGYWBCE.ltrans3.ltrans.o
                                                  /tmp/ccGYWBCE.ltrans2.ltrans.o
                                                  /tmp/ccGYWBCE.ltrans1.ltrans.o
                                                  /tmp/ccGYWBCE.ltrans0.ltrans.o
end                                               /usr/lib/gcc/arm-none-eabi/4.9.3/../../../arm-none-eabi/lib/armv7e-m/fpu/libnosys.a(sbrk.o)
ensureEEPROMContainsValidData                     obj/main/SPRACINGF3/config/config.o (symbol from plugin)
                                                  obj/main/SPRACINGF3/main.o (symbol from plugin)
errno                                             /usr/lib/gcc/arm-none-eabi/4.9.3/../../../arm-none-eabi/lib/armv7e-m/fpu/libc_nano.a(lib_a-reent.o)
                                                  /usr/lib/gcc/arm-none-eabi/4.9.3/../../../arm-none-eabi/lib/armv7e-m/fpu/libc_nano.a(lib_a-sbrkr.o)
error.lto_priv.525                                /tmp/ccGYWBCE.ltrans11.ltrans.o
                                                  /tmp/ccGYWBCE.ltrans14.ltrans.o
errorAngleI.lto_priv.234                          /tmp/ccGYWBCE.ltrans13.ltrans.o
                                                  /tmp/ccGYWBCE.ltrans26.ltrans.o
errorGyroI.lto_priv.263                           /tmp/ccGYWBCE.ltrans13.ltrans.o
                                                  /tmp/ccGYWBCE.ltrans3.ltrans.o
errorGyroIf.lto_priv.264                          /tmp/ccGYWBCE.ltrans13.ltrans.o
                                                  /tmp/ccGYWBCE.ltrans3.ltrans.o
errorVelocityI                                    /tmp/ccGYWBCE.ltrans17.ltrans.o
                                                  obj/main/SPRACINGF3/flight/altitudehold.o (symbol from plugin)
                                                  /tmp/ccGYWBCE.ltrans3.ltrans.o
                                                  /tmp/ccGYWBCE.ltrans1.ltrans.o
escAndServoConfig.lto_priv.308                    /tmp/ccGYWBCE.ltrans3.ltrans.o
                                                  /tmp/ccGYWBCE.ltrans10.ltrans.o
                                                  /tmp/ccGYWBCE.ltrans2.ltrans.o
escAndServoConfig.lto_priv.342                    /tmp/ccGYWBCE.ltrans1.ltrans.o
                                                  /tmp/ccGYWBCE.ltrans10.ltrans.o
escAndServoConfig.lto_priv.343                    /tmp/ccGYWBCE.ltrans13.ltrans.o
                                                  /tmp/ccGYWBCE.ltrans10.ltrans.o
                                                  /tmp/ccGYWBCE.ltrans1.ltrans.o
escCount                                          obj/main/SPRACINGF3/io/serial_1wire.o (symbol from plugin)
                                                  obj/main/SPRACINGF3/io/serial_msp.o (symbol from plugin)
evaluateOtherData                                 obj/main/SPRACINGF3/io/serial.o (symbol from plugin)
                                                  obj/main/SPRACINGF3/io/serial_msp.o (symbol from plugin)
extiHandlerConfigs.lto_priv.230                   /tmp/ccGYWBCE.ltrans7.ltrans.o
                                                  /tmp/ccGYWBCE.ltrans13.ltrans.o
                                                  /tmp/ccGYWBCE.ltrans0.ltrans.o
extractAndStoreRxByte                             obj/main/SPRACINGF3/drivers/serial_softserial.o (symbol from plugin)
fabsf                                             /usr/lib/gcc/arm-none-eabi/4.9.3/../../../arm-none-eabi/lib/armv7e-m/fpu/libm.a(lib_a-sf_fabs.o)
                                                  /usr/lib/gcc/arm-none-eabi/4.9.3/../../../arm-none-eabi/lib/armv7e-m/fpu/libm.a(lib_a-kf_tan.o)
                                                  /usr/lib/gcc/arm-none-eabi/4.9.3/../../../arm-none-eabi/lib/armv7e-m/fpu/libm.a(lib_a-ef_rem_pio2.o)
                                                  /usr/lib/gcc/arm-none-eabi/4.9.3/../../../arm-none-eabi/lib/armv7e-m/fpu/libm.a(lib_a-ef_pow.o)
failsafeActivate.lto_priv.272                     /tmp/ccGYWBCE.ltrans26.ltrans.o
                                                  /tmp/ccGYWBCE.ltrans3.ltrans.o
failsafeConfig.lto_priv.267                       /tmp/ccGYWBCE.ltrans26.ltrans.o
                                                  /tmp/ccGYWBCE.ltrans10.ltrans.o
                                                  /tmp/ccGYWBCE.ltrans3.ltrans.o
failsafeInit                                      obj/main/SPRACINGF3/flight/failsafe.o (symbol from plugin)
                                                  obj/main/SPRACINGF3/main.o (symbol from plugin)
failsafeIsActive                                  obj/main/SPRACINGF3/flight/failsafe.o (symbol from plugin)
                                                  obj/main/SPRACINGF3/io/rc_controls.o (symbol from plugin)
                                                  obj/main/SPRACINGF3/flight/mixer.o (symbol from plugin)
                                                  obj/main/SPRACINGF3/mw.o (symbol from plugin)
                                                  obj/main/SPRACINGF3/telemetry/ltm.o (symbol from plugin)
                                                  obj/main/SPRACINGF3/io/ledstrip.o (symbol from plugin)
failsafeIsMonitoring                              obj/main/SPRACINGF3/flight/failsafe.o (symbol from plugin)
                                                  obj/main/SPRACINGF3/mw.o (symbol from plugin)
failsafeIsReceivingRxData                         obj/main/SPRACINGF3/flight/failsafe.o (symbol from plugin)
failsafeOnRxResume                                obj/main/SPRACINGF3/flight/failsafe.o (symbol from plugin)
                                                  obj/main/SPRACINGF3/rx/rx.o (symbol from plugin)
failsafeOnRxSuspend                               obj/main/SPRACINGF3/flight/failsafe.o (symbol from plugin)
                                                  obj/main/SPRACINGF3/rx/rx.o (symbol from plugin)
failsafeOnValidDataFailed                         obj/main/SPRACINGF3/flight/failsafe.o (symbol from plugin)
                                                  obj/main/SPRACINGF3/rx/rx.o (symbol from plugin)
failsafeOnValidDataReceived                       obj/main/SPRACINGF3/flight/failsafe.o (symbol from plugin)
                                                  obj/main/SPRACINGF3/rx/rx.o (symbol from plugin)
failsafePhase                                     obj/main/SPRACINGF3/flight/failsafe.o (symbol from plugin)
                                                  obj/main/SPRACINGF3/blackbox/blackbox.o (symbol from plugin)
                                                  obj/main/SPRACINGF3/io/display.o (symbol from plugin)
failsafeStartMonitoring                           obj/main/SPRACINGF3/flight/failsafe.o (symbol from plugin)
                                                  obj/main/SPRACINGF3/mw.o (symbol from plugin)
failsafeState.lto_priv.235                        /tmp/ccGYWBCE.ltrans8.ltrans.o
                                                  /tmp/ccGYWBCE.ltrans26.ltrans.o
                                                  /tmp/ccGYWBCE.ltrans19.ltrans.o
                                                  /tmp/ccGYWBCE.ltrans10.ltrans.o
                                                  /tmp/ccGYWBCE.ltrans9.ltrans.o
                                                  /tmp/ccGYWBCE.ltrans6.ltrans.o
                                                  /tmp/ccGYWBCE.ltrans5.ltrans.o
                                                  /tmp/ccGYWBCE.ltrans3.ltrans.o
                                                  /tmp/ccGYWBCE.ltrans1.ltrans.o
                                                  /tmp/ccGYWBCE.ltrans0.ltrans.o
failsafeUpdateState                               obj/main/SPRACINGF3/flight/failsafe.o (symbol from plugin)
                                                  obj/main/SPRACINGF3/mw.o (symbol from plugin)
failureMode                                       /tmp/ccGYWBCE.ltrans7.ltrans.o
                                                  obj/main/SPRACINGF3/drivers/system.o (symbol from plugin)
                                                  /tmp/ccGYWBCE.ltrans20.ltrans.o
                                                  /tmp/ccGYWBCE.ltrans13.ltrans.o
                                                  /tmp/ccGYWBCE.ltrans10.ltrans.o
                                                  /tmp/ccGYWBCE.ltrans0.ltrans.o
                                                  obj/main/SPRACINGF3/main.o (symbol from plugin)
                                                  obj/main/SPRACINGF3/config/config.o (symbol from plugin)
                                                  obj/main/SPRACINGF3/drivers/accgyro_mpu.o (symbol from plugin)
fastA2F                                           /tmp/ccGYWBCE.ltrans20.ltrans.o
                                                  obj/main/SPRACINGF3/common/typeconversion.o (symbol from plugin)
                                                  /tmp/ccGYWBCE.ltrans22.ltrans.o
                                                  /tmp/ccGYWBCE.ltrans7.ltrans.o
                                                  obj/main/SPRACINGF3/io/serial_cli.o (symbol from plugin)
fc_acc                                            /tmp/ccGYWBCE.ltrans1.ltrans.o
                                                  obj/main/SPRACINGF3/flight/imu.o (symbol from plugin)
                                                  /tmp/ccGYWBCE.ltrans10.ltrans.o
feature                                           obj/main/SPRACINGF3/config/config.o (symbol from plugin)
                                                  obj/main/SPRACINGF3/sensors/battery.o (symbol from plugin)
                                                  obj/main/SPRACINGF3/sensors/acceleration.o (symbol from plugin)
                                                  obj/main/SPRACINGF3/rx/pwm.o (symbol from plugin)
                                                  obj/main/SPRACINGF3/rx/rx.o (symbol from plugin)
                                                  obj/main/SPRACINGF3/io/serial_msp.o (symbol from plugin)
                                                  obj/main/SPRACINGF3/io/rc_controls.o (symbol from plugin)
                                                  obj/main/SPRACINGF3/io/beeper.o (symbol from plugin)
                                                  obj/main/SPRACINGF3/flight/mixer.o (symbol from plugin)
                                                  obj/main/SPRACINGF3/mw.o (symbol from plugin)
                                                  obj/main/SPRACINGF3/main.o (symbol from plugin)
                                                  obj/main/SPRACINGF3/blackbox/blackbox.o (symbol from plugin)
                                                  obj/main/SPRACINGF3/telemetry/smartport.o (symbol from plugin)
                                                  obj/main/SPRACINGF3/telemetry/frsky.o (symbol from plugin)
                                                  obj/main/SPRACINGF3/io/display.o (symbol from plugin)
                                                  obj/main/SPRACINGF3/io/ledstrip.o (symbol from plugin)
                                                  obj/main/SPRACINGF3/io/gps.o (symbol from plugin)
                                                  obj/main/SPRACINGF3/flight/gtune.o (symbol from plugin)
featureClear                                      /tmp/ccGYWBCE.ltrans20.ltrans.o
                                                  obj/main/SPRACINGF3/config/config.o (symbol from plugin)
                                                  /tmp/ccGYWBCE.ltrans12.ltrans.o
                                                  /tmp/ccGYWBCE.ltrans10.ltrans.o
                                                  /tmp/ccGYWBCE.ltrans0.ltrans.o
                                                  obj/main/SPRACINGF3/rx/rx.o (symbol from plugin)
                                                  obj/main/SPRACINGF3/io/serial_cli.o (symbol from plugin)
                                                  obj/main/SPRACINGF3/io/gps.o (symbol from plugin)
featureClearAll                                   obj/main/SPRACINGF3/config/config.o (symbol from plugin)
                                                  obj/main/SPRACINGF3/io/serial_msp.o (symbol from plugin)
featureConfigured                                 obj/main/SPRACINGF3/config/config.o (symbol from plugin)
featureMask                                       obj/main/SPRACINGF3/config/config.o (symbol from plugin)
                                                  obj/main/SPRACINGF3/io/serial_msp.o (symbol from plugin)
                                                  obj/main/SPRACINGF3/io/serial_cli.o (symbol from plugin)
featureSet                                        /tmp/ccGYWBCE.ltrans20.ltrans.o
                                                  obj/main/SPRACINGF3/config/config.o (symbol from plugin)
                                                  /tmp/ccGYWBCE.ltrans12.ltrans.o
                                                  /tmp/ccGYWBCE.ltrans10.ltrans.o
                                                  /tmp/ccGYWBCE.ltrans2.ltrans.o
                                                  obj/main/SPRACINGF3/io/serial_msp.o (symbol from plugin)
                                                  obj/main/SPRACINGF3/io/serial_cli.o (symbol from plugin)
filterApplyPt1                                    obj/main/SPRACINGF3/common/filter.o (symbol from plugin)
                                                  obj/main/SPRACINGF3/flight/imu.o (symbol from plugin)
                                                  obj/main/SPRACINGF3/mw.o (symbol from plugin)
filterIsSetCheck                                  /tmp/ccGYWBCE.ltrans26.ltrans.o
                                                  obj/main/SPRACINGF3/flight/pid.o (symbol from plugin)
                                                  /tmp/ccGYWBCE.ltrans13.ltrans.o
filterRc                                          obj/main/SPRACINGF3/mw.o (symbol from plugin)
filterServos                                      obj/main/SPRACINGF3/flight/mixer.o (symbol from plugin)
                                                  obj/main/SPRACINGF3/mw.o (symbol from plugin)
filteredCycleTime                                 obj/main/SPRACINGF3/mw.o (symbol from plugin)
findNextSerialPortConfig                          /tmp/ccGYWBCE.ltrans7.ltrans.o
                                                  obj/main/SPRACINGF3/io/serial.o (symbol from plugin)
                                                  /tmp/ccGYWBCE.ltrans16.ltrans.o
                                                  obj/main/SPRACINGF3/io/serial_msp.o (symbol from plugin)
findNextSharedSerialPort                          obj/main/SPRACINGF3/io/serial.o (symbol from plugin)
                                                  obj/main/SPRACINGF3/mw.o (symbol from plugin)
findNextSharedSerialPort.constprop.16             /tmp/ccGYWBCE.ltrans16.ltrans.o
                                                  /tmp/ccGYWBCE.ltrans18.ltrans.o
                                                  /tmp/ccGYWBCE.ltrans3.ltrans.o
findSerialPortConfig                              /tmp/ccGYWBCE.ltrans7.ltrans.o
                                                  obj/main/SPRACINGF3/io/serial.o (symbol from plugin)
                                                  /tmp/ccGYWBCE.ltrans18.ltrans.o
                                                  /tmp/ccGYWBCE.ltrans16.ltrans.o
                                                  /tmp/ccGYWBCE.ltrans0.ltrans.o
                                                  obj/main/SPRACINGF3/rx/ibus.o (symbol from plugin)
                                                  obj/main/SPRACINGF3/rx/xbus.o (symbol from plugin)
                                                  obj/main/SPRACINGF3/rx/spektrum.o (symbol from plugin)
                                                  obj/main/SPRACINGF3/rx/sumh.o (symbol from plugin)
                                                  obj/main/SPRACINGF3/rx/sumd.o (symbol from plugin)
                                                  obj/main/SPRACINGF3/rx/sbus.o (symbol from plugin)
                                                  obj/main/SPRACINGF3/io/serial_msp.o (symbol from plugin)
                                                  obj/main/SPRACINGF3/blackbox/blackbox_io.o (symbol from plugin)
                                                  obj/main/SPRACINGF3/telemetry/ltm.o (symbol from plugin)
                                                  obj/main/SPRACINGF3/telemetry/smartport.o (symbol from plugin)
                                                  obj/main/SPRACINGF3/telemetry/hott.o (symbol from plugin)
                                                  obj/main/SPRACINGF3/telemetry/frsky.o (symbol from plugin)
                                                  obj/main/SPRACINGF3/io/gps.o (symbol from plugin)
findSerialPortUsageByPort                         obj/main/SPRACINGF3/io/serial.o (symbol from plugin)
findSharedSerialPort                              obj/main/SPRACINGF3/io/serial.o (symbol from plugin)
                                                  obj/main/SPRACINGF3/mw.o (symbol from plugin)
findSharedSerialPortState.lto_priv.258            /tmp/ccGYWBCE.ltrans16.ltrans.o
                                                  /tmp/ccGYWBCE.ltrans18.ltrans.o
                                                  /tmp/ccGYWBCE.ltrans3.ltrans.o
finishBlackbox                                    obj/main/SPRACINGF3/blackbox/blackbox.o (symbol from plugin)
                                                  obj/main/SPRACINGF3/mw.o (symbol from plugin)
finitef                                           /usr/lib/gcc/arm-none-eabi/4.9.3/../../../arm-none-eabi/lib/armv7e-m/fpu/libm.a(lib_a-sf_finite.o)
                                                  /usr/lib/gcc/arm-none-eabi/4.9.3/../../../arm-none-eabi/lib/armv7e-m/fpu/libm.a(lib_a-wf_pow.o)
flashLedsAndBeep                                  obj/main/SPRACINGF3/main.o (symbol from plugin)
flashWriteBuffer.lto_priv.494                     /tmp/ccGYWBCE.ltrans10.ltrans.o
                                                  /tmp/ccGYWBCE.ltrans14.ltrans.o
                                                  /tmp/ccGYWBCE.ltrans9.ltrans.o
flashfsAdvanceTailInBuffer.lto_priv.492           /tmp/ccGYWBCE.ltrans14.ltrans.o
                                                  /tmp/ccGYWBCE.ltrans10.ltrans.o
flashfsEraseCompletely                            /tmp/ccGYWBCE.ltrans14.ltrans.o
                                                  obj/main/SPRACINGF3/io/flashfs.o (symbol from plugin)
                                                  /tmp/ccGYWBCE.ltrans12.ltrans.o
                                                  /tmp/ccGYWBCE.ltrans2.ltrans.o
                                                  obj/main/SPRACINGF3/io/serial_msp.o (symbol from plugin)
                                                  obj/main/SPRACINGF3/io/serial_cli.o (symbol from plugin)
flashfsEraseRange                                 obj/main/SPRACINGF3/io/flashfs.o (symbol from plugin)
flashfsFlushAsync                                 /tmp/ccGYWBCE.ltrans14.ltrans.o
                                                  obj/main/SPRACINGF3/io/flashfs.o (symbol from plugin)
                                                  /tmp/ccGYWBCE.ltrans10.ltrans.o
                                                  /tmp/ccGYWBCE.ltrans9.ltrans.o
                                                  obj/main/SPRACINGF3/blackbox/blackbox_io.o (symbol from plugin)
flashfsFlushSync                                  /tmp/ccGYWBCE.ltrans14.ltrans.o
                                                  obj/main/SPRACINGF3/io/flashfs.o (symbol from plugin)
                                                  /tmp/ccGYWBCE.ltrans2.ltrans.o
                                                  /tmp/ccGYWBCE.ltrans0.ltrans.o
flashfsGetDirtyDataBuffers.lto_priv.490           /tmp/ccGYWBCE.ltrans14.ltrans.o
                                                  /tmp/ccGYWBCE.ltrans10.ltrans.o
flashfsGetGeometry                                obj/main/SPRACINGF3/io/flashfs.o (symbol from plugin)
                                                  obj/main/SPRACINGF3/io/serial_msp.o (symbol from plugin)
                                                  obj/main/SPRACINGF3/io/serial_cli.o (symbol from plugin)
flashfsGetOffset                                  /tmp/ccGYWBCE.ltrans14.ltrans.o
                                                  obj/main/SPRACINGF3/io/flashfs.o (symbol from plugin)
                                                  /tmp/ccGYWBCE.ltrans12.ltrans.o
                                                  /tmp/ccGYWBCE.ltrans2.ltrans.o
                                                  obj/main/SPRACINGF3/io/serial_msp.o (symbol from plugin)
                                                  obj/main/SPRACINGF3/io/serial_cli.o (symbol from plugin)
flashfsGetSize                                    obj/main/SPRACINGF3/io/flashfs.o (symbol from plugin)
                                                  obj/main/SPRACINGF3/blackbox/blackbox_io.o (symbol from plugin)
flashfsGetWriteBufferFreeSpace                    obj/main/SPRACINGF3/io/flashfs.o (symbol from plugin)
                                                  obj/main/SPRACINGF3/blackbox/blackbox_io.o (symbol from plugin)
flashfsGetWriteBufferSize                         obj/main/SPRACINGF3/io/flashfs.o (symbol from plugin)
                                                  obj/main/SPRACINGF3/blackbox/blackbox_io.o (symbol from plugin)
flashfsIdentifyStartOfFreeSpace                   obj/main/SPRACINGF3/io/flashfs.o (symbol from plugin)
flashfsInit                                       obj/main/SPRACINGF3/io/flashfs.o (symbol from plugin)
                                                  obj/main/SPRACINGF3/main.o (symbol from plugin)
flashfsIsEOF                                      obj/main/SPRACINGF3/io/flashfs.o (symbol from plugin)
                                                  obj/main/SPRACINGF3/blackbox/blackbox_io.o (symbol from plugin)
flashfsIsReady                                    obj/main/SPRACINGF3/io/flashfs.o (symbol from plugin)
                                                  obj/main/SPRACINGF3/io/serial_msp.o (symbol from plugin)
                                                  obj/main/SPRACINGF3/io/serial_cli.o (symbol from plugin)
flashfsReadAbs                                    obj/main/SPRACINGF3/io/flashfs.o (symbol from plugin)
                                                  obj/main/SPRACINGF3/io/serial_msp.o (symbol from plugin)
flashfsSeekAbs                                    obj/main/SPRACINGF3/io/flashfs.o (symbol from plugin)
flashfsSeekRel                                    obj/main/SPRACINGF3/io/flashfs.o (symbol from plugin)
flashfsTransmitBufferUsed.lto_priv.361            /tmp/ccGYWBCE.ltrans14.ltrans.o
                                                  /tmp/ccGYWBCE.ltrans10.ltrans.o
                                                  /tmp/ccGYWBCE.ltrans9.ltrans.o
                                                  /tmp/ccGYWBCE.ltrans1.ltrans.o
flashfsWrite                                      obj/main/SPRACINGF3/io/flashfs.o (symbol from plugin)
                                                  obj/main/SPRACINGF3/blackbox/blackbox_io.o (symbol from plugin)
flashfsWriteBuffers.lto_priv.491                  /tmp/ccGYWBCE.ltrans14.ltrans.o
                                                  /tmp/ccGYWBCE.ltrans10.ltrans.o
flashfsWriteByte                                  obj/main/SPRACINGF3/io/flashfs.o (symbol from plugin)
                                                  obj/main/SPRACINGF3/blackbox/blackbox_io.o (symbol from plugin)
flight3DConfig.lto_priv.344                       /tmp/ccGYWBCE.ltrans13.ltrans.o
                                                  /tmp/ccGYWBCE.ltrans10.ltrans.o
                                                  /tmp/ccGYWBCE.ltrans1.ltrans.o
flightControllerIdentifier                        obj/main/SPRACINGF3/io/serial_msp.o (symbol from plugin)
flightModeFlags                                   /tmp/ccGYWBCE.ltrans8.ltrans.o
                                                  obj/main/SPRACINGF3/config/runtime_config.o (symbol from plugin)
                                                  /tmp/ccGYWBCE.ltrans20.ltrans.o
                                                  /tmp/ccGYWBCE.ltrans14.ltrans.o
                                                  /tmp/ccGYWBCE.ltrans13.ltrans.o
                                                  /tmp/ccGYWBCE.ltrans11.ltrans.o
                                                  /tmp/ccGYWBCE.ltrans9.ltrans.o
                                                  /tmp/ccGYWBCE.ltrans6.ltrans.o
                                                  /tmp/ccGYWBCE.ltrans5.ltrans.o
                                                  /tmp/ccGYWBCE.ltrans3.ltrans.o
                                                  /tmp/ccGYWBCE.ltrans1.ltrans.o
                                                  obj/main/SPRACINGF3/io/serial_msp.o (symbol from plugin)
                                                  obj/main/SPRACINGF3/flight/mixer.o (symbol from plugin)
                                                  obj/main/SPRACINGF3/flight/pid.o (symbol from plugin)
                                                  obj/main/SPRACINGF3/flight/altitudehold.o (symbol from plugin)
                                                  obj/main/SPRACINGF3/mw.o (symbol from plugin)
                                                  obj/main/SPRACINGF3/blackbox/blackbox.o (symbol from plugin)
                                                  obj/main/SPRACINGF3/telemetry/ltm.o (symbol from plugin)
                                                  obj/main/SPRACINGF3/telemetry/smartport.o (symbol from plugin)
                                                  obj/main/SPRACINGF3/io/ledstrip.o (symbol from plugin)
                                                  obj/main/SPRACINGF3/flight/navigation.o (symbol from plugin)
                                                  obj/main/SPRACINGF3/flight/gtune.o (symbol from plugin)
floorf                                            /usr/lib/gcc/arm-none-eabi/4.9.3/../../../arm-none-eabi/lib/armv7e-m/fpu/libm.a(lib_a-sf_floor.o)
                                                  /usr/lib/gcc/arm-none-eabi/4.9.3/../../../arm-none-eabi/lib/armv7e-m/fpu/libm.a(lib_a-kf_rem_pio2.o)
flushHottRxBuffer.lto_priv.244                    /tmp/ccGYWBCE.ltrans24.ltrans.o
                                                  /tmp/ccGYWBCE.ltrans5.ltrans.o
frSkyDataIdTable                                  obj/main/SPRACINGF3/telemetry/smartport.o (symbol from plugin)
free                                              /usr/lib/gcc/arm-none-eabi/4.9.3/../../../arm-none-eabi/lib/armv7e-m/fpu/libc_nano.a(lib_a-malloc.o)
freeFrSkyTelemetryPort                            obj/main/SPRACINGF3/telemetry/frsky.o (symbol from plugin)
freeHoTTTelemetryPort                             obj/main/SPRACINGF3/telemetry/hott.o (symbol from plugin)
freeLtmTelemetryPort                              obj/main/SPRACINGF3/telemetry/ltm.o (symbol from plugin)
freeSmartPortTelemetryPort                        obj/main/SPRACINGF3/telemetry/smartport.o (symbol from plugin)
frskyPortSharing.lto_priv.511                     /tmp/ccGYWBCE.ltrans0.ltrans.o
                                                  /tmp/ccGYWBCE.ltrans24.ltrans.o
frskyTelemetryEnabled.lto_priv.512                /tmp/ccGYWBCE.ltrans5.ltrans.o
                                                  /tmp/ccGYWBCE.ltrans24.ltrans.o
ftoa                                              /tmp/ccGYWBCE.ltrans20.ltrans.o
                                                  obj/main/SPRACINGF3/common/typeconversion.o (symbol from plugin)
                                                  /tmp/ccGYWBCE.ltrans22.ltrans.o
                                                  /tmp/ccGYWBCE.ltrans12.ltrans.o
                                                  /tmp/ccGYWBCE.ltrans7.ltrans.o
                                                  obj/main/SPRACINGF3/io/serial_cli.o (symbol from plugin)
g_pfnVectors                                      obj/main/SPRACINGF3/startup_stm32f30x_md_gcc.o
generateLedConfig                                 obj/main/SPRACINGF3/io/ledstrip.o (symbol from plugin)
                                                  obj/main/SPRACINGF3/io/serial_cli.o (symbol from plugin)
generateLowpassCoeffs2                            obj/main/SPRACINGF3/flight/lowpass.o (symbol from plugin)
generatePitchRollCurve                            /tmp/ccGYWBCE.ltrans7.ltrans.o
                                                  obj/main/SPRACINGF3/io/rc_curves.o (symbol from plugin)
                                                  /tmp/ccGYWBCE.ltrans10.ltrans.o
                                                  /tmp/ccGYWBCE.ltrans3.ltrans.o
                                                  obj/main/SPRACINGF3/io/rc_controls.o (symbol from plugin)
                                                  obj/main/SPRACINGF3/config/config.o (symbol from plugin)
generateThrottleCurve                             /tmp/ccGYWBCE.ltrans7.ltrans.o
                                                  obj/main/SPRACINGF3/io/rc_curves.o (symbol from plugin)
                                                  /tmp/ccGYWBCE.ltrans10.ltrans.o
                                                  /tmp/ccGYWBCE.ltrans3.ltrans.o
                                                  obj/main/SPRACINGF3/io/rc_controls.o (symbol from plugin)
                                                  obj/main/SPRACINGF3/config/config.o (symbol from plugin)
generateYawCurve                                  obj/main/SPRACINGF3/io/rc_curves.o (symbol from plugin)
                                                  obj/main/SPRACINGF3/config/config.o (symbol from plugin)
geometry.lto_priv.314                             /tmp/ccGYWBCE.ltrans12.ltrans.o
                                                  /tmp/ccGYWBCE.ltrans18.ltrans.o
                                                  /tmp/ccGYWBCE.ltrans14.ltrans.o
                                                  /tmp/ccGYWBCE.ltrans10.ltrans.o
                                                  /tmp/ccGYWBCE.ltrans2.ltrans.o
                                                  /tmp/ccGYWBCE.ltrans0.ltrans.o
getArmingBeepTimeMicros                           obj/main/SPRACINGF3/io/beeper.o (symbol from plugin)
                                                  obj/main/SPRACINGF3/blackbox/blackbox.o (symbol from plugin)
getBatteryState                                   obj/main/SPRACINGF3/sensors/battery.o (symbol from plugin)
                                                  obj/main/SPRACINGF3/telemetry/hott.o (symbol from plugin)
                                                  obj/main/SPRACINGF3/io/ledstrip.o (symbol from plugin)
getBatteryStateString                             obj/main/SPRACINGF3/sensors/battery.o (symbol from plugin)
                                                  obj/main/SPRACINGF3/io/serial_cli.o (symbol from plugin)
getControlRateConfig                              obj/main/SPRACINGF3/config/config.o (symbol from plugin)
                                                  obj/main/SPRACINGF3/io/display.o (symbol from plugin)
getCosTiltAngle                                   obj/main/SPRACINGF3/flight/imu.o (symbol from plugin)
                                                  obj/main/SPRACINGF3/flight/altitudehold.o (symbol from plugin)
getCurrentControlRateProfile                      obj/main/SPRACINGF3/config/config.o (symbol from plugin)
                                                  obj/main/SPRACINGF3/io/serial_cli.o (symbol from plugin)
                                                  obj/main/SPRACINGF3/io/rc_controls.o (symbol from plugin)
                                                  obj/main/SPRACINGF3/io/display.o (symbol from plugin)
getCurrentMinthrottle                             obj/main/SPRACINGF3/config/config.o (symbol from plugin)
getCurrentProfile                                 obj/main/SPRACINGF3/config/config.o (symbol from plugin)
                                                  obj/main/SPRACINGF3/io/serial_cli.o (symbol from plugin)
                                                  obj/main/SPRACINGF3/io/display.o (symbol from plugin)
getLedHsv                                         obj/main/SPRACINGF3/drivers/light_ws2811strip.o (symbol from plugin)
                                                  obj/main/SPRACINGF3/io/ledstrip.o (symbol from plugin)
getRcStickDeflection                              obj/main/SPRACINGF3/io/rc_controls.o (symbol from plugin)
                                                  obj/main/SPRACINGF3/flight/pid.o (symbol from plugin)
getRxfailValue.lto_priv.273                       /tmp/ccGYWBCE.ltrans8.ltrans.o
                                                  /tmp/ccGYWBCE.ltrans3.ltrans.o
getTaskDeltaTime                                  obj/main/SPRACINGF3/scheduler.o (symbol from plugin)
                                                  obj/main/SPRACINGF3/mw.o (symbol from plugin)
getTaskInfo                                       obj/main/SPRACINGF3/scheduler.o (symbol from plugin)
                                                  obj/main/SPRACINGF3/io/serial_cli.o (symbol from plugin)
gimbalConfig.lto_priv.483                         /tmp/ccGYWBCE.ltrans1.ltrans.o
                                                  /tmp/ccGYWBCE.ltrans10.ltrans.o
gpioExtiLineConfig                                obj/main/SPRACINGF3/drivers/gpio_stm32f30x.o (symbol from plugin)
                                                  obj/main/SPRACINGF3/drivers/sonar_hcsr04.o (symbol from plugin)
                                                  obj/main/SPRACINGF3/drivers/compass_hmc5883l.o (symbol from plugin)
                                                  obj/main/SPRACINGF3/drivers/accgyro_mpu.o (symbol from plugin)
gpioInit                                          /tmp/ccGYWBCE.ltrans4.ltrans.o
                                                  obj/main/SPRACINGF3/drivers/gpio_stm32f30x.o (symbol from plugin)
                                                  /tmp/ccGYWBCE.ltrans21.ltrans.o
                                                  /tmp/ccGYWBCE.ltrans15.ltrans.o
                                                  /tmp/ccGYWBCE.ltrans14.ltrans.o
                                                  /tmp/ccGYWBCE.ltrans2.ltrans.o
                                                  /tmp/ccGYWBCE.ltrans0.ltrans.o
                                                  obj/main/SPRACINGF3/rx/spektrum.o (symbol from plugin)
                                                  obj/main/SPRACINGF3/io/serial_1wire.o (symbol from plugin)
                                                  obj/main/SPRACINGF3/drivers/system.o (symbol from plugin)
                                                  obj/main/SPRACINGF3/drivers/sonar_hcsr04.o (symbol from plugin)
                                                  obj/main/SPRACINGF3/drivers/serial_softserial.o (symbol from plugin)
                                                  obj/main/SPRACINGF3/drivers/compass_hmc5883l.o (symbol from plugin)
                                                  obj/main/SPRACINGF3/drivers/accgyro_mpu.o (symbol from plugin)
                                                  obj/main/SPRACINGF3/drivers/timer.o (symbol from plugin)
                                                  obj/main/SPRACINGF3/drivers/system_stm32f30x.o (symbol from plugin)
                                                  obj/main/SPRACINGF3/drivers/sound_beeper_stm32f30x.o (symbol from plugin)
                                                  obj/main/SPRACINGF3/drivers/pwm_rx.o (symbol from plugin)
                                                  obj/main/SPRACINGF3/drivers/pwm_output.o (symbol from plugin)
                                                  obj/main/SPRACINGF3/drivers/light_led_stm32f30x.o (symbol from plugin)
gpsConfig.lto_priv.395                            /tmp/ccGYWBCE.ltrans17.ltrans.o
                                                  /tmp/ccGYWBCE.ltrans11.ltrans.o
                                                  /tmp/ccGYWBCE.ltrans0.ltrans.o
gpsData                                           /tmp/ccGYWBCE.ltrans17.ltrans.o
                                                  obj/main/SPRACINGF3/io/gps.o (symbol from plugin)
                                                  /tmp/ccGYWBCE.ltrans19.ltrans.o
                                                  /tmp/ccGYWBCE.ltrans11.ltrans.o
                                                  /tmp/ccGYWBCE.ltrans0.ltrans.o
                                                  obj/main/SPRACINGF3/io/display.o (symbol from plugin)
gpsEnablePassthrough                              obj/main/SPRACINGF3/io/gps.o (symbol from plugin)
                                                  obj/main/SPRACINGF3/io/serial_cli.o (symbol from plugin)
gpsHistory.lto_priv.495                           /tmp/ccGYWBCE.ltrans18.ltrans.o
                                                  /tmp/ccGYWBCE.ltrans9.ltrans.o
gpsInit                                           obj/main/SPRACINGF3/io/gps.o (symbol from plugin)
                                                  obj/main/SPRACINGF3/main.o (symbol from plugin)
gpsInitData.lto_priv.396                          /tmp/ccGYWBCE.ltrans17.ltrans.o
                                                  /tmp/ccGYWBCE.ltrans0.ltrans.o
gpsInitHardware                                   obj/main/SPRACINGF3/io/gps.o (symbol from plugin)
gpsInitNmea                                       obj/main/SPRACINGF3/io/gps.o (symbol from plugin)
gpsInitUblox                                      obj/main/SPRACINGF3/io/gps.o (symbol from plugin)
gpsNewData.part.2.lto_priv.202                    /tmp/ccGYWBCE.ltrans11.ltrans.o
                                                  /tmp/ccGYWBCE.ltrans22.ltrans.o
                                                  /tmp/ccGYWBCE.ltrans17.ltrans.o
gpsNewFrame                                       /tmp/ccGYWBCE.ltrans11.ltrans.o
                                                  obj/main/SPRACINGF3/io/gps.o (symbol from plugin)
                                                  /tmp/ccGYWBCE.ltrans22.ltrans.o
                                                  /tmp/ccGYWBCE.ltrans17.ltrans.o
gpsPacketLog                                      /tmp/ccGYWBCE.ltrans0.ltrans.o
                                                  obj/main/SPRACINGF3/io/gps.o (symbol from plugin)
                                                  /tmp/ccGYWBCE.ltrans19.ltrans.o
                                                  /tmp/ccGYWBCE.ltrans11.ltrans.o
                                                  obj/main/SPRACINGF3/io/display.o (symbol from plugin)
gpsPort.lto_priv.256                              /tmp/ccGYWBCE.ltrans22.ltrans.o
                                                  /tmp/ccGYWBCE.ltrans17.ltrans.o
                                                  /tmp/ccGYWBCE.ltrans0.ltrans.o
gpsProfile.lto_priv.347                           /tmp/ccGYWBCE.ltrans3.ltrans.o
                                                  /tmp/ccGYWBCE.ltrans14.ltrans.o
                                                  /tmp/ccGYWBCE.ltrans11.ltrans.o
                                                  /tmp/ccGYWBCE.ltrans10.ltrans.o
                                                  /tmp/ccGYWBCE.ltrans1.ltrans.o
                                                  /tmp/ccGYWBCE.ltrans0.ltrans.o
gpsSetState.lto_priv.257                          /tmp/ccGYWBCE.ltrans11.ltrans.o
                                                  /tmp/ccGYWBCE.ltrans17.ltrans.o
                                                  /tmp/ccGYWBCE.ltrans0.ltrans.o
gpsThread                                         obj/main/SPRACINGF3/io/gps.o (symbol from plugin)
                                                  obj/main/SPRACINGF3/mw.o (symbol from plugin)
gpsUsePIDs                                        /tmp/ccGYWBCE.ltrans14.ltrans.o
                                                  obj/main/SPRACINGF3/flight/navigation.o (symbol from plugin)
                                                  /tmp/ccGYWBCE.ltrans10.ltrans.o
                                                  /tmp/ccGYWBCE.ltrans0.ltrans.o
                                                  obj/main/SPRACINGF3/config/config.o (symbol from plugin)
gpsUseProfile                                     obj/main/SPRACINGF3/flight/navigation.o (symbol from plugin)
                                                  obj/main/SPRACINGF3/config/config.o (symbol from plugin)
grab_fields.constprop.104                         /tmp/ccGYWBCE.ltrans16.ltrans.o
                                                  /tmp/ccGYWBCE.ltrans11.ltrans.o
gyro                                              /tmp/ccGYWBCE.ltrans13.ltrans.o
                                                  obj/main/SPRACINGF3/sensors/gyro.o (symbol from plugin)
                                                  /tmp/ccGYWBCE.ltrans1.ltrans.o
                                                  /tmp/ccGYWBCE.ltrans0.ltrans.o
                                                  obj/main/SPRACINGF3/sensors/initialisation.o (symbol from plugin)
                                                  obj/main/SPRACINGF3/drivers/gyro_sync.o (symbol from plugin)
                                                  obj/main/SPRACINGF3/flight/imu.o (symbol from plugin)
                                                  obj/main/SPRACINGF3/flight/pid.o (symbol from plugin)
                                                  obj/main/SPRACINGF3/mw.o (symbol from plugin)
                                                  obj/main/SPRACINGF3/blackbox/blackbox.o (symbol from plugin)
gyroADC                                           /tmp/ccGYWBCE.ltrans13.ltrans.o
                                                  obj/main/SPRACINGF3/sensors/gyro.o (symbol from plugin)
                                                  /tmp/ccGYWBCE.ltrans19.ltrans.o
                                                  /tmp/ccGYWBCE.ltrans14.ltrans.o
                                                  /tmp/ccGYWBCE.ltrans9.ltrans.o
                                                  /tmp/ccGYWBCE.ltrans2.ltrans.o
                                                  /tmp/ccGYWBCE.ltrans1.ltrans.o
                                                  obj/main/SPRACINGF3/io/serial_msp.o (symbol from plugin)
                                                  obj/main/SPRACINGF3/flight/imu.o (symbol from plugin)
                                                  obj/main/SPRACINGF3/flight/pid.o (symbol from plugin)
                                                  obj/main/SPRACINGF3/blackbox/blackbox.o (symbol from plugin)
                                                  obj/main/SPRACINGF3/io/display.o (symbol from plugin)
                                                  obj/main/SPRACINGF3/flight/gtune.o (symbol from plugin)
gyroAlign                                         /tmp/ccGYWBCE.ltrans1.ltrans.o
                                                  obj/main/SPRACINGF3/sensors/gyro.o (symbol from plugin)
                                                  /tmp/ccGYWBCE.ltrans0.ltrans.o
                                                  obj/main/SPRACINGF3/sensors/initialisation.o (symbol from plugin)
gyroConfig.lto_priv.487                           /tmp/ccGYWBCE.ltrans1.ltrans.o
                                                  /tmp/ccGYWBCE.ltrans10.ltrans.o
gyroLpfCutFreq.lto_priv.488                       /tmp/ccGYWBCE.ltrans1.ltrans.o
                                                  /tmp/ccGYWBCE.ltrans10.ltrans.o
gyroMPU6xxxCalculateDivider                       obj/main/SPRACINGF3/drivers/gyro_sync.o (symbol from plugin)
                                                  obj/main/SPRACINGF3/drivers/accgyro_mpu6050.o (symbol from plugin)
gyroScale.lto_priv.419                            /tmp/ccGYWBCE.ltrans1.ltrans.o
                                                  /tmp/ccGYWBCE.ltrans0.ltrans.o
gyroSetCalibrationCycles                          obj/main/SPRACINGF3/sensors/gyro.o (symbol from plugin)
                                                  obj/main/SPRACINGF3/io/rc_controls.o (symbol from plugin)
                                                  obj/main/SPRACINGF3/main.o (symbol from plugin)
gyroSyncCheckUpdate                               obj/main/SPRACINGF3/drivers/gyro_sync.o (symbol from plugin)
                                                  obj/main/SPRACINGF3/mw.o (symbol from plugin)
gyroUpdate                                        obj/main/SPRACINGF3/sensors/gyro.o (symbol from plugin)
                                                  obj/main/SPRACINGF3/flight/imu.o (symbol from plugin)
gyroUpdateSampleRate                              obj/main/SPRACINGF3/drivers/gyro_sync.o (symbol from plugin)
                                                  obj/main/SPRACINGF3/sensors/initialisation.o (symbol from plugin)
gyroZero                                          obj/main/SPRACINGF3/sensors/gyro.o (symbol from plugin)
handleBlackbox                                    obj/main/SPRACINGF3/blackbox/blackbox.o (symbol from plugin)
                                                  obj/main/SPRACINGF3/mw.o (symbol from plugin)
handleFrSkyTelemetry                              obj/main/SPRACINGF3/telemetry/frsky.o (symbol from plugin)
                                                  obj/main/SPRACINGF3/telemetry/telemetry.o (symbol from plugin)
handleHoTTTelemetry                               obj/main/SPRACINGF3/telemetry/hott.o (symbol from plugin)
                                                  obj/main/SPRACINGF3/telemetry/telemetry.o (symbol from plugin)
handleInflightCalibrationStickPosition            obj/main/SPRACINGF3/mw.o (symbol from plugin)
                                                  obj/main/SPRACINGF3/io/rc_controls.o (symbol from plugin)
handleLtmTelemetry                                obj/main/SPRACINGF3/telemetry/ltm.o (symbol from plugin)
                                                  obj/main/SPRACINGF3/telemetry/telemetry.o (symbol from plugin)
handleOneshotFeatureChangeOnRestart               /tmp/ccGYWBCE.ltrans20.ltrans.o
                                                  obj/main/SPRACINGF3/config/config.o (symbol from plugin)
                                                  /tmp/ccGYWBCE.ltrans22.ltrans.o
                                                  /tmp/ccGYWBCE.ltrans2.ltrans.o
                                                  obj/main/SPRACINGF3/io/serial_msp.o (symbol from plugin)
                                                  obj/main/SPRACINGF3/io/serial_cli.o (symbol from plugin)
handlePageChange                                  obj/main/SPRACINGF3/io/display.o (symbol from plugin)
handleSerial                                      obj/main/SPRACINGF3/io/serial.o (symbol from plugin)
                                                  obj/main/SPRACINGF3/mw.o (symbol from plugin)
handleSmartPortTelemetry                          obj/main/SPRACINGF3/telemetry/smartport.o (symbol from plugin)
                                                  obj/main/SPRACINGF3/telemetry/telemetry.o (symbol from plugin)
hasEnoughTimeLapsedSinceLastTelemetryTransmission obj/main/SPRACINGF3/telemetry/frsky.o (symbol from plugin)
haveProcessedAnnexCodeOnce.lto_priv.340           /tmp/ccGYWBCE.ltrans3.ltrans.o
                                                  /tmp/ccGYWBCE.ltrans1.ltrans.o
hcsr04_get_distance                               obj/main/SPRACINGF3/drivers/sonar_hcsr04.o (symbol from plugin)
                                                  obj/main/SPRACINGF3/sensors/sonar.o (symbol from plugin)
hcsr04_init                                       obj/main/SPRACINGF3/drivers/sonar_hcsr04.o (symbol from plugin)
                                                  obj/main/SPRACINGF3/sensors/sonar.o (symbol from plugin)
hcsr04_start_reading                              obj/main/SPRACINGF3/drivers/sonar_hcsr04.o (symbol from plugin)
                                                  obj/main/SPRACINGF3/sensors/sonar.o (symbol from plugin)
headFreeModeHold                                  /tmp/ccGYWBCE.ltrans3.ltrans.o
                                                  obj/main/SPRACINGF3/mw.o (symbol from plugin)
                                                  /tmp/ccGYWBCE.ltrans18.ltrans.o
                                                  /tmp/ccGYWBCE.ltrans1.ltrans.o
headSerialError.constprop.9                       /tmp/ccGYWBCE.ltrans16.ltrans.o
                                                  /tmp/ccGYWBCE.ltrans2.ltrans.o
headSerialReply.lto_priv.331                      /tmp/ccGYWBCE.ltrans8.ltrans.o
                                                  /tmp/ccGYWBCE.ltrans2.ltrans.o
headSerialResponse.lto_priv.176                   /tmp/ccGYWBCE.ltrans8.ltrans.o
                                                  /tmp/ccGYWBCE.ltrans16.ltrans.o
highestXValueForWest                              /tmp/ccGYWBCE.ltrans6.ltrans.o
                                                  obj/main/SPRACINGF3/io/ledstrip.o (symbol from plugin)
                                                  /tmp/ccGYWBCE.ltrans19.ltrans.o
highestYValueForNorth                             /tmp/ccGYWBCE.ltrans6.ltrans.o
                                                  obj/main/SPRACINGF3/io/ledstrip.o (symbol from plugin)
                                                  /tmp/ccGYWBCE.ltrans19.ltrans.o
hmc5883Config.lto_priv.536                        /tmp/ccGYWBCE.ltrans0.ltrans.o
                                                  /tmp/ccGYWBCE.ltrans15.ltrans.o
hmc5883lDetect                                    obj/main/SPRACINGF3/drivers/compass_hmc5883l.o (symbol from plugin)
                                                  obj/main/SPRACINGF3/sensors/initialisation.o (symbol from plugin)
hmc5883lInit                                      /tmp/ccGYWBCE.ltrans15.ltrans.o
                                                  obj/main/SPRACINGF3/drivers/compass_hmc5883l.o (symbol from plugin)
                                                  /tmp/ccGYWBCE.ltrans0.ltrans.o
hmc5883lRead                                      /tmp/ccGYWBCE.ltrans15.ltrans.o
                                                  obj/main/SPRACINGF3/drivers/compass_hmc5883l.o (symbol from plugin)
                                                  /tmp/ccGYWBCE.ltrans0.ltrans.o
hottEAMMessage.lto_priv.388                       /tmp/ccGYWBCE.ltrans5.ltrans.o
                                                  /tmp/ccGYWBCE.ltrans0.ltrans.o
hottGPSMessage.lto_priv.389                       /tmp/ccGYWBCE.ltrans5.ltrans.o
                                                  /tmp/ccGYWBCE.ltrans0.ltrans.o
hottPort.lto_priv.503                             /tmp/ccGYWBCE.ltrans5.ltrans.o
                                                  /tmp/ccGYWBCE.ltrans24.ltrans.o
hottPortSharing.lto_priv.509                      /tmp/ccGYWBCE.ltrans0.ltrans.o
                                                  /tmp/ccGYWBCE.ltrans24.ltrans.o
hottPrepareEAMResponse                            obj/main/SPRACINGF3/telemetry/hott.o (symbol from plugin)
hottPrepareGPSResponse                            obj/main/SPRACINGF3/telemetry/hott.o (symbol from plugin)
hottTelemetryEnabled.lto_priv.510                 /tmp/ccGYWBCE.ltrans5.ltrans.o
                                                  /tmp/ccGYWBCE.ltrans24.ltrans.o
hse_value                                         obj/main/SPRACINGF3/system_stm32f30x.o (symbol from plugin)
hsvToRgb24                                        obj/main/SPRACINGF3/common/colorconversion.o (symbol from plugin)
                                                  obj/main/SPRACINGF3/drivers/light_ws2811strip.o (symbol from plugin)
hsv_black                                         /tmp/ccGYWBCE.ltrans6.ltrans.o
                                                  obj/main/SPRACINGF3/io/ledstrip.o (symbol from plugin)
                                                  /tmp/ccGYWBCE.ltrans10.ltrans.o
hsv_blue                                          /tmp/ccGYWBCE.ltrans6.ltrans.o
                                                  obj/main/SPRACINGF3/io/ledstrip.o (symbol from plugin)
                                                  /tmp/ccGYWBCE.ltrans10.ltrans.o
hsv_cyan                                          obj/main/SPRACINGF3/io/ledstrip.o (symbol from plugin)
hsv_darkViolet                                    obj/main/SPRACINGF3/io/ledstrip.o (symbol from plugin)
hsv_deepPink                                      obj/main/SPRACINGF3/io/ledstrip.o (symbol from plugin)
hsv_green                                         /tmp/ccGYWBCE.ltrans6.ltrans.o
                                                  obj/main/SPRACINGF3/io/ledstrip.o (symbol from plugin)
                                                  /tmp/ccGYWBCE.ltrans10.ltrans.o
hsv_lightBlue                                     obj/main/SPRACINGF3/io/ledstrip.o (symbol from plugin)
hsv_limeGreen                                     obj/main/SPRACINGF3/io/ledstrip.o (symbol from plugin)
hsv_magenta                                       obj/main/SPRACINGF3/io/ledstrip.o (symbol from plugin)
hsv_mintGreen                                     obj/main/SPRACINGF3/io/ledstrip.o (symbol from plugin)
hsv_orange                                        /tmp/ccGYWBCE.ltrans6.ltrans.o
                                                  obj/main/SPRACINGF3/io/ledstrip.o (symbol from plugin)
                                                  /tmp/ccGYWBCE.ltrans10.ltrans.o
hsv_red                                           /tmp/ccGYWBCE.ltrans6.ltrans.o
                                                  obj/main/SPRACINGF3/io/ledstrip.o (symbol from plugin)
                                                  /tmp/ccGYWBCE.ltrans10.ltrans.o
hsv_white                                         /tmp/ccGYWBCE.ltrans0.ltrans.o
                                                  obj/main/SPRACINGF3/io/ledstrip.o (symbol from plugin)
                                                  /tmp/ccGYWBCE.ltrans10.ltrans.o
                                                  obj/main/SPRACINGF3/drivers/light_ws2811strip_stm32f30x.o (symbol from plugin)
hsv_yellow                                        /tmp/ccGYWBCE.ltrans6.ltrans.o
                                                  obj/main/SPRACINGF3/io/ledstrip.o (symbol from plugin)
                                                  /tmp/ccGYWBCE.ltrans10.ltrans.o
i2a                                               obj/main/SPRACINGF3/common/typeconversion.o (symbol from plugin)
                                                  obj/main/SPRACINGF3/common/printf.o (symbol from plugin)
i2cGetErrorCounter                                /tmp/ccGYWBCE.ltrans4.ltrans.o
                                                  obj/main/SPRACINGF3/drivers/bus_i2c_stm32f30x.o (symbol from plugin)
                                                  /tmp/ccGYWBCE.ltrans22.ltrans.o
                                                  /tmp/ccGYWBCE.ltrans2.ltrans.o
                                                  obj/main/SPRACINGF3/io/serial_msp.o (symbol from plugin)
                                                  obj/main/SPRACINGF3/io/serial_cli.o (symbol from plugin)
i2cInit                                           obj/main/SPRACINGF3/drivers/bus_i2c_stm32f30x.o (symbol from plugin)
                                                  obj/main/SPRACINGF3/main.o (symbol from plugin)
i2cInitPort                                       obj/main/SPRACINGF3/drivers/bus_i2c_stm32f30x.o (symbol from plugin)
i2cRead                                           /tmp/ccGYWBCE.ltrans4.ltrans.o
                                                  obj/main/SPRACINGF3/drivers/bus_i2c_stm32f30x.o (symbol from plugin)
                                                  /tmp/ccGYWBCE.ltrans15.ltrans.o
                                                  /tmp/ccGYWBCE.ltrans0.ltrans.o
                                                  obj/main/SPRACINGF3/drivers/compass_hmc5883l.o (symbol from plugin)
                                                  obj/main/SPRACINGF3/drivers/compass_ak8975.o (symbol from plugin)
                                                  obj/main/SPRACINGF3/drivers/barometer_ms5611.o (symbol from plugin)
                                                  obj/main/SPRACINGF3/drivers/accgyro_mpu.o (symbol from plugin)
i2cSetOverclock                                   obj/main/SPRACINGF3/drivers/bus_i2c_stm32f30x.o (symbol from plugin)
                                                  obj/main/SPRACINGF3/main.o (symbol from plugin)
i2cTimeoutUserCallback                            obj/main/SPRACINGF3/drivers/bus_i2c_stm32f30x.o (symbol from plugin)
i2cWrite                                          /tmp/ccGYWBCE.ltrans4.ltrans.o
                                                  obj/main/SPRACINGF3/drivers/bus_i2c_stm32f30x.o (symbol from plugin)
                                                  /tmp/ccGYWBCE.ltrans15.ltrans.o
                                                  /tmp/ccGYWBCE.ltrans0.ltrans.o
                                                  obj/main/SPRACINGF3/drivers/compass_hmc5883l.o (symbol from plugin)
                                                  obj/main/SPRACINGF3/drivers/compass_ak8975.o (symbol from plugin)
                                                  obj/main/SPRACINGF3/drivers/barometer_ms5611.o (symbol from plugin)
                                                  obj/main/SPRACINGF3/drivers/accgyro_mpu.o (symbol from plugin)
                                                  obj/main/SPRACINGF3/drivers/display_ug2864hsweg01.o (symbol from plugin)
i2c_OLED_clear_display                            obj/main/SPRACINGF3/drivers/display_ug2864hsweg01.o (symbol from plugin)
i2c_OLED_clear_display_quick                      obj/main/SPRACINGF3/drivers/display_ug2864hsweg01.o (symbol from plugin)
                                                  obj/main/SPRACINGF3/io/display.o (symbol from plugin)
i2c_OLED_send_byte.lto_priv.514                   /tmp/ccGYWBCE.ltrans4.ltrans.o
                                                  /tmp/ccGYWBCE.ltrans19.ltrans.o
i2c_OLED_send_char                                /tmp/ccGYWBCE.ltrans4.ltrans.o
                                                  obj/main/SPRACINGF3/drivers/display_ug2864hsweg01.o (symbol from plugin)
                                                  /tmp/ccGYWBCE.ltrans19.ltrans.o
                                                  /tmp/ccGYWBCE.ltrans16.ltrans.o
                                                  obj/main/SPRACINGF3/io/display.o (symbol from plugin)
i2c_OLED_send_cmd.lto_priv.472                    /tmp/ccGYWBCE.ltrans4.ltrans.o
                                                  /tmp/ccGYWBCE.ltrans19.ltrans.o
                                                  /tmp/ccGYWBCE.ltrans0.ltrans.o
i2c_OLED_send_string                              /tmp/ccGYWBCE.ltrans4.ltrans.o
                                                  obj/main/SPRACINGF3/drivers/display_ug2864hsweg01.o (symbol from plugin)
                                                  /tmp/ccGYWBCE.ltrans19.ltrans.o
                                                  obj/main/SPRACINGF3/io/display.o (symbol from plugin)
i2c_OLED_set_line                                 /tmp/ccGYWBCE.ltrans4.ltrans.o
                                                  obj/main/SPRACINGF3/drivers/display_ug2864hsweg01.o (symbol from plugin)
                                                  /tmp/ccGYWBCE.ltrans19.ltrans.o
                                                  obj/main/SPRACINGF3/io/display.o (symbol from plugin)
i2c_OLED_set_xy                                   /tmp/ccGYWBCE.ltrans4.ltrans.o
                                                  obj/main/SPRACINGF3/drivers/display_ug2864hsweg01.o (symbol from plugin)
                                                  /tmp/ccGYWBCE.ltrans19.ltrans.o
                                                  obj/main/SPRACINGF3/io/display.o (symbol from plugin)
ibus.lto_priv.280                                 /tmp/ccGYWBCE.ltrans8.ltrans.o
                                                  /tmp/ccGYWBCE.ltrans23.ltrans.o
ibusChannelData.lto_priv.281                      /tmp/ccGYWBCE.ltrans8.ltrans.o
                                                  /tmp/ccGYWBCE.ltrans23.ltrans.o
ibusDataReceive.lto_priv.413                      /tmp/ccGYWBCE.ltrans8.ltrans.o
                                                  /tmp/ccGYWBCE.ltrans0.ltrans.o
ibusFrameDone.lto_priv.279                        /tmp/ccGYWBCE.ltrans8.ltrans.o
                                                  /tmp/ccGYWBCE.ltrans23.ltrans.o
ibusFrameStatus                                   obj/main/SPRACINGF3/rx/ibus.o (symbol from plugin)
                                                  obj/main/SPRACINGF3/rx/rx.o (symbol from plugin)
ibusInit                                          obj/main/SPRACINGF3/rx/ibus.o (symbol from plugin)
                                                  obj/main/SPRACINGF3/rx/rx.o (symbol from plugin)
ibusReadRawRC.lto_priv.412                        /tmp/ccGYWBCE.ltrans8.ltrans.o
                                                  /tmp/ccGYWBCE.ltrans0.ltrans.o
imuCalculateAcceleration                          obj/main/SPRACINGF3/flight/imu.o (symbol from plugin)
imuComputeRotationMatrix.lto_priv.363             /tmp/ccGYWBCE.ltrans13.ltrans.o
                                                  /tmp/ccGYWBCE.ltrans1.ltrans.o
                                                  /tmp/ccGYWBCE.ltrans0.ltrans.o
imuConfigure                                      obj/main/SPRACINGF3/flight/imu.o (symbol from plugin)
                                                  obj/main/SPRACINGF3/config/config.o (symbol from plugin)
imuInit                                           obj/main/SPRACINGF3/flight/imu.o (symbol from plugin)
                                                  obj/main/SPRACINGF3/main.o (symbol from plugin)
imuResetAccelerationSum                           obj/main/SPRACINGF3/flight/imu.o (symbol from plugin)
                                                  obj/main/SPRACINGF3/flight/altitudehold.o (symbol from plugin)
imuRuntimeConfig.lto_priv.418                     /tmp/ccGYWBCE.ltrans1.ltrans.o
                                                  /tmp/ccGYWBCE.ltrans10.ltrans.o
                                                  /tmp/ccGYWBCE.ltrans0.ltrans.o
imuTransformVectorBodyToEarth                     obj/main/SPRACINGF3/flight/imu.o (symbol from plugin)
imuUpdateAccelerometer                            obj/main/SPRACINGF3/flight/imu.o (symbol from plugin)
                                                  obj/main/SPRACINGF3/mw.o (symbol from plugin)
imuUpdateGyroAndAttitude                          obj/main/SPRACINGF3/flight/imu.o (symbol from plugin)
                                                  obj/main/SPRACINGF3/mw.o (symbol from plugin)
init                                              /tmp/ccGYWBCE.ltrans0.ltrans.o
                                                  obj/main/SPRACINGF3/main.o (symbol from plugin)
                                                  /tmp/ccGYWBCE.ltrans18.ltrans.o
initBeeperHardware                                obj/main/SPRACINGF3/drivers/sound_beeper_stm32f30x.o (symbol from plugin)
                                                  obj/main/SPRACINGF3/drivers/sound_beeper.o (symbol from plugin)
initBlackbox                                      obj/main/SPRACINGF3/blackbox/blackbox.o (symbol from plugin)
                                                  obj/main/SPRACINGF3/main.o (symbol from plugin)
initBoardAlignment                                obj/main/SPRACINGF3/sensors/boardalignment.o (symbol from plugin)
                                                  obj/main/SPRACINGF3/main.o (symbol from plugin)
initEEPROM                                        obj/main/SPRACINGF3/config/config.o (symbol from plugin)
                                                  obj/main/SPRACINGF3/main.o (symbol from plugin)
initFrSkyTelemetry                                obj/main/SPRACINGF3/telemetry/frsky.o (symbol from plugin)
                                                  obj/main/SPRACINGF3/telemetry/telemetry.o (symbol from plugin)
initGyroFilterCoefficients                        obj/main/SPRACINGF3/sensors/gyro.o (symbol from plugin)
initHoTTTelemetry                                 obj/main/SPRACINGF3/telemetry/hott.o (symbol from plugin)
                                                  obj/main/SPRACINGF3/telemetry/telemetry.o (symbol from plugin)
initLtmTelemetry                                  obj/main/SPRACINGF3/telemetry/ltm.o (symbol from plugin)
                                                  obj/main/SPRACINGF3/telemetry/telemetry.o (symbol from plugin)
initRxRefreshRate                                 obj/main/SPRACINGF3/rx/rx.o (symbol from plugin)
                                                  obj/main/SPRACINGF3/mw.o (symbol from plugin)
initSmartPortTelemetry                            obj/main/SPRACINGF3/telemetry/smartport.o (symbol from plugin)
                                                  obj/main/SPRACINGF3/telemetry/telemetry.o (symbol from plugin)
initSpi2                                          obj/main/SPRACINGF3/drivers/bus_spi.o (symbol from plugin)
init_Gtune                                        obj/main/SPRACINGF3/flight/gtune.o (symbol from plugin)
                                                  obj/main/SPRACINGF3/mw.o (symbol from plugin)
init_printf                                       obj/main/SPRACINGF3/common/printf.o (symbol from plugin)
initialThrottleHold.lto_priv.350                  /tmp/ccGYWBCE.ltrans3.ltrans.o
                                                  /tmp/ccGYWBCE.ltrans1.ltrans.o
inputFilteringMode.lto_priv.544                   /tmp/ccGYWBCE.ltrans0.ltrans.o
                                                  /tmp/ccGYWBCE.ltrans4.ltrans.o
inputSource_e                                     obj/main/SPRACINGF3/io/serial_msp.o (symbol from plugin)
                                                  obj/main/SPRACINGF3/io/serial_cli.o (symbol from plugin)
                                                  obj/main/SPRACINGF3/io/serial_1wire.o (symbol from plugin)
                                                  obj/main/SPRACINGF3/flight/mixer.o (symbol from plugin)
                                                  obj/main/SPRACINGF3/flight/imu.o (symbol from plugin)
                                                  obj/main/SPRACINGF3/flight/altitudehold.o (symbol from plugin)
                                                  obj/main/SPRACINGF3/mw.o (symbol from plugin)
                                                  obj/main/SPRACINGF3/main.o (symbol from plugin)
                                                  obj/main/SPRACINGF3/config/config.o (symbol from plugin)
                                                  obj/main/SPRACINGF3/build_config.o (symbol from plugin)
                                                  obj/main/SPRACINGF3/blackbox/blackbox_io.o (symbol from plugin)
                                                  obj/main/SPRACINGF3/blackbox/blackbox.o (symbol from plugin)
                                                  obj/main/SPRACINGF3/telemetry/ltm.o (symbol from plugin)
                                                  obj/main/SPRACINGF3/telemetry/smartport.o (symbol from plugin)
                                                  obj/main/SPRACINGF3/telemetry/frsky.o (symbol from plugin)
isAccelUpdatedAtLeastOnce.lto_priv.353            /tmp/ccGYWBCE.ltrans25.ltrans.o
                                                  /tmp/ccGYWBCE.ltrans1.ltrans.o
isAccelerationCalibrationComplete                 obj/main/SPRACINGF3/sensors/acceleration.o (symbol from plugin)
                                                  obj/main/SPRACINGF3/mw.o (symbol from plugin)
isBaroCalibrationComplete                         obj/main/SPRACINGF3/sensors/barometer.o (symbol from plugin)
                                                  obj/main/SPRACINGF3/flight/altitudehold.o (symbol from plugin)
                                                  obj/main/SPRACINGF3/mw.o (symbol from plugin)
isBaroReady                                       obj/main/SPRACINGF3/sensors/barometer.o (symbol from plugin)
                                                  obj/main/SPRACINGF3/mw.o (symbol from plugin)
isBlackboxDeviceFull                              /tmp/ccGYWBCE.ltrans10.ltrans.o
                                                  obj/main/SPRACINGF3/blackbox/blackbox_io.o (symbol from plugin)
                                                  /tmp/ccGYWBCE.ltrans18.ltrans.o
                                                  /tmp/ccGYWBCE.ltrans1.ltrans.o
                                                  obj/main/SPRACINGF3/blackbox/blackbox.o (symbol from plugin)
isCalibrating                                     obj/main/SPRACINGF3/mw.o (symbol from plugin)
isEEPROMContentValid.lto_priv.474                 /tmp/ccGYWBCE.ltrans10.ltrans.o
                                                  /tmp/ccGYWBCE.ltrans20.ltrans.o
                                                  /tmp/ccGYWBCE.ltrans0.ltrans.o
isGyroCalibrationComplete                         obj/main/SPRACINGF3/sensors/gyro.o (symbol from plugin)
                                                  obj/main/SPRACINGF3/mw.o (symbol from plugin)
isMPUSoftReset                                    obj/main/SPRACINGF3/drivers/system_stm32f30x.o (symbol from plugin)
                                                  obj/main/SPRACINGF3/rx/spektrum.o (symbol from plugin)
isMixerUsingServos                                obj/main/SPRACINGF3/flight/mixer.o (symbol from plugin)
                                                  obj/main/SPRACINGF3/main.o (symbol from plugin)
isModeActivationConditionPresent                  /tmp/ccGYWBCE.ltrans7.ltrans.o
                                                  obj/main/SPRACINGF3/io/rc_controls.o (symbol from plugin)
                                                  /tmp/ccGYWBCE.ltrans18.ltrans.o
                                                  /tmp/ccGYWBCE.ltrans10.ltrans.o
                                                  /tmp/ccGYWBCE.ltrans2.ltrans.o
                                                  obj/main/SPRACINGF3/blackbox/blackbox.o (symbol from plugin)
isMotorBrushed                                    obj/main/SPRACINGF3/drivers/pwm_output.o (symbol from plugin)
                                                  obj/main/SPRACINGF3/drivers/pwm_mapping.o (symbol from plugin)
isOnFinalAccelerationCalibrationCycle             obj/main/SPRACINGF3/sensors/acceleration.o (symbol from plugin)
isOnFinalGyroCalibrationCycle                     obj/main/SPRACINGF3/sensors/gyro.o (symbol from plugin)
isOnFirstAccelerationCalibrationCycle             obj/main/SPRACINGF3/sensors/acceleration.o (symbol from plugin)
isOnFirstGyroCalibrationCycle                     obj/main/SPRACINGF3/sensors/gyro.o (symbol from plugin)
isPPMDataBeingReceived                            obj/main/SPRACINGF3/drivers/pwm_rx.o (symbol from plugin)
                                                  obj/main/SPRACINGF3/rx/rx.o (symbol from plugin)
isPWMDataBeingReceived                            obj/main/SPRACINGF3/drivers/pwm_rx.o (symbol from plugin)
                                                  obj/main/SPRACINGF3/rx/rx.o (symbol from plugin)
isRXDataNew.lto_priv.351                          /tmp/ccGYWBCE.ltrans3.ltrans.o
                                                  /tmp/ccGYWBCE.ltrans1.ltrans.o
isRangeActive                                     obj/main/SPRACINGF3/io/rc_controls.o (symbol from plugin)
isRangeActive.part.3.lto_priv.271                 /tmp/ccGYWBCE.ltrans7.ltrans.o
                                                  /tmp/ccGYWBCE.ltrans3.ltrans.o
isSerialConfigValid                               obj/main/SPRACINGF3/io/serial.o (symbol from plugin)
                                                  obj/main/SPRACINGF3/config/config.o (symbol from plugin)
isSerialPortShared                                obj/main/SPRACINGF3/io/serial.o (symbol from plugin)
isSerialTransmitBufferEmpty                       /tmp/ccGYWBCE.ltrans13.ltrans.o
                                                  obj/main/SPRACINGF3/drivers/serial.o (symbol from plugin)
                                                  /tmp/ccGYWBCE.ltrans17.ltrans.o
                                                  /tmp/ccGYWBCE.ltrans10.ltrans.o
                                                  /tmp/ccGYWBCE.ltrans7.ltrans.o
                                                  obj/main/SPRACINGF3/io/serial.o (symbol from plugin)
                                                  obj/main/SPRACINGF3/common/printf.o (symbol from plugin)
                                                  obj/main/SPRACINGF3/blackbox/blackbox_io.o (symbol from plugin)
                                                  obj/main/SPRACINGF3/io/gps.o (symbol from plugin)
isSmartPortTimedOut                               obj/main/SPRACINGF3/telemetry/smartport.o (symbol from plugin)
isSoftSerialTransmitBufferEmpty                   obj/main/SPRACINGF3/drivers/serial_softserial.o (symbol from plugin)
isThrustFacingDownwards                           obj/main/SPRACINGF3/flight/altitudehold.o (symbol from plugin)
isUartTransmitBufferEmpty                         /tmp/ccGYWBCE.ltrans21.ltrans.o
                                                  obj/main/SPRACINGF3/drivers/serial_uart.o (symbol from plugin)
                                                  /tmp/ccGYWBCE.ltrans4.ltrans.o
isUsingSticksForArming                            obj/main/SPRACINGF3/io/rc_controls.o (symbol from plugin)
                                                  obj/main/SPRACINGF3/flight/failsafe.o (symbol from plugin)
                                                  obj/main/SPRACINGF3/mw.o (symbol from plugin)
isUsingSticksToArm.lto_priv.309                   /tmp/ccGYWBCE.ltrans3.ltrans.o
                                                  /tmp/ccGYWBCE.ltrans10.ltrans.o
                                                  /tmp/ccGYWBCE.ltrans2.ltrans.o
                                                  /tmp/ccGYWBCE.ltrans1.ltrans.o
isWS2811LedStripReady                             obj/main/SPRACINGF3/drivers/light_ws2811strip.o (symbol from plugin)
                                                  obj/main/SPRACINGF3/io/ledstrip.o (symbol from plugin)
itoa                                              obj/main/SPRACINGF3/common/typeconversion.o (symbol from plugin)
                                                  obj/main/SPRACINGF3/io/serial_cli.o (symbol from plugin)
itoa.constprop.49                                 /tmp/ccGYWBCE.ltrans16.ltrans.o
                                                  /tmp/ccGYWBCE.ltrans20.ltrans.o
                                                  /tmp/ccGYWBCE.ltrans7.ltrans.o
lastMeasurementAt.lto_priv.394                    /tmp/ccGYWBCE.ltrans17.ltrans.o
                                                  /tmp/ccGYWBCE.ltrans0.ltrans.o
latchActiveFeatures                               obj/main/SPRACINGF3/config/config.o (symbol from plugin)
                                                  obj/main/SPRACINGF3/main.o (symbol from plugin)
ledColorBuffer.lto_priv.391                       /tmp/ccGYWBCE.ltrans6.ltrans.o
                                                  /tmp/ccGYWBCE.ltrans19.ltrans.o
                                                  /tmp/ccGYWBCE.ltrans15.ltrans.o
                                                  /tmp/ccGYWBCE.ltrans0.ltrans.o
ledConfigs                                        /tmp/ccGYWBCE.ltrans12.ltrans.o
                                                  obj/main/SPRACINGF3/io/ledstrip.o (symbol from plugin)
                                                  /tmp/ccGYWBCE.ltrans19.ltrans.o
                                                  /tmp/ccGYWBCE.ltrans6.ltrans.o
                                                  /tmp/ccGYWBCE.ltrans0.ltrans.o
ledCount                                          /tmp/ccGYWBCE.ltrans6.ltrans.o
                                                  obj/main/SPRACINGF3/io/ledstrip.o (symbol from plugin)
                                                  /tmp/ccGYWBCE.ltrans19.ltrans.o
ledGridHeight                                     obj/main/SPRACINGF3/io/ledstrip.o (symbol from plugin)
ledGridWidth                                      obj/main/SPRACINGF3/io/ledstrip.o (symbol from plugin)
ledInit                                           obj/main/SPRACINGF3/drivers/light_led_stm32f30x.o (symbol from plugin)
                                                  obj/main/SPRACINGF3/main.o (symbol from plugin)
ledStripDMABuffer                                 /tmp/ccGYWBCE.ltrans0.ltrans.o
                                                  obj/main/SPRACINGF3/drivers/light_ws2811strip.o (symbol from plugin)
                                                  /tmp/ccGYWBCE.ltrans15.ltrans.o
                                                  obj/main/SPRACINGF3/drivers/light_ws2811strip_stm32f30x.o (symbol from plugin)
ledStripEnable                                    obj/main/SPRACINGF3/io/ledstrip.o (symbol from plugin)
                                                  obj/main/SPRACINGF3/main.o (symbol from plugin)
ledStripInit                                      obj/main/SPRACINGF3/io/ledstrip.o (symbol from plugin)
                                                  obj/main/SPRACINGF3/main.o (symbol from plugin)
ledStripInitialised.lto_priv.390                  /tmp/ccGYWBCE.ltrans6.ltrans.o
                                                  /tmp/ccGYWBCE.ltrans0.ltrans.o
ledsInRingCount                                   obj/main/SPRACINGF3/io/ledstrip.o (symbol from plugin)
li2a                                              obj/main/SPRACINGF3/common/typeconversion.o (symbol from plugin)
                                                  obj/main/SPRACINGF3/common/printf.o (symbol from plugin)
loadCustomServoMixer                              /tmp/ccGYWBCE.ltrans13.ltrans.o
                                                  obj/main/SPRACINGF3/flight/mixer.o (symbol from plugin)
                                                  /tmp/ccGYWBCE.ltrans2.ltrans.o
                                                  /tmp/ccGYWBCE.ltrans0.ltrans.o
                                                  obj/main/SPRACINGF3/io/serial_msp.o (symbol from plugin)
lookupBaudRateIndex                               obj/main/SPRACINGF3/io/serial.o (symbol from plugin)
                                                  obj/main/SPRACINGF3/io/serial_cli.o (symbol from plugin)
                                                  obj/main/SPRACINGF3/io/gps.o (symbol from plugin)
lookupPitchRollRC                                 /tmp/ccGYWBCE.ltrans7.ltrans.o
                                                  obj/main/SPRACINGF3/io/rc_curves.o (symbol from plugin)
                                                  /tmp/ccGYWBCE.ltrans1.ltrans.o
                                                  obj/main/SPRACINGF3/mw.o (symbol from plugin)
lookupThrottleRC                                  /tmp/ccGYWBCE.ltrans7.ltrans.o
                                                  obj/main/SPRACINGF3/io/rc_curves.o (symbol from plugin)
                                                  /tmp/ccGYWBCE.ltrans1.ltrans.o
                                                  obj/main/SPRACINGF3/mw.o (symbol from plugin)
lookupTimerIndex.lto_priv.232                     /tmp/ccGYWBCE.ltrans21.ltrans.o
                                                  /tmp/ccGYWBCE.ltrans13.ltrans.o
lookupYawRC                                       /tmp/ccGYWBCE.ltrans1.ltrans.o
                                                  obj/main/SPRACINGF3/io/rc_curves.o (symbol from plugin)
                                                  /tmp/ccGYWBCE.ltrans10.ltrans.o
                                                  obj/main/SPRACINGF3/mw.o (symbol from plugin)
lowestXValueForEast                               /tmp/ccGYWBCE.ltrans6.ltrans.o
                                                  obj/main/SPRACINGF3/io/ledstrip.o (symbol from plugin)
                                                  /tmp/ccGYWBCE.ltrans19.ltrans.o
lowestYValueForSouth                              /tmp/ccGYWBCE.ltrans6.ltrans.o
                                                  obj/main/SPRACINGF3/io/ledstrip.o (symbol from plugin)
                                                  /tmp/ccGYWBCE.ltrans19.ltrans.o
lowpassFixed                                      /tmp/ccGYWBCE.ltrans13.ltrans.o
                                                  obj/main/SPRACINGF3/flight/lowpass.o (symbol from plugin)
                                                  /tmp/ccGYWBCE.ltrans8.ltrans.o
                                                  /tmp/ccGYWBCE.ltrans1.ltrans.o
                                                  obj/main/SPRACINGF3/sensors/battery.o (symbol from plugin)
                                                  obj/main/SPRACINGF3/flight/mixer.o (symbol from plugin)
lrintf                                            /usr/lib/gcc/arm-none-eabi/4.9.3/../../../arm-none-eabi/lib/armv7e-m/fpu/libm.a(lib_a-sf_lrint.o)
                                                  /tmp/ccGYWBCE.ltrans17.ltrans.o
                                                  /tmp/ccGYWBCE.ltrans13.ltrans.o
                                                  /tmp/ccGYWBCE.ltrans8.ltrans.o
                                                  /tmp/ccGYWBCE.ltrans2.ltrans.o
                                                  /tmp/ccGYWBCE.ltrans1.ltrans.o
ltmEnabled.lto_priv.505                           /tmp/ccGYWBCE.ltrans5.ltrans.o
                                                  /tmp/ccGYWBCE.ltrans24.ltrans.o
ltmPort.lto_priv.501                              /tmp/ccGYWBCE.ltrans5.ltrans.o
                                                  /tmp/ccGYWBCE.ltrans24.ltrans.o
ltmPortSharing.lto_priv.504                       /tmp/ccGYWBCE.ltrans0.ltrans.o
                                                  /tmp/ccGYWBCE.ltrans24.ltrans.o
ltm_finalise.lto_priv.247                         /tmp/ccGYWBCE.ltrans24.ltrans.o
                                                  /tmp/ccGYWBCE.ltrans5.ltrans.o
ltm_initialise_packet.lto_priv.250                /tmp/ccGYWBCE.ltrans24.ltrans.o
                                                  /tmp/ccGYWBCE.ltrans5.ltrans.o
ltm_serialise_16.lto_priv.251                     /tmp/ccGYWBCE.ltrans24.ltrans.o
                                                  /tmp/ccGYWBCE.ltrans5.ltrans.o
ltm_serialise_32.lto_priv.249                     /tmp/ccGYWBCE.ltrans24.ltrans.o
                                                  /tmp/ccGYWBCE.ltrans5.ltrans.o
ltm_serialise_8.lto_priv.248                      /tmp/ccGYWBCE.ltrans24.ltrans.o
                                                  /tmp/ccGYWBCE.ltrans5.ltrans.o
m25p16_eraseCompletely                            obj/main/SPRACINGF3/drivers/flash_m25p16.o (symbol from plugin)
                                                  obj/main/SPRACINGF3/io/flashfs.o (symbol from plugin)
m25p16_eraseSector                                obj/main/SPRACINGF3/drivers/flash_m25p16.o (symbol from plugin)
                                                  obj/main/SPRACINGF3/io/flashfs.o (symbol from plugin)
m25p16_getGeometry                                obj/main/SPRACINGF3/drivers/flash_m25p16.o (symbol from plugin)
                                                  obj/main/SPRACINGF3/io/flashfs.o (symbol from plugin)
m25p16_init                                       obj/main/SPRACINGF3/drivers/flash_m25p16.o (symbol from plugin)
                                                  obj/main/SPRACINGF3/main.o (symbol from plugin)
m25p16_isReady                                    /tmp/ccGYWBCE.ltrans15.ltrans.o
                                                  obj/main/SPRACINGF3/drivers/flash_m25p16.o (symbol from plugin)
                                                  /tmp/ccGYWBCE.ltrans14.ltrans.o
                                                  /tmp/ccGYWBCE.ltrans12.ltrans.o
                                                  /tmp/ccGYWBCE.ltrans2.ltrans.o
                                                  obj/main/SPRACINGF3/io/flashfs.o (symbol from plugin)
m25p16_pageProgram                                obj/main/SPRACINGF3/drivers/flash_m25p16.o (symbol from plugin)
m25p16_pageProgramBegin                           obj/main/SPRACINGF3/drivers/flash_m25p16.o (symbol from plugin)
                                                  obj/main/SPRACINGF3/io/flashfs.o (symbol from plugin)
m25p16_pageProgramContinue                        obj/main/SPRACINGF3/drivers/flash_m25p16.o (symbol from plugin)
                                                  obj/main/SPRACINGF3/io/flashfs.o (symbol from plugin)
m25p16_pageProgramFinish                          obj/main/SPRACINGF3/drivers/flash_m25p16.o (symbol from plugin)
                                                  obj/main/SPRACINGF3/io/flashfs.o (symbol from plugin)
m25p16_performOneByteCommand.lto_priv.534         /tmp/ccGYWBCE.ltrans15.ltrans.o
                                                  /tmp/ccGYWBCE.ltrans14.ltrans.o
m25p16_readBytes                                  /tmp/ccGYWBCE.ltrans15.ltrans.o
                                                  obj/main/SPRACINGF3/drivers/flash_m25p16.o (symbol from plugin)
                                                  /tmp/ccGYWBCE.ltrans2.ltrans.o
                                                  /tmp/ccGYWBCE.ltrans0.ltrans.o
                                                  obj/main/SPRACINGF3/io/flashfs.o (symbol from plugin)
m25p16_waitForReady                               /tmp/ccGYWBCE.ltrans15.ltrans.o
                                                  obj/main/SPRACINGF3/drivers/flash_m25p16.o (symbol from plugin)
                                                  /tmp/ccGYWBCE.ltrans14.ltrans.o
mAhDrawn                                          /tmp/ccGYWBCE.ltrans8.ltrans.o
                                                  obj/main/SPRACINGF3/sensors/battery.o (symbol from plugin)
                                                  /tmp/ccGYWBCE.ltrans23.ltrans.o
                                                  /tmp/ccGYWBCE.ltrans19.ltrans.o
                                                  /tmp/ccGYWBCE.ltrans5.ltrans.o
                                                  /tmp/ccGYWBCE.ltrans2.ltrans.o
                                                  obj/main/SPRACINGF3/io/serial_msp.o (symbol from plugin)
                                                  obj/main/SPRACINGF3/telemetry/smartport.o (symbol from plugin)
                                                  obj/main/SPRACINGF3/telemetry/hott.o (symbol from plugin)
                                                  obj/main/SPRACINGF3/telemetry/frsky.o (symbol from plugin)
                                                  obj/main/SPRACINGF3/io/display.o (symbol from plugin)
mag                                               /tmp/ccGYWBCE.ltrans17.ltrans.o
                                                  obj/main/SPRACINGF3/sensors/compass.o (symbol from plugin)
                                                  /tmp/ccGYWBCE.ltrans0.ltrans.o
                                                  obj/main/SPRACINGF3/sensors/initialisation.o (symbol from plugin)
magADC                                            /tmp/ccGYWBCE.ltrans17.ltrans.o
                                                  obj/main/SPRACINGF3/sensors/compass.o (symbol from plugin)
                                                  /tmp/ccGYWBCE.ltrans19.ltrans.o
                                                  /tmp/ccGYWBCE.ltrans9.ltrans.o
                                                  /tmp/ccGYWBCE.ltrans2.ltrans.o
                                                  /tmp/ccGYWBCE.ltrans1.ltrans.o
                                                  obj/main/SPRACINGF3/io/serial_msp.o (symbol from plugin)
                                                  obj/main/SPRACINGF3/flight/imu.o (symbol from plugin)
                                                  obj/main/SPRACINGF3/blackbox/blackbox.o (symbol from plugin)
                                                  obj/main/SPRACINGF3/io/display.o (symbol from plugin)
magAlign                                          /tmp/ccGYWBCE.ltrans17.ltrans.o
                                                  obj/main/SPRACINGF3/sensors/compass.o (symbol from plugin)
                                                  /tmp/ccGYWBCE.ltrans0.ltrans.o
                                                  obj/main/SPRACINGF3/sensors/initialisation.o (symbol from plugin)
magHold                                           /tmp/ccGYWBCE.ltrans3.ltrans.o
                                                  obj/main/SPRACINGF3/mw.o (symbol from plugin)
                                                  /tmp/ccGYWBCE.ltrans11.ltrans.o
                                                  /tmp/ccGYWBCE.ltrans2.ltrans.o
                                                  /tmp/ccGYWBCE.ltrans1.ltrans.o
                                                  obj/main/SPRACINGF3/io/serial_msp.o (symbol from plugin)
                                                  obj/main/SPRACINGF3/flight/navigation.o (symbol from plugin)
magInit.lto_priv.420                              /tmp/ccGYWBCE.ltrans17.ltrans.o
                                                  /tmp/ccGYWBCE.ltrans0.ltrans.o
magneticDeclination                               /tmp/ccGYWBCE.ltrans1.ltrans.o
                                                  obj/main/SPRACINGF3/flight/imu.o (symbol from plugin)
                                                  /tmp/ccGYWBCE.ltrans0.ltrans.o
                                                  obj/main/SPRACINGF3/sensors/initialisation.o (symbol from plugin)
main                                              /tmp/ccGYWBCE.ltrans18.ltrans.o
                                                  obj/main/SPRACINGF3/main.o (symbol from plugin)
                                                  obj/main/SPRACINGF3/startup_stm32f30x_md_gcc.o
malloc                                            /usr/lib/gcc/arm-none-eabi/4.9.3/../../../arm-none-eabi/lib/armv7e-m/fpu/libc_nano.a(lib_a-malloc.o)
                                                  /usr/lib/gcc/arm-none-eabi/4.9.3/../../../arm-none-eabi/lib/armv7e-m/fpu/libc_nano.a(lib_a-strtok.o)
masterConfig                                      /tmp/ccGYWBCE.ltrans16.ltrans.o
                                                  obj/main/SPRACINGF3/config/config.o (symbol from plugin)
                                                  /tmp/ccGYWBCE.ltrans23.ltrans.o
                                                  /tmp/ccGYWBCE.ltrans22.ltrans.o
                                                  /tmp/ccGYWBCE.ltrans20.ltrans.o
                                                  /tmp/ccGYWBCE.ltrans19.ltrans.o
                                                  /tmp/ccGYWBCE.ltrans18.ltrans.o
                                                  /tmp/ccGYWBCE.ltrans17.ltrans.o
                                                  /tmp/ccGYWBCE.ltrans12.ltrans.o
                                                  /tmp/ccGYWBCE.ltrans10.ltrans.o
                                                  /tmp/ccGYWBCE.ltrans9.ltrans.o
                                                  /tmp/ccGYWBCE.ltrans7.ltrans.o
                                                  /tmp/ccGYWBCE.ltrans5.ltrans.o
                                                  /tmp/ccGYWBCE.ltrans3.ltrans.o
                                                  /tmp/ccGYWBCE.ltrans2.ltrans.o
                                                  /tmp/ccGYWBCE.ltrans1.ltrans.o
                                                  /tmp/ccGYWBCE.ltrans0.ltrans.o
                                                  obj/main/SPRACINGF3/io/serial_msp.o (symbol from plugin)
                                                  obj/main/SPRACINGF3/io/serial_cli.o (symbol from plugin)
                                                  obj/main/SPRACINGF3/mw.o (symbol from plugin)
                                                  obj/main/SPRACINGF3/main.o (symbol from plugin)
                                                  obj/main/SPRACINGF3/blackbox/blackbox_io.o (symbol from plugin)
                                                  obj/main/SPRACINGF3/blackbox/blackbox.o (symbol from plugin)
matherr                                           /usr/lib/gcc/arm-none-eabi/4.9.3/../../../arm-none-eabi/lib/armv7e-m/fpu/libm.a(lib_a-s_matherr.o)
                                                  /usr/lib/gcc/arm-none-eabi/4.9.3/../../../arm-none-eabi/lib/armv7e-m/fpu/libm.a(lib_a-wf_sqrt.o)
                                                  /usr/lib/gcc/arm-none-eabi/4.9.3/../../../arm-none-eabi/lib/armv7e-m/fpu/libm.a(lib_a-wf_pow.o)
measurement.lto_priv.532                          /tmp/ccGYWBCE.ltrans24.ltrans.o
                                                  /tmp/ccGYWBCE.ltrans14.ltrans.o
memcmp                                            /usr/lib/gcc/arm-none-eabi/4.9.3/../../../arm-none-eabi/lib/armv7e-m/fpu/libc_nano.a(lib_a-memcmp.o)
                                                  /tmp/ccGYWBCE.ltrans9.ltrans.o
memcpy                                            /usr/lib/gcc/arm-none-eabi/4.9.3/../../../arm-none-eabi/lib/armv7e-m/fpu/libc_nano.a(lib_a-memcpy.o)
                                                  /tmp/ccGYWBCE.ltrans10.ltrans.o
memset                                            /usr/lib/gcc/arm-none-eabi/4.9.3/../../../arm-none-eabi/lib/armv7e-m/fpu/libc_nano.a(lib_a-memset.o)
                                                  /tmp/ccGYWBCE.ltrans20.ltrans.o
                                                  /tmp/ccGYWBCE.ltrans18.ltrans.o
                                                  /tmp/ccGYWBCE.ltrans16.ltrans.o
                                                  /tmp/ccGYWBCE.ltrans13.ltrans.o
                                                  /tmp/ccGYWBCE.ltrans12.ltrans.o
                                                  /tmp/ccGYWBCE.ltrans10.ltrans.o
                                                  /tmp/ccGYWBCE.ltrans8.ltrans.o
                                                  /tmp/ccGYWBCE.ltrans7.ltrans.o
                                                  /tmp/ccGYWBCE.ltrans2.ltrans.o
                                                  /tmp/ccGYWBCE.ltrans0.ltrans.o
micros                                            /tmp/ccGYWBCE.ltrans7.ltrans.o
                                                  obj/main/SPRACINGF3/drivers/system.o (symbol from plugin)
                                                  /tmp/ccGYWBCE.ltrans23.ltrans.o
                                                  /tmp/ccGYWBCE.ltrans19.ltrans.o
                                                  /tmp/ccGYWBCE.ltrans18.ltrans.o
                                                  /tmp/ccGYWBCE.ltrans14.ltrans.o
                                                  /tmp/ccGYWBCE.ltrans8.ltrans.o
                                                  /tmp/ccGYWBCE.ltrans6.ltrans.o
                                                  /tmp/ccGYWBCE.ltrans5.ltrans.o
                                                  /tmp/ccGYWBCE.ltrans1.ltrans.o
                                                  /tmp/ccGYWBCE.ltrans0.ltrans.o
                                                  obj/main/SPRACINGF3/rx/ibus.o (symbol from plugin)
                                                  obj/main/SPRACINGF3/rx/xbus.o (symbol from plugin)
                                                  obj/main/SPRACINGF3/rx/spektrum.o (symbol from plugin)
                                                  obj/main/SPRACINGF3/rx/sumh.o (symbol from plugin)
                                                  obj/main/SPRACINGF3/rx/sumd.o (symbol from plugin)
                                                  obj/main/SPRACINGF3/rx/sbus.o (symbol from plugin)
                                                  obj/main/SPRACINGF3/rx/rx.o (symbol from plugin)
                                                  obj/main/SPRACINGF3/io/statusindicator.o (symbol from plugin)
                                                  obj/main/SPRACINGF3/io/beeper.o (symbol from plugin)
                                                  obj/main/SPRACINGF3/flight/imu.o (symbol from plugin)
                                                  obj/main/SPRACINGF3/mw.o (symbol from plugin)
                                                  obj/main/SPRACINGF3/scheduler.o (symbol from plugin)
                                                  obj/main/SPRACINGF3/telemetry/hott.o (symbol from plugin)
                                                  obj/main/SPRACINGF3/io/display.o (symbol from plugin)
                                                  obj/main/SPRACINGF3/io/ledstrip.o (symbol from plugin)
                                                  obj/main/SPRACINGF3/drivers/sonar_hcsr04.o (symbol from plugin)
millis                                            obj/main/SPRACINGF3/drivers/system.o (symbol from plugin)
                                                  obj/main/SPRACINGF3/rx/rx.o (symbol from plugin)
                                                  obj/main/SPRACINGF3/io/statusindicator.o (symbol from plugin)
                                                  obj/main/SPRACINGF3/io/serial_cli.o (symbol from plugin)
                                                  obj/main/SPRACINGF3/io/rc_controls.o (symbol from plugin)
                                                  obj/main/SPRACINGF3/io/beeper.o (symbol from plugin)
                                                  obj/main/SPRACINGF3/flight/imu.o (symbol from plugin)
                                                  obj/main/SPRACINGF3/flight/failsafe.o (symbol from plugin)
                                                  obj/main/SPRACINGF3/mw.o (symbol from plugin)
                                                  obj/main/SPRACINGF3/blackbox/blackbox.o (symbol from plugin)
                                                  obj/main/SPRACINGF3/telemetry/ltm.o (symbol from plugin)
                                                  obj/main/SPRACINGF3/telemetry/smartport.o (symbol from plugin)
                                                  obj/main/SPRACINGF3/telemetry/hott.o (symbol from plugin)
                                                  obj/main/SPRACINGF3/telemetry/frsky.o (symbol from plugin)
                                                  obj/main/SPRACINGF3/io/gps.o (symbol from plugin)
                                                  obj/main/SPRACINGF3/flight/navigation.o (symbol from plugin)
                                                  obj/main/SPRACINGF3/drivers/sonar_hcsr04.o (symbol from plugin)
                                                  obj/main/SPRACINGF3/drivers/flash_m25p16.o (symbol from plugin)
mixTable                                          obj/main/SPRACINGF3/flight/mixer.o (symbol from plugin)
                                                  obj/main/SPRACINGF3/mw.o (symbol from plugin)
mixerAtail4.lto_priv.463                          /tmp/ccGYWBCE.ltrans7.ltrans.o
mixerBicopter.lto_priv.451                        /tmp/ccGYWBCE.ltrans7.ltrans.o
mixerConfig.lto_priv.484                          /tmp/ccGYWBCE.ltrans1.ltrans.o
                                                  /tmp/ccGYWBCE.ltrans10.ltrans.o
mixerDualcopter.lto_priv.462                      /tmp/ccGYWBCE.ltrans7.ltrans.o
mixerHex6H.lto_priv.461                           /tmp/ccGYWBCE.ltrans7.ltrans.o
mixerHex6P.lto_priv.453                           /tmp/ccGYWBCE.ltrans7.ltrans.o
mixerHex6X.lto_priv.456                           /tmp/ccGYWBCE.ltrans7.ltrans.o
mixerInit                                         obj/main/SPRACINGF3/flight/mixer.o (symbol from plugin)
                                                  obj/main/SPRACINGF3/main.o (symbol from plugin)
mixerLoadMix                                      obj/main/SPRACINGF3/flight/mixer.o (symbol from plugin)
                                                  obj/main/SPRACINGF3/io/serial_cli.o (symbol from plugin)
mixerNames.lto_priv.204                           /tmp/ccGYWBCE.ltrans22.ltrans.o
                                                  /tmp/ccGYWBCE.ltrans12.ltrans.o
                                                  /tmp/ccGYWBCE.ltrans7.ltrans.o
mixerOctoFlatP.lto_priv.458                       /tmp/ccGYWBCE.ltrans7.ltrans.o
mixerOctoFlatX.lto_priv.459                       /tmp/ccGYWBCE.ltrans7.ltrans.o
mixerOctoX8.lto_priv.457                          /tmp/ccGYWBCE.ltrans7.ltrans.o
mixerQuadP.lto_priv.449                           /tmp/ccGYWBCE.ltrans7.ltrans.o
mixerQuadX.lto_priv.450                           /tmp/ccGYWBCE.ltrans7.ltrans.o
mixerResetDisarmedMotors                          /tmp/ccGYWBCE.ltrans13.ltrans.o
                                                  obj/main/SPRACINGF3/flight/mixer.o (symbol from plugin)
                                                  /tmp/ccGYWBCE.ltrans12.ltrans.o
                                                  /tmp/ccGYWBCE.ltrans0.ltrans.o
                                                  obj/main/SPRACINGF3/io/serial_cli.o (symbol from plugin)
mixerSingleProp.lto_priv.454                      /tmp/ccGYWBCE.ltrans7.ltrans.o
mixerTricopter.lto_priv.448                       /tmp/ccGYWBCE.ltrans7.ltrans.o
mixerUseConfigs                                   obj/main/SPRACINGF3/flight/mixer.o (symbol from plugin)
                                                  obj/main/SPRACINGF3/config/config.o (symbol from plugin)
mixerUsePWMIOConfiguration                        obj/main/SPRACINGF3/flight/mixer.o (symbol from plugin)
                                                  obj/main/SPRACINGF3/main.o (symbol from plugin)
mixerVtail4.lto_priv.460                          /tmp/ccGYWBCE.ltrans7.ltrans.o
mixerY4.lto_priv.455                              /tmp/ccGYWBCE.ltrans7.ltrans.o
mixerY6.lto_priv.452                              /tmp/ccGYWBCE.ltrans7.ltrans.o
mixers                                            /tmp/ccGYWBCE.ltrans7.ltrans.o
                                                  obj/main/SPRACINGF3/flight/mixer.o (symbol from plugin)
                                                  /tmp/ccGYWBCE.ltrans0.ltrans.o
motor                                             /tmp/ccGYWBCE.ltrans13.ltrans.o
                                                  obj/main/SPRACINGF3/flight/mixer.o (symbol from plugin)
                                                  /tmp/ccGYWBCE.ltrans9.ltrans.o
                                                  /tmp/ccGYWBCE.ltrans2.ltrans.o
                                                  /tmp/ccGYWBCE.ltrans1.ltrans.o
                                                  obj/main/SPRACINGF3/io/serial_msp.o (symbol from plugin)
                                                  obj/main/SPRACINGF3/io/serial_1wire.o (symbol from plugin)
                                                  obj/main/SPRACINGF3/blackbox/blackbox.o (symbol from plugin)
motorControlEnable                                /tmp/ccGYWBCE.ltrans1.ltrans.o
                                                  obj/main/SPRACINGF3/mw.o (symbol from plugin)
                                                  /tmp/ccGYWBCE.ltrans0.ltrans.o
                                                  obj/main/SPRACINGF3/main.o (symbol from plugin)
motorCount                                        /tmp/ccGYWBCE.ltrans13.ltrans.o
                                                  obj/main/SPRACINGF3/flight/mixer.o (symbol from plugin)
                                                  /tmp/ccGYWBCE.ltrans20.ltrans.o
                                                  /tmp/ccGYWBCE.ltrans18.ltrans.o
                                                  /tmp/ccGYWBCE.ltrans9.ltrans.o
                                                  /tmp/ccGYWBCE.ltrans1.ltrans.o
                                                  /tmp/ccGYWBCE.ltrans0.ltrans.o
                                                  obj/main/SPRACINGF3/flight/pid.o (symbol from plugin)
                                                  obj/main/SPRACINGF3/blackbox/blackbox.o (symbol from plugin)
                                                  obj/main/SPRACINGF3/flight/gtune.o (symbol from plugin)
motor_disarmed                                    /tmp/ccGYWBCE.ltrans22.ltrans.o
                                                  obj/main/SPRACINGF3/flight/mixer.o (symbol from plugin)
                                                  /tmp/ccGYWBCE.ltrans13.ltrans.o
                                                  /tmp/ccGYWBCE.ltrans2.ltrans.o
                                                  /tmp/ccGYWBCE.ltrans1.ltrans.o
                                                  obj/main/SPRACINGF3/io/serial_msp.o (symbol from plugin)
                                                  obj/main/SPRACINGF3/io/serial_cli.o (symbol from plugin)
motors.lto_priv.436                               /tmp/ccGYWBCE.ltrans13.ltrans.o
                                                  /tmp/ccGYWBCE.ltrans20.ltrans.o
                                                  /tmp/ccGYWBCE.ltrans4.ltrans.o
                                                  /tmp/ccGYWBCE.ltrans0.ltrans.o
mpu6050AccDetect                                  obj/main/SPRACINGF3/drivers/accgyro_mpu6050.o (symbol from plugin)
                                                  obj/main/SPRACINGF3/sensors/initialisation.o (symbol from plugin)
mpu6050AccInit.lto_priv.429                       /tmp/ccGYWBCE.ltrans15.ltrans.o
                                                  /tmp/ccGYWBCE.ltrans0.ltrans.o
mpu6050GyroDetect                                 obj/main/SPRACINGF3/drivers/accgyro_mpu6050.o (symbol from plugin)
                                                  obj/main/SPRACINGF3/sensors/initialisation.o (symbol from plugin)
mpu6050GyroInit.lto_priv.423                      /tmp/ccGYWBCE.ltrans15.ltrans.o
                                                  /tmp/ccGYWBCE.ltrans0.ltrans.o
mpuAccRead                                        /tmp/ccGYWBCE.ltrans15.ltrans.o
                                                  obj/main/SPRACINGF3/drivers/accgyro_mpu.o (symbol from plugin)
                                                  /tmp/ccGYWBCE.ltrans0.ltrans.o
                                                  obj/main/SPRACINGF3/drivers/accgyro_mpu6050.o (symbol from plugin)
mpuConfiguration                                  /tmp/ccGYWBCE.ltrans0.ltrans.o
                                                  obj/main/SPRACINGF3/drivers/accgyro_mpu.o (symbol from plugin)
                                                  /tmp/ccGYWBCE.ltrans15.ltrans.o
                                                  obj/main/SPRACINGF3/drivers/accgyro_mpu6050.o (symbol from plugin)
mpuDataReady.lto_priv.539                         /tmp/ccGYWBCE.ltrans15.ltrans.o
                                                  /tmp/ccGYWBCE.ltrans21.ltrans.o
mpuDetectionResult                                /tmp/ccGYWBCE.ltrans0.ltrans.o
                                                  obj/main/SPRACINGF3/drivers/accgyro_mpu.o (symbol from plugin)
                                                  /tmp/ccGYWBCE.ltrans15.ltrans.o
                                                  obj/main/SPRACINGF3/drivers/accgyro_mpu6050.o (symbol from plugin)
mpuDividerDrops                                   /tmp/ccGYWBCE.ltrans0.ltrans.o
                                                  obj/main/SPRACINGF3/drivers/gyro_sync.o (symbol from plugin)
                                                  /tmp/ccGYWBCE.ltrans15.ltrans.o
mpuGyroRead                                       /tmp/ccGYWBCE.ltrans15.ltrans.o
                                                  obj/main/SPRACINGF3/drivers/accgyro_mpu.o (symbol from plugin)
                                                  /tmp/ccGYWBCE.ltrans0.ltrans.o
                                                  obj/main/SPRACINGF3/drivers/accgyro_mpu6050.o (symbol from plugin)
mpuIntExtiConfig.lto_priv.538                     /tmp/ccGYWBCE.ltrans0.ltrans.o
                                                  /tmp/ccGYWBCE.ltrans21.ltrans.o
mpuIntExtiInit                                    /tmp/ccGYWBCE.ltrans21.ltrans.o
                                                  obj/main/SPRACINGF3/drivers/accgyro_mpu.o (symbol from plugin)
                                                  /tmp/ccGYWBCE.ltrans15.ltrans.o
                                                  obj/main/SPRACINGF3/drivers/accgyro_mpu6050.o (symbol from plugin)
mpuIsDataReady                                    /tmp/ccGYWBCE.ltrans15.ltrans.o
                                                  obj/main/SPRACINGF3/drivers/accgyro_mpu.o (symbol from plugin)
                                                  /tmp/ccGYWBCE.ltrans0.ltrans.o
                                                  obj/main/SPRACINGF3/drivers/accgyro_mpu6050.o (symbol from plugin)
mpuReadRegisterI2C.lto_priv.421                   /tmp/ccGYWBCE.ltrans15.ltrans.o
                                                  /tmp/ccGYWBCE.ltrans0.ltrans.o
mpuWriteRegisterI2C.lto_priv.422                  /tmp/ccGYWBCE.ltrans15.ltrans.o
                                                  /tmp/ccGYWBCE.ltrans0.ltrans.o
ms5611Detect                                      obj/main/SPRACINGF3/drivers/barometer_ms5611.o (symbol from plugin)
                                                  obj/main/SPRACINGF3/sensors/initialisation.o (symbol from plugin)
ms5611_c.lto_priv.537                             /tmp/ccGYWBCE.ltrans0.ltrans.o
                                                  /tmp/ccGYWBCE.ltrans15.ltrans.o
ms5611_calculate.lto_priv.428                     /tmp/ccGYWBCE.ltrans15.ltrans.o
                                                  /tmp/ccGYWBCE.ltrans0.ltrans.o
ms5611_get_up.lto_priv.427                        /tmp/ccGYWBCE.ltrans15.ltrans.o
                                                  /tmp/ccGYWBCE.ltrans0.ltrans.o
ms5611_get_ut.lto_priv.425                        /tmp/ccGYWBCE.ltrans15.ltrans.o
                                                  /tmp/ccGYWBCE.ltrans0.ltrans.o
ms5611_start_up.lto_priv.426                      /tmp/ccGYWBCE.ltrans15.ltrans.o
                                                  /tmp/ccGYWBCE.ltrans0.ltrans.o
ms5611_start_ut.lto_priv.424                      /tmp/ccGYWBCE.ltrans15.ltrans.o
                                                  /tmp/ccGYWBCE.ltrans0.ltrans.o
mspAllocateSerialPorts                            obj/main/SPRACINGF3/io/serial_msp.o (symbol from plugin)
                                                  obj/main/SPRACINGF3/mw.o (symbol from plugin)
                                                  obj/main/SPRACINGF3/blackbox/blackbox_io.o (symbol from plugin)
mspAllocateSerialPorts.constprop.71               /tmp/ccGYWBCE.ltrans16.ltrans.o
                                                  /tmp/ccGYWBCE.ltrans3.ltrans.o
                                                  /tmp/ccGYWBCE.ltrans2.ltrans.o
                                                  /tmp/ccGYWBCE.ltrans1.ltrans.o
                                                  /tmp/ccGYWBCE.ltrans0.ltrans.o
mspFrame.lto_priv.310                             /tmp/ccGYWBCE.ltrans8.ltrans.o
                                                  /tmp/ccGYWBCE.ltrans2.ltrans.o
mspInit                                           obj/main/SPRACINGF3/io/serial_msp.o (symbol from plugin)
                                                  obj/main/SPRACINGF3/main.o (symbol from plugin)
mspPorts.lto_priv.179                             /tmp/ccGYWBCE.ltrans16.ltrans.o
                                                  /tmp/ccGYWBCE.ltrans8.ltrans.o
                                                  /tmp/ccGYWBCE.ltrans2.ltrans.o
                                                  /tmp/ccGYWBCE.ltrans0.ltrans.o
mspProcess                                        obj/main/SPRACINGF3/io/serial_msp.o (symbol from plugin)
                                                  obj/main/SPRACINGF3/io/serial.o (symbol from plugin)
mspReleasePortIfAllocated                         /tmp/ccGYWBCE.ltrans8.ltrans.o
                                                  obj/main/SPRACINGF3/io/serial_msp.o (symbol from plugin)
                                                  /tmp/ccGYWBCE.ltrans18.ltrans.o
                                                  /tmp/ccGYWBCE.ltrans3.ltrans.o
                                                  /tmp/ccGYWBCE.ltrans2.ltrans.o
                                                  obj/main/SPRACINGF3/mw.o (symbol from plugin)
mspSerialPort.lto_priv.307                        /tmp/ccGYWBCE.ltrans8.ltrans.o
                                                  /tmp/ccGYWBCE.ltrans2.ltrans.o
mwArm                                             /tmp/ccGYWBCE.ltrans18.ltrans.o
                                                  obj/main/SPRACINGF3/mw.o (symbol from plugin)
                                                  /tmp/ccGYWBCE.ltrans3.ltrans.o
                                                  obj/main/SPRACINGF3/io/rc_controls.o (symbol from plugin)
mwDisarm                                          /tmp/ccGYWBCE.ltrans18.ltrans.o
                                                  obj/main/SPRACINGF3/mw.o (symbol from plugin)
                                                  /tmp/ccGYWBCE.ltrans3.ltrans.o
                                                  obj/main/SPRACINGF3/io/rc_controls.o (symbol from plugin)
                                                  obj/main/SPRACINGF3/flight/failsafe.o (symbol from plugin)
nanf                                              /usr/lib/gcc/arm-none-eabi/4.9.3/../../../arm-none-eabi/lib/armv7e-m/fpu/libm.a(lib_a-sf_nan.o)
                                                  /usr/lib/gcc/arm-none-eabi/4.9.3/../../../arm-none-eabi/lib/armv7e-m/fpu/libm.a(lib_a-ef_pow.o)
nav.lto_priv.348                                  /tmp/ccGYWBCE.ltrans3.ltrans.o
                                                  /tmp/ccGYWBCE.ltrans11.ltrans.o
                                                  /tmp/ccGYWBCE.ltrans1.ltrans.o
navPID.lto_priv.516                               /tmp/ccGYWBCE.ltrans3.ltrans.o
                                                  /tmp/ccGYWBCE.ltrans11.ltrans.o
navPID_PARAM.lto_priv.528                         /tmp/ccGYWBCE.ltrans11.ltrans.o
                                                  /tmp/ccGYWBCE.ltrans14.ltrans.o
nav_bearing.lto_priv.521                          /tmp/ccGYWBCE.ltrans11.ltrans.o
                                                  /tmp/ccGYWBCE.ltrans14.ltrans.o
nav_mode                                          /tmp/ccGYWBCE.ltrans3.ltrans.o
                                                  obj/main/SPRACINGF3/flight/navigation.o (symbol from plugin)
                                                  /tmp/ccGYWBCE.ltrans11.ltrans.o
                                                  /tmp/ccGYWBCE.ltrans2.ltrans.o
                                                  obj/main/SPRACINGF3/io/serial_msp.o (symbol from plugin)
nav_rated.lto_priv.349                            /tmp/ccGYWBCE.ltrans3.ltrans.o
                                                  /tmp/ccGYWBCE.ltrans1.ltrans.o
nav_takeoff_bearing.lto_priv.529                  /tmp/ccGYWBCE.ltrans11.ltrans.o
                                                  /tmp/ccGYWBCE.ltrans14.ltrans.o
navigationInit                                    obj/main/SPRACINGF3/flight/navigation.o (symbol from plugin)
                                                  obj/main/SPRACINGF3/main.o (symbol from plugin)
normalizeV                                        obj/main/SPRACINGF3/common/maths.o (symbol from plugin)
nullReadRawRC.lto_priv.174                        /tmp/ccGYWBCE.ltrans8.ltrans.o
                                                  /tmp/ccGYWBCE.ltrans16.ltrans.o
                                                  /tmp/ccGYWBCE.ltrans0.ltrans.o
onGpsNewData                                      obj/main/SPRACINGF3/flight/navigation.o (symbol from plugin)
                                                  obj/main/SPRACINGF3/io/gps.o (symbol from plugin)
onSerialRxPinChange                               obj/main/SPRACINGF3/drivers/serial_softserial.o (symbol from plugin)
onSerialTimer                                     obj/main/SPRACINGF3/drivers/serial_softserial.o (symbol from plugin)
openSerialPort                                    /tmp/ccGYWBCE.ltrans7.ltrans.o
                                                  obj/main/SPRACINGF3/io/serial.o (symbol from plugin)
                                                  /tmp/ccGYWBCE.ltrans24.ltrans.o
                                                  /tmp/ccGYWBCE.ltrans18.ltrans.o
                                                  /tmp/ccGYWBCE.ltrans16.ltrans.o
                                                  /tmp/ccGYWBCE.ltrans0.ltrans.o
                                                  obj/main/SPRACINGF3/rx/ibus.o (symbol from plugin)
                                                  obj/main/SPRACINGF3/rx/xbus.o (symbol from plugin)
                                                  obj/main/SPRACINGF3/rx/spektrum.o (symbol from plugin)
                                                  obj/main/SPRACINGF3/rx/sumh.o (symbol from plugin)
                                                  obj/main/SPRACINGF3/rx/sumd.o (symbol from plugin)
                                                  obj/main/SPRACINGF3/rx/sbus.o (symbol from plugin)
                                                  obj/main/SPRACINGF3/io/serial_msp.o (symbol from plugin)
                                                  obj/main/SPRACINGF3/blackbox/blackbox_io.o (symbol from plugin)
                                                  obj/main/SPRACINGF3/telemetry/ltm.o (symbol from plugin)
                                                  obj/main/SPRACINGF3/telemetry/smartport.o (symbol from plugin)
                                                  obj/main/SPRACINGF3/telemetry/hott.o (symbol from plugin)
                                                  obj/main/SPRACINGF3/telemetry/frsky.o (symbol from plugin)
                                                  obj/main/SPRACINGF3/io/gps.o (symbol from plugin)
openSoftSerial                                    /tmp/ccGYWBCE.ltrans14.ltrans.o
                                                  obj/main/SPRACINGF3/drivers/serial_softserial.o (symbol from plugin)
                                                  /tmp/ccGYWBCE.ltrans7.ltrans.o
                                                  obj/main/SPRACINGF3/io/serial.o (symbol from plugin)
original_target_bearing.lto_priv.522              /tmp/ccGYWBCE.ltrans11.ltrans.o
                                                  /tmp/ccGYWBCE.ltrans14.ltrans.o
packFlightModeFlags.lto_priv.338                  /tmp/ccGYWBCE.ltrans8.ltrans.o
                                                  /tmp/ccGYWBCE.ltrans2.ltrans.o
padHalfLineBuffer                                 obj/main/SPRACINGF3/io/display.o (symbol from plugin)
padLineBuffer                                     obj/main/SPRACINGF3/io/display.o (symbol from plugin)
pageState.lto_priv.262                            /tmp/ccGYWBCE.ltrans22.ltrans.o
                                                  /tmp/ccGYWBCE.ltrans19.ltrans.o
                                                  /tmp/ccGYWBCE.ltrans3.ltrans.o
                                                  /tmp/ccGYWBCE.ltrans0.ltrans.o
parseColor                                        obj/main/SPRACINGF3/io/ledstrip.o (symbol from plugin)
                                                  obj/main/SPRACINGF3/io/serial_cli.o (symbol from plugin)
parseLedStripConfig                               obj/main/SPRACINGF3/io/ledstrip.o (symbol from plugin)
                                                  obj/main/SPRACINGF3/io/serial_cli.o (symbol from plugin)
parseRcChannels                                   obj/main/SPRACINGF3/rx/rx.o (symbol from plugin)
                                                  obj/main/SPRACINGF3/io/serial_cli.o (symbol from plugin)
                                                  obj/main/SPRACINGF3/config/config.o (symbol from plugin)
parseRcChannels.constprop.54                      /tmp/ccGYWBCE.ltrans16.ltrans.o
                                                  /tmp/ccGYWBCE.ltrans22.ltrans.o
                                                  /tmp/ccGYWBCE.ltrans10.ltrans.o
performAcclerationCalibration                     obj/main/SPRACINGF3/sensors/acceleration.o (symbol from plugin)
performBaroCalibrationCycle                       obj/main/SPRACINGF3/sensors/barometer.o (symbol from plugin)
                                                  obj/main/SPRACINGF3/flight/altitudehold.o (symbol from plugin)
performInflightAccelerationCalibration            obj/main/SPRACINGF3/sensors/acceleration.o (symbol from plugin)
pidProfile.lto_priv.260                           /tmp/ccGYWBCE.ltrans16.ltrans.o
                                                  /tmp/ccGYWBCE.ltrans10.ltrans.o
                                                  /tmp/ccGYWBCE.ltrans3.ltrans.o
                                                  /tmp/ccGYWBCE.ltrans2.ltrans.o
pidProfile.lto_priv.479                           /tmp/ccGYWBCE.ltrans17.ltrans.o
                                                  /tmp/ccGYWBCE.ltrans10.ltrans.o
pidResetErrorAngle                                /tmp/ccGYWBCE.ltrans26.ltrans.o
                                                  obj/main/SPRACINGF3/flight/pid.o (symbol from plugin)
                                                  /tmp/ccGYWBCE.ltrans3.ltrans.o
                                                  obj/main/SPRACINGF3/mw.o (symbol from plugin)
pidResetErrorGyro                                 obj/main/SPRACINGF3/flight/pid.o (symbol from plugin)
                                                  obj/main/SPRACINGF3/mw.o (symbol from plugin)
pidSetController                                  /tmp/ccGYWBCE.ltrans13.ltrans.o
                                                  obj/main/SPRACINGF3/flight/pid.o (symbol from plugin)
                                                  /tmp/ccGYWBCE.ltrans10.ltrans.o
                                                  /tmp/ccGYWBCE.ltrans2.ltrans.o
                                                  obj/main/SPRACINGF3/io/serial_msp.o (symbol from plugin)
                                                  obj/main/SPRACINGF3/config/config.o (symbol from plugin)
pid_controller                                    /tmp/ccGYWBCE.ltrans13.ltrans.o
                                                  obj/main/SPRACINGF3/flight/pid.o (symbol from plugin)
                                                  /tmp/ccGYWBCE.ltrans1.ltrans.o
                                                  obj/main/SPRACINGF3/mw.o (symbol from plugin)
portConfig.lto_priv.384                           /tmp/ccGYWBCE.ltrans0.ltrans.o
                                                  /tmp/ccGYWBCE.ltrans24.ltrans.o
portConfig.lto_priv.385                           /tmp/ccGYWBCE.ltrans5.ltrans.o
                                                  /tmp/ccGYWBCE.ltrans24.ltrans.o
                                                  /tmp/ccGYWBCE.ltrans0.ltrans.o
portConfig.lto_priv.386                           /tmp/ccGYWBCE.ltrans0.ltrans.o
                                                  /tmp/ccGYWBCE.ltrans24.ltrans.o
portConfig.lto_priv.387                           /tmp/ccGYWBCE.ltrans0.ltrans.o
                                                  /tmp/ccGYWBCE.ltrans24.ltrans.o
posholdPID_PARAM.lto_priv.526                     /tmp/ccGYWBCE.ltrans11.ltrans.o
                                                  /tmp/ccGYWBCE.ltrans14.ltrans.o
poshold_ratePID.lto_priv.515                      /tmp/ccGYWBCE.ltrans3.ltrans.o
                                                  /tmp/ccGYWBCE.ltrans11.ltrans.o
poshold_ratePID_PARAM.lto_priv.527                /tmp/ccGYWBCE.ltrans11.ltrans.o
                                                  /tmp/ccGYWBCE.ltrans14.ltrans.o
powf                                              /usr/lib/gcc/arm-none-eabi/4.9.3/../../../arm-none-eabi/lib/armv7e-m/fpu/libm.a(lib_a-wf_pow.o)
                                                  /tmp/ccGYWBCE.ltrans17.ltrans.o
ppmAvoidPWMTimerClash                             obj/main/SPRACINGF3/drivers/pwm_rx.o (symbol from plugin)
ppmDev                                            /tmp/ccGYWBCE.ltrans0.ltrans.o
                                                  obj/main/SPRACINGF3/drivers/pwm_rx.o (symbol from plugin)
                                                  /tmp/ccGYWBCE.ltrans4.ltrans.o
ppmEdgeCallback.lto_priv.441                      /tmp/ccGYWBCE.ltrans4.ltrans.o
                                                  /tmp/ccGYWBCE.ltrans0.ltrans.o
ppmFrameCount.lto_priv.545                        /tmp/ccGYWBCE.ltrans23.ltrans.o
                                                  /tmp/ccGYWBCE.ltrans4.ltrans.o
ppmInConfig                                       obj/main/SPRACINGF3/drivers/pwm_rx.o (symbol from plugin)
                                                  obj/main/SPRACINGF3/drivers/pwm_mapping.o (symbol from plugin)
ppmOverflowCallback.lto_priv.442                  /tmp/ccGYWBCE.ltrans4.ltrans.o
                                                  /tmp/ccGYWBCE.ltrans0.ltrans.o
ppmRead                                           obj/main/SPRACINGF3/drivers/pwm_rx.o (symbol from plugin)
                                                  obj/main/SPRACINGF3/rx/pwm.o (symbol from plugin)
ppmReadRawRC.lto_priv.416                         /tmp/ccGYWBCE.ltrans8.ltrans.o
                                                  /tmp/ccGYWBCE.ltrans0.ltrans.o
prepareForNextRxByte                              obj/main/SPRACINGF3/drivers/serial_softserial.o (symbol from plugin)
printfSerialPort.lto_priv.478                     /tmp/ccGYWBCE.ltrans2.ltrans.o
                                                  /tmp/ccGYWBCE.ltrans20.ltrans.o
printfSupportInit                                 obj/main/SPRACINGF3/common/printf.o (symbol from plugin)
                                                  obj/main/SPRACINGF3/main.o (symbol from plugin)
processRcAdjustments                              obj/main/SPRACINGF3/io/rc_controls.o (symbol from plugin)
                                                  obj/main/SPRACINGF3/mw.o (symbol from plugin)
processRcStickPositions                           obj/main/SPRACINGF3/io/rc_controls.o (symbol from plugin)
                                                  obj/main/SPRACINGF3/mw.o (symbol from plugin)
processRx                                         obj/main/SPRACINGF3/mw.o (symbol from plugin)
processRxState                                    obj/main/SPRACINGF3/drivers/serial_softserial.o (symbol from plugin)
processTxState                                    obj/main/SPRACINGF3/drivers/serial_softserial.o (symbol from plugin)
pwmBrushedMotorConfig                             obj/main/SPRACINGF3/drivers/pwm_output.o (symbol from plugin)
                                                  obj/main/SPRACINGF3/drivers/pwm_mapping.o (symbol from plugin)
pwmBrushlessMotorConfig                           obj/main/SPRACINGF3/drivers/pwm_output.o (symbol from plugin)
                                                  obj/main/SPRACINGF3/drivers/pwm_mapping.o (symbol from plugin)
pwmCompleteOneshotMotorUpdate                     obj/main/SPRACINGF3/drivers/pwm_output.o (symbol from plugin)
                                                  obj/main/SPRACINGF3/flight/mixer.o (symbol from plugin)
pwmEdgeCallback.lto_priv.439                      /tmp/ccGYWBCE.ltrans4.ltrans.o
                                                  /tmp/ccGYWBCE.ltrans0.ltrans.o
pwmGetOutputConfiguration                         obj/main/SPRACINGF3/drivers/pwm_mapping.o (symbol from plugin)
                                                  obj/main/SPRACINGF3/io/serial_1wire.o (symbol from plugin)
pwmICConfig                                       /tmp/ccGYWBCE.ltrans4.ltrans.o
                                                  obj/main/SPRACINGF3/drivers/pwm_rx.o (symbol from plugin)
                                                  /tmp/ccGYWBCE.ltrans0.ltrans.o
pwmIOConfiguration.lto_priv.435                   /tmp/ccGYWBCE.ltrans2.ltrans.o
                                                  /tmp/ccGYWBCE.ltrans0.ltrans.o
pwmInConfig                                       obj/main/SPRACINGF3/drivers/pwm_rx.o (symbol from plugin)
                                                  obj/main/SPRACINGF3/drivers/pwm_mapping.o (symbol from plugin)
pwmInit                                           obj/main/SPRACINGF3/drivers/pwm_mapping.o (symbol from plugin)
                                                  obj/main/SPRACINGF3/main.o (symbol from plugin)
pwmOneshotMotorConfig                             obj/main/SPRACINGF3/drivers/pwm_output.o (symbol from plugin)
                                                  obj/main/SPRACINGF3/drivers/pwm_mapping.o (symbol from plugin)
pwmOutConfig.lto_priv.473                         /tmp/ccGYWBCE.ltrans4.ltrans.o
                                                  /tmp/ccGYWBCE.ltrans0.ltrans.o
pwmOverflowCallback.lto_priv.440                  /tmp/ccGYWBCE.ltrans4.ltrans.o
                                                  /tmp/ccGYWBCE.ltrans0.ltrans.o
pwmRead                                           obj/main/SPRACINGF3/drivers/pwm_rx.o (symbol from plugin)
                                                  obj/main/SPRACINGF3/rx/pwm.o (symbol from plugin)
pwmReadRawRC.lto_priv.415                         /tmp/ccGYWBCE.ltrans8.ltrans.o
                                                  /tmp/ccGYWBCE.ltrans0.ltrans.o
pwmRxInit                                         obj/main/SPRACINGF3/drivers/pwm_rx.o (symbol from plugin)
                                                  obj/main/SPRACINGF3/main.o (symbol from plugin)
pwmServoConfig                                    obj/main/SPRACINGF3/drivers/pwm_output.o (symbol from plugin)
                                                  obj/main/SPRACINGF3/drivers/pwm_mapping.o (symbol from plugin)
pwmShutdownPulsesForAllMotors                     obj/main/SPRACINGF3/drivers/pwm_output.o (symbol from plugin)
                                                  obj/main/SPRACINGF3/flight/mixer.o (symbol from plugin)
pwmWriteBrushed.lto_priv.438                      /tmp/ccGYWBCE.ltrans4.ltrans.o
                                                  /tmp/ccGYWBCE.ltrans0.ltrans.o
pwmWriteMotor                                     obj/main/SPRACINGF3/drivers/pwm_output.o (symbol from plugin)
                                                  obj/main/SPRACINGF3/flight/mixer.o (symbol from plugin)
pwmWriteServo                                     /tmp/ccGYWBCE.ltrans4.ltrans.o
                                                  obj/main/SPRACINGF3/drivers/pwm_output.o (symbol from plugin)
                                                  /tmp/ccGYWBCE.ltrans1.ltrans.o
                                                  obj/main/SPRACINGF3/flight/mixer.o (symbol from plugin)
pwmWriteStandard.lto_priv.437                     /tmp/ccGYWBCE.ltrans4.ltrans.o
                                                  /tmp/ccGYWBCE.ltrans0.ltrans.o
q0.lto_priv.354                                   /tmp/ccGYWBCE.ltrans13.ltrans.o
                                                  /tmp/ccGYWBCE.ltrans1.ltrans.o
q1.lto_priv.355                                   /tmp/ccGYWBCE.ltrans13.ltrans.o
                                                  /tmp/ccGYWBCE.ltrans1.ltrans.o
q2.lto_priv.356                                   /tmp/ccGYWBCE.ltrans13.ltrans.o
                                                  /tmp/ccGYWBCE.ltrans1.ltrans.o
q3.lto_priv.357                                   /tmp/ccGYWBCE.ltrans13.ltrans.o
                                                  /tmp/ccGYWBCE.ltrans1.ltrans.o
quickMedianFilter3                                obj/main/SPRACINGF3/common/maths.o (symbol from plugin)
                                                  obj/main/SPRACINGF3/sensors/barometer.o (symbol from plugin)
quickMedianFilter5                                obj/main/SPRACINGF3/common/maths.o (symbol from plugin)
                                                  obj/main/SPRACINGF3/sensors/sonar.o (symbol from plugin)
quickMedianFilter7                                obj/main/SPRACINGF3/common/maths.o (symbol from plugin)
quickMedianFilter9                                obj/main/SPRACINGF3/common/maths.o (symbol from plugin)
rMat.lto_priv.255                                 /tmp/ccGYWBCE.ltrans13.ltrans.o
                                                  /tmp/ccGYWBCE.ltrans17.ltrans.o
                                                  /tmp/ccGYWBCE.ltrans1.ltrans.o
rcAliasToAngleIndexMap                            obj/main/SPRACINGF3/flight/pid.o (symbol from plugin)
rcChannelLetters                                  /tmp/ccGYWBCE.ltrans16.ltrans.o
                                                  obj/main/SPRACINGF3/rx/rx.o (symbol from plugin)
                                                  /tmp/ccGYWBCE.ltrans22.ltrans.o
                                                  /tmp/ccGYWBCE.ltrans12.ltrans.o
                                                  obj/main/SPRACINGF3/io/serial_cli.o (symbol from plugin)
                                                  obj/main/SPRACINGF3/io/display.o (symbol from plugin)
rcCommand                                         /tmp/ccGYWBCE.ltrans13.ltrans.o
                                                  obj/main/SPRACINGF3/io/rc_controls.o (symbol from plugin)
                                                  /tmp/ccGYWBCE.ltrans23.ltrans.o
                                                  /tmp/ccGYWBCE.ltrans14.ltrans.o
                                                  /tmp/ccGYWBCE.ltrans9.ltrans.o
                                                  /tmp/ccGYWBCE.ltrans6.ltrans.o
                                                  /tmp/ccGYWBCE.ltrans5.ltrans.o
                                                  /tmp/ccGYWBCE.ltrans3.ltrans.o
                                                  /tmp/ccGYWBCE.ltrans1.ltrans.o
                                                  obj/main/SPRACINGF3/sensors/battery.o (symbol from plugin)
                                                  obj/main/SPRACINGF3/flight/mixer.o (symbol from plugin)
                                                  obj/main/SPRACINGF3/flight/pid.o (symbol from plugin)
                                                  obj/main/SPRACINGF3/flight/altitudehold.o (symbol from plugin)
                                                  obj/main/SPRACINGF3/mw.o (symbol from plugin)
                                                  obj/main/SPRACINGF3/blackbox/blackbox.o (symbol from plugin)
                                                  obj/main/SPRACINGF3/telemetry/frsky.o (symbol from plugin)
                                                  obj/main/SPRACINGF3/io/ledstrip.o (symbol from plugin)
                                                  obj/main/SPRACINGF3/flight/gtune.o (symbol from plugin)
rcControlsConfig.lto_priv.481                     /tmp/ccGYWBCE.ltrans1.ltrans.o
                                                  /tmp/ccGYWBCE.ltrans10.ltrans.o
rcData                                            /tmp/ccGYWBCE.ltrans16.ltrans.o
                                                  obj/main/SPRACINGF3/rx/rx.o (symbol from plugin)
                                                  /tmp/ccGYWBCE.ltrans13.ltrans.o
                                                  /tmp/ccGYWBCE.ltrans8.ltrans.o
                                                  /tmp/ccGYWBCE.ltrans7.ltrans.o
                                                  /tmp/ccGYWBCE.ltrans6.ltrans.o
                                                  /tmp/ccGYWBCE.ltrans3.ltrans.o
                                                  /tmp/ccGYWBCE.ltrans2.ltrans.o
                                                  /tmp/ccGYWBCE.ltrans1.ltrans.o
                                                  /tmp/ccGYWBCE.ltrans0.ltrans.o
                                                  obj/main/SPRACINGF3/io/serial_msp.o (symbol from plugin)
                                                  obj/main/SPRACINGF3/io/rc_controls.o (symbol from plugin)
                                                  obj/main/SPRACINGF3/flight/mixer.o (symbol from plugin)
                                                  obj/main/SPRACINGF3/flight/failsafe.o (symbol from plugin)
                                                  obj/main/SPRACINGF3/flight/altitudehold.o (symbol from plugin)
                                                  obj/main/SPRACINGF3/mw.o (symbol from plugin)
                                                  obj/main/SPRACINGF3/io/display.o (symbol from plugin)
                                                  obj/main/SPRACINGF3/io/ledstrip.o (symbol from plugin)
rcFrameComplete.lto_priv.294                      /tmp/ccGYWBCE.ltrans8.ltrans.o
                                                  /tmp/ccGYWBCE.ltrans23.ltrans.o
rcInvalidPulsPeriod                               /tmp/ccGYWBCE.ltrans3.ltrans.o
                                                  obj/main/SPRACINGF3/rx/rx.o (symbol from plugin)
                                                  /tmp/ccGYWBCE.ltrans0.ltrans.o
rcModeActivationMask                              /tmp/ccGYWBCE.ltrans8.ltrans.o
                                                  obj/main/SPRACINGF3/io/rc_controls.o (symbol from plugin)
                                                  /tmp/ccGYWBCE.ltrans24.ltrans.o
                                                  /tmp/ccGYWBCE.ltrans23.ltrans.o
                                                  /tmp/ccGYWBCE.ltrans18.ltrans.o
                                                  /tmp/ccGYWBCE.ltrans6.ltrans.o
                                                  /tmp/ccGYWBCE.ltrans3.ltrans.o
                                                  /tmp/ccGYWBCE.ltrans1.ltrans.o
                                                  obj/main/SPRACINGF3/rx/rx.o (symbol from plugin)
                                                  obj/main/SPRACINGF3/io/serial_msp.o (symbol from plugin)
                                                  obj/main/SPRACINGF3/io/beeper.o (symbol from plugin)
                                                  obj/main/SPRACINGF3/flight/mixer.o (symbol from plugin)
                                                  obj/main/SPRACINGF3/flight/failsafe.o (symbol from plugin)
                                                  obj/main/SPRACINGF3/flight/altitudehold.o (symbol from plugin)
                                                  obj/main/SPRACINGF3/mw.o (symbol from plugin)
                                                  obj/main/SPRACINGF3/blackbox/blackbox.o (symbol from plugin)
                                                  obj/main/SPRACINGF3/telemetry/telemetry.o (symbol from plugin)
                                                  obj/main/SPRACINGF3/io/ledstrip.o (symbol from plugin)
                                                  obj/main/SPRACINGF3/flight/navigation.o (symbol from plugin)
rcRaw                                             obj/main/SPRACINGF3/rx/rx.o (symbol from plugin)
rcReadRawFunc.lto_priv.270                        /tmp/ccGYWBCE.ltrans16.ltrans.o
                                                  /tmp/ccGYWBCE.ltrans3.ltrans.o
                                                  /tmp/ccGYWBCE.ltrans0.ltrans.o
rcSampleIndex.lto_priv.397                        /tmp/ccGYWBCE.ltrans3.ltrans.o
                                                  /tmp/ccGYWBCE.ltrans0.ltrans.o
read16.lto_priv.334                               /tmp/ccGYWBCE.ltrans8.ltrans.o
                                                  /tmp/ccGYWBCE.ltrans2.ltrans.o
read32.lto_priv.335                               /tmp/ccGYWBCE.ltrans8.ltrans.o
                                                  /tmp/ccGYWBCE.ltrans2.ltrans.o
read8.lto_priv.333                                /tmp/ccGYWBCE.ltrans8.ltrans.o
                                                  /tmp/ccGYWBCE.ltrans2.ltrans.o
readEEPROM                                        /tmp/ccGYWBCE.ltrans10.ltrans.o
                                                  obj/main/SPRACINGF3/config/config.o (symbol from plugin)
                                                  /tmp/ccGYWBCE.ltrans22.ltrans.o
                                                  /tmp/ccGYWBCE.ltrans20.ltrans.o
                                                  /tmp/ccGYWBCE.ltrans3.ltrans.o
                                                  /tmp/ccGYWBCE.ltrans2.ltrans.o
                                                  /tmp/ccGYWBCE.ltrans0.ltrans.o
                                                  obj/main/SPRACINGF3/io/serial_msp.o (symbol from plugin)
                                                  obj/main/SPRACINGF3/io/serial_cli.o (symbol from plugin)
                                                  obj/main/SPRACINGF3/main.o (symbol from plugin)
readEEPROMAndNotify                               obj/main/SPRACINGF3/config/config.o (symbol from plugin)
realtimeGuardInterval.lto_priv.477                /tmp/ccGYWBCE.ltrans18.ltrans.o
                                                  /tmp/ccGYWBCE.ltrans20.ltrans.o
reconfigureAlignment                              obj/main/SPRACINGF3/sensors/initialisation.o (symbol from plugin)
reevalulateLedConfig                              /tmp/ccGYWBCE.ltrans19.ltrans.o
                                                  obj/main/SPRACINGF3/io/ledstrip.o (symbol from plugin)
                                                  /tmp/ccGYWBCE.ltrans12.ltrans.o
                                                  /tmp/ccGYWBCE.ltrans10.ltrans.o
                                                  /tmp/ccGYWBCE.ltrans2.ltrans.o
                                                  /tmp/ccGYWBCE.ltrans0.ltrans.o
                                                  obj/main/SPRACINGF3/io/serial_msp.o (symbol from plugin)
registerExtiCallbackHandler                       /tmp/ccGYWBCE.ltrans13.ltrans.o
                                                  obj/main/SPRACINGF3/drivers/system.o (symbol from plugin)
                                                  /tmp/ccGYWBCE.ltrans21.ltrans.o
                                                  /tmp/ccGYWBCE.ltrans15.ltrans.o
                                                  obj/main/SPRACINGF3/drivers/compass_hmc5883l.o (symbol from plugin)
                                                  obj/main/SPRACINGF3/drivers/accgyro_mpu.o (symbol from plugin)
releaseSharedTelemetryPorts                       obj/main/SPRACINGF3/mw.o (symbol from plugin)
rescheduleTask                                    obj/main/SPRACINGF3/scheduler.o (symbol from plugin)
                                                  obj/main/SPRACINGF3/mw.o (symbol from plugin)
                                                  obj/main/SPRACINGF3/main.o (symbol from plugin)
resetAdjustmentStates                             obj/main/SPRACINGF3/io/rc_controls.o (symbol from plugin)
                                                  obj/main/SPRACINGF3/config/config.o (symbol from plugin)
resetAllRxChannelRangeConfigurations              obj/main/SPRACINGF3/rx/rx.o (symbol from plugin)
                                                  obj/main/SPRACINGF3/io/serial_cli.o (symbol from plugin)
                                                  obj/main/SPRACINGF3/config/config.o (symbol from plugin)
resetBarometerConfig                              obj/main/SPRACINGF3/config/config.o (symbol from plugin)
resetBatteryConfig                                obj/main/SPRACINGF3/config/config.o (symbol from plugin)
resetConf.lto_priv.199                            /tmp/ccGYWBCE.ltrans10.ltrans.o
                                                  /tmp/ccGYWBCE.ltrans22.ltrans.o
                                                  /tmp/ccGYWBCE.ltrans2.ltrans.o
                                                  /tmp/ccGYWBCE.ltrans0.ltrans.o
resetDisplay                                      obj/main/SPRACINGF3/io/display.o (symbol from plugin)
resetEEPROM                                       obj/main/SPRACINGF3/config/config.o (symbol from plugin)
                                                  obj/main/SPRACINGF3/io/serial_msp.o (symbol from plugin)
                                                  obj/main/SPRACINGF3/io/serial_cli.o (symbol from plugin)
resetEscAndServoConfig                            obj/main/SPRACINGF3/config/config.o (symbol from plugin)
resetFlight3DConfig                               obj/main/SPRACINGF3/config/config.o (symbol from plugin)
resetGpsProfile                                   obj/main/SPRACINGF3/config/config.o (symbol from plugin)
resetMixerConfig                                  obj/main/SPRACINGF3/config/config.o (symbol from plugin)
resetPPMDataReceivedState                         obj/main/SPRACINGF3/drivers/pwm_rx.o (symbol from plugin)
                                                  obj/main/SPRACINGF3/rx/rx.o (symbol from plugin)
resetPidProfile                                   obj/main/SPRACINGF3/config/config.o (symbol from plugin)
                                                  obj/main/SPRACINGF3/io/serial_msp.o (symbol from plugin)
resetRcControlsConfig                             obj/main/SPRACINGF3/config/config.o (symbol from plugin)
resetRollAndPitchTrims                            obj/main/SPRACINGF3/sensors/acceleration.o (symbol from plugin)
                                                  obj/main/SPRACINGF3/config/config.o (symbol from plugin)
resetSensorAlignment                              obj/main/SPRACINGF3/config/config.o (symbol from plugin)
resetSerialConfig                                 obj/main/SPRACINGF3/config/config.o (symbol from plugin)
resetSerialConfig.constprop.66                    /tmp/ccGYWBCE.ltrans16.ltrans.o
                                                  /tmp/ccGYWBCE.ltrans10.ltrans.o
resetTelemetryConfig                              obj/main/SPRACINGF3/config/config.o (symbol from plugin)
resumeRxSignal                                    /tmp/ccGYWBCE.ltrans8.ltrans.o
                                                  obj/main/SPRACINGF3/rx/rx.o (symbol from plugin)
                                                  /tmp/ccGYWBCE.ltrans20.ltrans.o
                                                  /tmp/ccGYWBCE.ltrans10.ltrans.o
                                                  obj/main/SPRACINGF3/config/config.o (symbol from plugin)
rint                                              /usr/lib/gcc/arm-none-eabi/4.9.3/../../../arm-none-eabi/lib/armv7e-m/fpu/libm.a(lib_a-s_rint.o)
                                                  /usr/lib/gcc/arm-none-eabi/4.9.3/../../../arm-none-eabi/lib/armv7e-m/fpu/libm.a(lib_a-wf_pow.o)
rotateV                                           obj/main/SPRACINGF3/common/maths.o (symbol from plugin)
rssi                                              /tmp/ccGYWBCE.ltrans5.ltrans.o
                                                  obj/main/SPRACINGF3/rx/rx.o (symbol from plugin)
                                                  /tmp/ccGYWBCE.ltrans9.ltrans.o
                                                  /tmp/ccGYWBCE.ltrans3.ltrans.o
                                                  /tmp/ccGYWBCE.ltrans2.ltrans.o
                                                  obj/main/SPRACINGF3/io/serial_msp.o (symbol from plugin)
                                                  obj/main/SPRACINGF3/blackbox/blackbox.o (symbol from plugin)
                                                  obj/main/SPRACINGF3/telemetry/ltm.o (symbol from plugin)
rxAreFlightChannelsValid                          obj/main/SPRACINGF3/rx/rx.o (symbol from plugin)
                                                  obj/main/SPRACINGF3/blackbox/blackbox.o (symbol from plugin)
                                                  obj/main/SPRACINGF3/io/display.o (symbol from plugin)
rxConfig.lto_priv.265                             /tmp/ccGYWBCE.ltrans3.ltrans.o
                                                  /tmp/ccGYWBCE.ltrans0.ltrans.o
rxConfig.lto_priv.266                             /tmp/ccGYWBCE.ltrans8.ltrans.o
                                                  /tmp/ccGYWBCE.ltrans23.ltrans.o
                                                  /tmp/ccGYWBCE.ltrans10.ltrans.o
                                                  /tmp/ccGYWBCE.ltrans3.ltrans.o
                                                  /tmp/ccGYWBCE.ltrans0.ltrans.o
rxConfig.lto_priv.485                             /tmp/ccGYWBCE.ltrans1.ltrans.o
                                                  /tmp/ccGYWBCE.ltrans10.ltrans.o
rxFlightChannelsValid.lto_priv.500                /tmp/ccGYWBCE.ltrans3.ltrans.o
                                                  /tmp/ccGYWBCE.ltrans19.ltrans.o
                                                  /tmp/ccGYWBCE.ltrans9.ltrans.o
rxInit                                            obj/main/SPRACINGF3/rx/rx.o (symbol from plugin)
                                                  obj/main/SPRACINGF3/main.o (symbol from plugin)
rxIsInFailsafeMode.lto_priv.275                   /tmp/ccGYWBCE.ltrans3.ltrans.o
                                                  /tmp/ccGYWBCE.ltrans23.ltrans.o
rxIsInFailsafeModeNotDataDriven.lto_priv.277      /tmp/ccGYWBCE.ltrans3.ltrans.o
                                                  /tmp/ccGYWBCE.ltrans23.ltrans.o
rxIsReceivingSignal                               obj/main/SPRACINGF3/rx/rx.o (symbol from plugin)
                                                  obj/main/SPRACINGF3/io/rc_controls.o (symbol from plugin)
                                                  obj/main/SPRACINGF3/blackbox/blackbox.o (symbol from plugin)
                                                  obj/main/SPRACINGF3/io/display.o (symbol from plugin)
                                                  obj/main/SPRACINGF3/io/ledstrip.o (symbol from plugin)
rxMspFrameComplete                                obj/main/SPRACINGF3/rx/msp.o (symbol from plugin)
                                                  obj/main/SPRACINGF3/rx/rx.o (symbol from plugin)
rxMspFrameDone.lto_priv.311                       /tmp/ccGYWBCE.ltrans23.ltrans.o
                                                  /tmp/ccGYWBCE.ltrans2.ltrans.o
rxMspFrameReceive                                 obj/main/SPRACINGF3/rx/msp.o (symbol from plugin)
                                                  obj/main/SPRACINGF3/io/serial_msp.o (symbol from plugin)
rxMspInit                                         obj/main/SPRACINGF3/rx/msp.o (symbol from plugin)
                                                  obj/main/SPRACINGF3/rx/rx.o (symbol from plugin)
rxMspReadRawRC.lto_priv.414                       /tmp/ccGYWBCE.ltrans8.ltrans.o
                                                  /tmp/ccGYWBCE.ltrans0.ltrans.o
rxPwmInit                                         obj/main/SPRACINGF3/rx/pwm.o (symbol from plugin)
                                                  obj/main/SPRACINGF3/rx/rx.o (symbol from plugin)
rxRefreshRate.lto_priv.398                        /tmp/ccGYWBCE.ltrans1.ltrans.o
                                                  /tmp/ccGYWBCE.ltrans0.ltrans.o
rxRuntimeConfig                                   /tmp/ccGYWBCE.ltrans16.ltrans.o
                                                  obj/main/SPRACINGF3/rx/rx.o (symbol from plugin)
                                                  /tmp/ccGYWBCE.ltrans19.ltrans.o
                                                  /tmp/ccGYWBCE.ltrans13.ltrans.o
                                                  /tmp/ccGYWBCE.ltrans3.ltrans.o
                                                  /tmp/ccGYWBCE.ltrans2.ltrans.o
                                                  /tmp/ccGYWBCE.ltrans0.ltrans.o
                                                  obj/main/SPRACINGF3/io/serial_msp.o (symbol from plugin)
                                                  obj/main/SPRACINGF3/flight/mixer.o (symbol from plugin)
                                                  obj/main/SPRACINGF3/io/display.o (symbol from plugin)
rxRuntimeConfigPtr.lto_priv.297                   /tmp/ccGYWBCE.ltrans16.ltrans.o
                                                  /tmp/ccGYWBCE.ltrans23.ltrans.o
rxSignalReceived.lto_priv.259                     /tmp/ccGYWBCE.ltrans6.ltrans.o
                                                  /tmp/ccGYWBCE.ltrans23.ltrans.o
                                                  /tmp/ccGYWBCE.ltrans19.ltrans.o
                                                  /tmp/ccGYWBCE.ltrans9.ltrans.o
                                                  /tmp/ccGYWBCE.ltrans3.ltrans.o
rxSignalReceivedNotDataDriven.lto_priv.276        /tmp/ccGYWBCE.ltrans3.ltrans.o
                                                  /tmp/ccGYWBCE.ltrans23.ltrans.o
rxUpdateAt.lto_priv.274                           /tmp/ccGYWBCE.ltrans3.ltrans.o
                                                  /tmp/ccGYWBCE.ltrans23.ltrans.o
saveConfigAndNotify                               /tmp/ccGYWBCE.ltrans20.ltrans.o
                                                  obj/main/SPRACINGF3/config/config.o (symbol from plugin)
                                                  /tmp/ccGYWBCE.ltrans25.ltrans.o
                                                  /tmp/ccGYWBCE.ltrans17.ltrans.o
                                                  /tmp/ccGYWBCE.ltrans3.ltrans.o
                                                  /tmp/ccGYWBCE.ltrans0.ltrans.o
                                                  obj/main/SPRACINGF3/sensors/compass.o (symbol from plugin)
                                                  obj/main/SPRACINGF3/sensors/acceleration.o (symbol from plugin)
                                                  obj/main/SPRACINGF3/rx/spektrum.o (symbol from plugin)
                                                  obj/main/SPRACINGF3/io/rc_controls.o (symbol from plugin)
                                                  obj/main/SPRACINGF3/mw.o (symbol from plugin)
sbusChannelData.lto_priv.293                      /tmp/ccGYWBCE.ltrans8.ltrans.o
                                                  /tmp/ccGYWBCE.ltrans23.ltrans.o
                                                  /tmp/ccGYWBCE.ltrans0.ltrans.o
sbusDataReceive.lto_priv.400                      /tmp/ccGYWBCE.ltrans8.ltrans.o
                                                  /tmp/ccGYWBCE.ltrans0.ltrans.o
sbusFrame.lto_priv.292                            /tmp/ccGYWBCE.ltrans8.ltrans.o
                                                  /tmp/ccGYWBCE.ltrans23.ltrans.o
sbusFrameDone.lto_priv.291                        /tmp/ccGYWBCE.ltrans8.ltrans.o
                                                  /tmp/ccGYWBCE.ltrans23.ltrans.o
sbusFrameStatus                                   obj/main/SPRACINGF3/rx/sbus.o (symbol from plugin)
                                                  obj/main/SPRACINGF3/rx/rx.o (symbol from plugin)
sbusInit                                          obj/main/SPRACINGF3/rx/sbus.o (symbol from plugin)
                                                  obj/main/SPRACINGF3/rx/rx.o (symbol from plugin)
sbusReadRawRC.lto_priv.399                        /tmp/ccGYWBCE.ltrans8.ltrans.o
                                                  /tmp/ccGYWBCE.ltrans0.ltrans.o
scalbnf                                           /usr/lib/gcc/arm-none-eabi/4.9.3/../../../arm-none-eabi/lib/armv7e-m/fpu/libm.a(lib_a-sf_scalbn.o)
                                                  /usr/lib/gcc/arm-none-eabi/4.9.3/../../../arm-none-eabi/lib/armv7e-m/fpu/libm.a(lib_a-kf_rem_pio2.o)
                                                  /usr/lib/gcc/arm-none-eabi/4.9.3/../../../arm-none-eabi/lib/armv7e-m/fpu/libm.a(lib_a-ef_pow.o)
scaleLedValue                                     obj/main/SPRACINGF3/drivers/light_ws2811strip.o (symbol from plugin)
scaleRange                                        obj/main/SPRACINGF3/common/maths.o (symbol from plugin)
                                                  obj/main/SPRACINGF3/rx/rx.o (symbol from plugin)
                                                  obj/main/SPRACINGF3/flight/mixer.o (symbol from plugin)
                                                  obj/main/SPRACINGF3/io/ledstrip.o (symbol from plugin)
scheduler                                         obj/main/SPRACINGF3/scheduler.o (symbol from plugin)
                                                  obj/main/SPRACINGF3/main.o (symbol from plugin)
sectionTimes                                      obj/main/SPRACINGF3/debug.o (symbol from plugin)
selectMPUIntExtiConfig                            obj/main/SPRACINGF3/sensors/initialisation.o (symbol from plugin)
sendDataHead.lto_priv.242                         /tmp/ccGYWBCE.ltrans24.ltrans.o
                                                  /tmp/ccGYWBCE.ltrans5.ltrans.o
sendFieldDefinition.lto_priv.360                  /tmp/ccGYWBCE.ltrans9.ltrans.o
                                                  /tmp/ccGYWBCE.ltrans1.ltrans.o
sendLatLong.lto_priv.243                          /tmp/ccGYWBCE.ltrans24.ltrans.o
                                                  /tmp/ccGYWBCE.ltrans5.ltrans.o
sendTelemetryTail.lto_priv.240                    /tmp/ccGYWBCE.ltrans24.ltrans.o
                                                  /tmp/ccGYWBCE.ltrans5.ltrans.o
sensors                                           obj/main/SPRACINGF3/config/runtime_config.o (symbol from plugin)
                                                  obj/main/SPRACINGF3/sensors/initialisation.o (symbol from plugin)
                                                  obj/main/SPRACINGF3/io/serial_msp.o (symbol from plugin)
                                                  obj/main/SPRACINGF3/io/rc_controls.o (symbol from plugin)
                                                  obj/main/SPRACINGF3/flight/imu.o (symbol from plugin)
                                                  obj/main/SPRACINGF3/mw.o (symbol from plugin)
                                                  obj/main/SPRACINGF3/main.o (symbol from plugin)
                                                  obj/main/SPRACINGF3/blackbox/blackbox.o (symbol from plugin)
                                                  obj/main/SPRACINGF3/telemetry/ltm.o (symbol from plugin)
                                                  obj/main/SPRACINGF3/telemetry/smartport.o (symbol from plugin)
                                                  obj/main/SPRACINGF3/telemetry/hott.o (symbol from plugin)
                                                  obj/main/SPRACINGF3/telemetry/frsky.o (symbol from plugin)
                                                  obj/main/SPRACINGF3/io/display.o (symbol from plugin)
sensorsAutodetect                                 obj/main/SPRACINGF3/sensors/initialisation.o (symbol from plugin)
                                                  obj/main/SPRACINGF3/main.o (symbol from plugin)
sensorsClear                                      obj/main/SPRACINGF3/config/runtime_config.o (symbol from plugin)
                                                  obj/main/SPRACINGF3/io/gps.o (symbol from plugin)
sensorsMask                                       obj/main/SPRACINGF3/config/runtime_config.o (symbol from plugin)
                                                  obj/main/SPRACINGF3/io/serial_cli.o (symbol from plugin)
sensorsSet                                        obj/main/SPRACINGF3/config/runtime_config.o (symbol from plugin)
                                                  obj/main/SPRACINGF3/sensors/initialisation.o (symbol from plugin)
                                                  obj/main/SPRACINGF3/sensors/sonar.o (symbol from plugin)
                                                  obj/main/SPRACINGF3/io/gps.o (symbol from plugin)
serialBeginWrite                                  obj/main/SPRACINGF3/drivers/serial.o (symbol from plugin)
                                                  obj/main/SPRACINGF3/io/serial_msp.o (symbol from plugin)
serialConfig.lto_priv.212                         /tmp/ccGYWBCE.ltrans16.ltrans.o
                                                  /tmp/ccGYWBCE.ltrans7.ltrans.o
                                                  /tmp/ccGYWBCE.ltrans2.ltrans.o
                                                  /tmp/ccGYWBCE.ltrans0.ltrans.o
serialEndWrite                                    obj/main/SPRACINGF3/drivers/serial.o (symbol from plugin)
                                                  obj/main/SPRACINGF3/io/serial_msp.o (symbol from plugin)
serialFindPortConfiguration                       /tmp/ccGYWBCE.ltrans7.ltrans.o
                                                  obj/main/SPRACINGF3/io/serial.o (symbol from plugin)
                                                  /tmp/ccGYWBCE.ltrans2.ltrans.o
                                                  /tmp/ccGYWBCE.ltrans0.ltrans.o
                                                  obj/main/SPRACINGF3/io/serial_msp.o (symbol from plugin)
                                                  obj/main/SPRACINGF3/io/serial_cli.o (symbol from plugin)
serialGetAvailablePortCount                       obj/main/SPRACINGF3/io/serial.o (symbol from plugin)
                                                  obj/main/SPRACINGF3/io/serial_msp.o (symbol from plugin)
serialGetBaudRate                                 obj/main/SPRACINGF3/drivers/serial.o (symbol from plugin)
                                                  obj/main/SPRACINGF3/io/gps.o (symbol from plugin)
serialICConfig.lto_priv.535                       /tmp/ccGYWBCE.ltrans15.ltrans.o
                                                  /tmp/ccGYWBCE.ltrans14.ltrans.o
serialInit                                        obj/main/SPRACINGF3/io/serial.o (symbol from plugin)
                                                  obj/main/SPRACINGF3/main.o (symbol from plugin)
serialInputPortConfig                             obj/main/SPRACINGF3/drivers/serial_softserial.o (symbol from plugin)
serialIsPortAvailable                             obj/main/SPRACINGF3/io/serial.o (symbol from plugin)
                                                  obj/main/SPRACINGF3/io/serial_msp.o (symbol from plugin)
                                                  obj/main/SPRACINGF3/io/serial_cli.o (symbol from plugin)
serialPortCount.lto_priv.432                      /tmp/ccGYWBCE.ltrans2.ltrans.o
                                                  /tmp/ccGYWBCE.ltrans0.ltrans.o
serialPortIdentifiers                             /tmp/ccGYWBCE.ltrans16.ltrans.o
                                                  obj/main/SPRACINGF3/io/serial.o (symbol from plugin)
                                                  /tmp/ccGYWBCE.ltrans0.ltrans.o
                                                  obj/main/SPRACINGF3/config/config.o (symbol from plugin)
serialPortUsageList.lto_priv.211                  /tmp/ccGYWBCE.ltrans16.ltrans.o
                                                  /tmp/ccGYWBCE.ltrans7.ltrans.o
                                                  /tmp/ccGYWBCE.ltrans2.ltrans.o
                                                  /tmp/ccGYWBCE.ltrans0.ltrans.o
serialPrint                                       obj/main/SPRACINGF3/drivers/serial.o (symbol from plugin)
                                                  obj/main/SPRACINGF3/io/gps.o (symbol from plugin)
serialRead                                        /tmp/ccGYWBCE.ltrans13.ltrans.o
                                                  obj/main/SPRACINGF3/drivers/serial.o (symbol from plugin)
                                                  /tmp/ccGYWBCE.ltrans24.ltrans.o
                                                  /tmp/ccGYWBCE.ltrans22.ltrans.o
                                                  /tmp/ccGYWBCE.ltrans17.ltrans.o
                                                  /tmp/ccGYWBCE.ltrans5.ltrans.o
                                                  /tmp/ccGYWBCE.ltrans2.ltrans.o
                                                  obj/main/SPRACINGF3/io/serial_msp.o (symbol from plugin)
                                                  obj/main/SPRACINGF3/io/serial_cli.o (symbol from plugin)
                                                  obj/main/SPRACINGF3/telemetry/smartport.o (symbol from plugin)
                                                  obj/main/SPRACINGF3/telemetry/hott.o (symbol from plugin)
                                                  obj/main/SPRACINGF3/io/gps.o (symbol from plugin)
serialRemovePort                                  obj/main/SPRACINGF3/io/serial.o (symbol from plugin)
                                                  obj/main/SPRACINGF3/main.o (symbol from plugin)
serialRxBytesWaiting                              /tmp/ccGYWBCE.ltrans13.ltrans.o
                                                  obj/main/SPRACINGF3/drivers/serial.o (symbol from plugin)
                                                  /tmp/ccGYWBCE.ltrans24.ltrans.o
                                                  /tmp/ccGYWBCE.ltrans22.ltrans.o
                                                  /tmp/ccGYWBCE.ltrans17.ltrans.o
                                                  /tmp/ccGYWBCE.ltrans5.ltrans.o
                                                  /tmp/ccGYWBCE.ltrans2.ltrans.o
                                                  obj/main/SPRACINGF3/io/serial_msp.o (symbol from plugin)
                                                  obj/main/SPRACINGF3/io/serial_cli.o (symbol from plugin)
                                                  obj/main/SPRACINGF3/telemetry/smartport.o (symbol from plugin)
                                                  obj/main/SPRACINGF3/telemetry/hott.o (symbol from plugin)
                                                  obj/main/SPRACINGF3/io/gps.o (symbol from plugin)
serialRxFrameStatus                               obj/main/SPRACINGF3/rx/rx.o (symbol from plugin)
serialRxInit                                      obj/main/SPRACINGF3/rx/rx.o (symbol from plugin)
serialSetBaudRate                                 /tmp/ccGYWBCE.ltrans13.ltrans.o
                                                  obj/main/SPRACINGF3/drivers/serial.o (symbol from plugin)
                                                  /tmp/ccGYWBCE.ltrans17.ltrans.o
                                                  obj/main/SPRACINGF3/io/gps.o (symbol from plugin)
serialSetMode                                     /tmp/ccGYWBCE.ltrans13.ltrans.o
                                                  obj/main/SPRACINGF3/drivers/serial.o (symbol from plugin)
                                                  /tmp/ccGYWBCE.ltrans22.ltrans.o
                                                  /tmp/ccGYWBCE.ltrans7.ltrans.o
                                                  /tmp/ccGYWBCE.ltrans5.ltrans.o
                                                  obj/main/SPRACINGF3/io/serial.o (symbol from plugin)
                                                  obj/main/SPRACINGF3/telemetry/hott.o (symbol from plugin)
                                                  obj/main/SPRACINGF3/io/gps.o (symbol from plugin)
serialTxBytesFree                                 obj/main/SPRACINGF3/drivers/serial.o (symbol from plugin)
                                                  obj/main/SPRACINGF3/blackbox/blackbox_io.o (symbol from plugin)
serialUSART1                                      obj/main/SPRACINGF3/drivers/serial_uart_stm32f30x.o (symbol from plugin)
                                                  obj/main/SPRACINGF3/drivers/serial_uart.o (symbol from plugin)
serialUSART2                                      obj/main/SPRACINGF3/drivers/serial_uart_stm32f30x.o (symbol from plugin)
                                                  obj/main/SPRACINGF3/drivers/serial_uart.o (symbol from plugin)
serialUSART3                                      obj/main/SPRACINGF3/drivers/serial_uart_stm32f30x.o (symbol from plugin)
                                                  obj/main/SPRACINGF3/drivers/serial_uart.o (symbol from plugin)
serialWrite                                       /tmp/ccGYWBCE.ltrans13.ltrans.o
                                                  obj/main/SPRACINGF3/drivers/serial.o (symbol from plugin)
                                                  /tmp/ccGYWBCE.ltrans24.ltrans.o
                                                  /tmp/ccGYWBCE.ltrans22.ltrans.o
                                                  /tmp/ccGYWBCE.ltrans20.ltrans.o
                                                  /tmp/ccGYWBCE.ltrans17.ltrans.o
                                                  /tmp/ccGYWBCE.ltrans10.ltrans.o
                                                  /tmp/ccGYWBCE.ltrans9.ltrans.o
                                                  /tmp/ccGYWBCE.ltrans5.ltrans.o
                                                  obj/main/SPRACINGF3/common/printf.o (symbol from plugin)
                                                  obj/main/SPRACINGF3/blackbox/blackbox_io.o (symbol from plugin)
                                                  obj/main/SPRACINGF3/telemetry/ltm.o (symbol from plugin)
                                                  obj/main/SPRACINGF3/telemetry/smartport.o (symbol from plugin)
                                                  obj/main/SPRACINGF3/telemetry/hott.o (symbol from plugin)
                                                  obj/main/SPRACINGF3/telemetry/frsky.o (symbol from plugin)
                                                  obj/main/SPRACINGF3/io/gps.o (symbol from plugin)
serialWriteBuf                                    obj/main/SPRACINGF3/drivers/serial.o (symbol from plugin)
serialWriteBufShim                                /tmp/ccGYWBCE.ltrans13.ltrans.o
                                                  obj/main/SPRACINGF3/drivers/serial.o (symbol from plugin)
                                                  /tmp/ccGYWBCE.ltrans2.ltrans.o
                                                  obj/main/SPRACINGF3/io/serial_msp.o (symbol from plugin)
                                                  obj/main/SPRACINGF3/io/serial_cli.o (symbol from plugin)
serialize16.lto_priv.241                          /tmp/ccGYWBCE.ltrans24.ltrans.o
                                                  /tmp/ccGYWBCE.ltrans5.ltrans.o
serialize16.lto_priv.336                          /tmp/ccGYWBCE.ltrans8.ltrans.o
                                                  /tmp/ccGYWBCE.ltrans2.ltrans.o
serialize32.lto_priv.337                          /tmp/ccGYWBCE.ltrans8.ltrans.o
                                                  /tmp/ccGYWBCE.ltrans2.ltrans.o
serialize8.lto_priv.332                           /tmp/ccGYWBCE.ltrans8.ltrans.o
                                                  /tmp/ccGYWBCE.ltrans2.ltrans.o
servo                                             /tmp/ccGYWBCE.ltrans2.ltrans.o
                                                  obj/main/SPRACINGF3/flight/mixer.o (symbol from plugin)
                                                  /tmp/ccGYWBCE.ltrans9.ltrans.o
                                                  /tmp/ccGYWBCE.ltrans1.ltrans.o
                                                  /tmp/ccGYWBCE.ltrans0.ltrans.o
                                                  obj/main/SPRACINGF3/io/serial_msp.o (symbol from plugin)
                                                  obj/main/SPRACINGF3/blackbox/blackbox.o (symbol from plugin)
servoConf.lto_priv.231                            /tmp/ccGYWBCE.ltrans12.ltrans.o
                                                  /tmp/ccGYWBCE.ltrans13.ltrans.o
                                                  /tmp/ccGYWBCE.ltrans10.ltrans.o
                                                  /tmp/ccGYWBCE.ltrans1.ltrans.o
servoDirection                                    obj/main/SPRACINGF3/flight/mixer.o (symbol from plugin)
                                                  obj/main/SPRACINGF3/io/serial_cli.o (symbol from plugin)
servoMixerAirplane.lto_priv.468                   /tmp/ccGYWBCE.ltrans12.ltrans.o
servoMixerBI.lto_priv.465                         /tmp/ccGYWBCE.ltrans12.ltrans.o
servoMixerDual.lto_priv.469                       /tmp/ccGYWBCE.ltrans12.ltrans.o
servoMixerFlyingWing.lto_priv.467                 /tmp/ccGYWBCE.ltrans12.ltrans.o
servoMixerGimbal.lto_priv.466                     /tmp/ccGYWBCE.ltrans12.ltrans.o
servoMixerLoadMix                                 obj/main/SPRACINGF3/flight/mixer.o (symbol from plugin)
                                                  obj/main/SPRACINGF3/io/serial_cli.o (symbol from plugin)
servoMixerSingle.lto_priv.470                     /tmp/ccGYWBCE.ltrans12.ltrans.o
servoMixerTri.lto_priv.464                        /tmp/ccGYWBCE.ltrans12.ltrans.o
servoMixers                                       /tmp/ccGYWBCE.ltrans12.ltrans.o
                                                  obj/main/SPRACINGF3/flight/mixer.o (symbol from plugin)
                                                  /tmp/ccGYWBCE.ltrans0.ltrans.o
servoRuleCount.lto_priv.346                       /tmp/ccGYWBCE.ltrans13.ltrans.o
                                                  /tmp/ccGYWBCE.ltrans1.ltrans.o
                                                  /tmp/ccGYWBCE.ltrans0.ltrans.o
servos.lto_priv.546                               /tmp/ccGYWBCE.ltrans0.ltrans.o
                                                  /tmp/ccGYWBCE.ltrans4.ltrans.o
setAccelerationTrims                              obj/main/SPRACINGF3/sensors/acceleration.o (symbol from plugin)
                                                  obj/main/SPRACINGF3/config/config.o (symbol from plugin)
setAdjustment.constprop.14                        /tmp/ccGYWBCE.ltrans16.ltrans.o
                                                  /tmp/ccGYWBCE.ltrans3.ltrans.o
setLedHsv                                         obj/main/SPRACINGF3/drivers/light_ws2811strip.o (symbol from plugin)
                                                  obj/main/SPRACINGF3/io/ledstrip.o (symbol from plugin)
setLedValue                                       obj/main/SPRACINGF3/drivers/light_ws2811strip.o (symbol from plugin)
setPrintfSerialPort                               obj/main/SPRACINGF3/common/printf.o (symbol from plugin)
                                                  obj/main/SPRACINGF3/io/serial_cli.o (symbol from plugin)
setStripColor                                     obj/main/SPRACINGF3/drivers/light_ws2811strip.o (symbol from plugin)
                                                  obj/main/SPRACINGF3/io/ledstrip.o (symbol from plugin)
                                                  obj/main/SPRACINGF3/drivers/light_ws2811strip_stm32f30x.o (symbol from plugin)
setStripColors                                    obj/main/SPRACINGF3/drivers/light_ws2811strip.o (symbol from plugin)
setTaskEnabled                                    obj/main/SPRACINGF3/scheduler.o (symbol from plugin)
                                                  obj/main/SPRACINGF3/main.o (symbol from plugin)
setTxSignal                                       /tmp/ccGYWBCE.ltrans15.ltrans.o
                                                  obj/main/SPRACINGF3/drivers/serial_softserial.o (symbol from plugin)
                                                  /tmp/ccGYWBCE.ltrans14.ltrans.o
setVelocity                                       /tmp/ccGYWBCE.ltrans17.ltrans.o
                                                  obj/main/SPRACINGF3/flight/altitudehold.o (symbol from plugin)
                                                  /tmp/ccGYWBCE.ltrans1.ltrans.o
shortGitRevision                                  /tmp/ccGYWBCE.ltrans8.ltrans.o
                                                  obj/main/SPRACINGF3/version.o (symbol from plugin)
                                                  obj/main/SPRACINGF3/io/serial_msp.o (symbol from plugin)
                                                  obj/main/SPRACINGF3/io/serial_cli.o (symbol from plugin)
                                                  obj/main/SPRACINGF3/blackbox/blackbox.o (symbol from plugin)
                                                  obj/main/SPRACINGF3/io/display.o (symbol from plugin)
shouldProcessRx                                   obj/main/SPRACINGF3/rx/rx.o (symbol from plugin)
                                                  obj/main/SPRACINGF3/mw.o (symbol from plugin)
showArmedPage                                     obj/main/SPRACINGF3/io/display.o (symbol from plugin)
showBatteryPage                                   obj/main/SPRACINGF3/io/display.o (symbol from plugin)
showGpsPage                                       obj/main/SPRACINGF3/io/display.o (symbol from plugin)
showProfilePage                                   obj/main/SPRACINGF3/io/display.o (symbol from plugin)
showRxPage                                        obj/main/SPRACINGF3/io/display.o (symbol from plugin)
showSensorsPage                                   obj/main/SPRACINGF3/io/display.o (symbol from plugin)
showTitle                                         obj/main/SPRACINGF3/io/display.o (symbol from plugin)
showWelcomePage                                   obj/main/SPRACINGF3/io/display.o (symbol from plugin)
sinf                                              /tmp/ccGYWBCE.ltrans20.ltrans.o
                                                  /tmp/ccGYWBCE.ltrans11.ltrans.o
                                                  /tmp/ccGYWBCE.ltrans1.ltrans.o
                                                  /tmp/ccGYWBCE.ltrans0.ltrans.o
skipRxSamples.lto_priv.268                        /tmp/ccGYWBCE.ltrans8.ltrans.o
                                                  /tmp/ccGYWBCE.ltrans3.ltrans.o
smallAngleCosZ                                    /tmp/ccGYWBCE.ltrans1.ltrans.o
                                                  obj/main/SPRACINGF3/flight/imu.o (symbol from plugin)
                                                  /tmp/ccGYWBCE.ltrans0.ltrans.o
smartPortLastRequestTime.lto_priv.508             /tmp/ccGYWBCE.ltrans5.ltrans.o
                                                  /tmp/ccGYWBCE.ltrans24.ltrans.o
smartPortPortSharing.lto_priv.506                 /tmp/ccGYWBCE.ltrans0.ltrans.o
                                                  /tmp/ccGYWBCE.ltrans24.ltrans.o
smartPortSendPackage.lto_priv.246                 /tmp/ccGYWBCE.ltrans24.ltrans.o
                                                  /tmp/ccGYWBCE.ltrans5.ltrans.o
smartPortSerialPort.lto_priv.502                  /tmp/ccGYWBCE.ltrans5.ltrans.o
                                                  /tmp/ccGYWBCE.ltrans24.ltrans.o
smartPortState                                    /tmp/ccGYWBCE.ltrans5.ltrans.o
                                                  obj/main/SPRACINGF3/telemetry/smartport.o (symbol from plugin)
                                                  /tmp/ccGYWBCE.ltrans24.ltrans.o
smartPortTelemetryEnabled.lto_priv.507            /tmp/ccGYWBCE.ltrans5.ltrans.o
                                                  /tmp/ccGYWBCE.ltrans24.ltrans.o
softSerialPorts                                   obj/main/SPRACINGF3/drivers/serial_softserial.o (symbol from plugin)
softSerialReadByte                                obj/main/SPRACINGF3/drivers/serial_softserial.o (symbol from plugin)
softSerialRxBytesWaiting                          obj/main/SPRACINGF3/drivers/serial_softserial.o (symbol from plugin)
softSerialSetBaudRate                             obj/main/SPRACINGF3/drivers/serial_softserial.o (symbol from plugin)
softSerialSetMode                                 obj/main/SPRACINGF3/drivers/serial_softserial.o (symbol from plugin)
softSerialTxBytesFree                             obj/main/SPRACINGF3/drivers/serial_softserial.o (symbol from plugin)
softSerialVTable                                  obj/main/SPRACINGF3/drivers/serial_softserial.o (symbol from plugin)
softSerialWriteByte                               obj/main/SPRACINGF3/drivers/serial_softserial.o (symbol from plugin)
sonarCalculateAltitude                            obj/main/SPRACINGF3/sensors/sonar.o (symbol from plugin)
                                                  obj/main/SPRACINGF3/flight/altitudehold.o (symbol from plugin)
sonarCfAltCm                                      /tmp/ccGYWBCE.ltrans17.ltrans.o
                                                  obj/main/SPRACINGF3/sensors/sonar.o (symbol from plugin)
                                                  /tmp/ccGYWBCE.ltrans0.ltrans.o
                                                  obj/main/SPRACINGF3/flight/altitudehold.o (symbol from plugin)
sonarGetHardwareConfiguration                     obj/main/SPRACINGF3/sensors/sonar.o (symbol from plugin)
                                                  obj/main/SPRACINGF3/main.o (symbol from plugin)
sonarGetLatestAltitude                            obj/main/SPRACINGF3/sensors/sonar.o (symbol from plugin)
                                                  obj/main/SPRACINGF3/io/serial_msp.o (symbol from plugin)
                                                  obj/main/SPRACINGF3/io/display.o (symbol from plugin)
sonarHardware.lto_priv.393                        /tmp/ccGYWBCE.ltrans17.ltrans.o
                                                  /tmp/ccGYWBCE.ltrans14.ltrans.o
                                                  /tmp/ccGYWBCE.ltrans0.ltrans.o
sonarInit                                         obj/main/SPRACINGF3/sensors/sonar.o (symbol from plugin)
                                                  obj/main/SPRACINGF3/main.o (symbol from plugin)
sonarMaxAltWithTiltCm                             /tmp/ccGYWBCE.ltrans17.ltrans.o
                                                  obj/main/SPRACINGF3/sensors/sonar.o (symbol from plugin)
                                                  /tmp/ccGYWBCE.ltrans0.ltrans.o
                                                  obj/main/SPRACINGF3/flight/altitudehold.o (symbol from plugin)
sonarMaxRangeCm                                   obj/main/SPRACINGF3/sensors/sonar.o (symbol from plugin)
sonarMaxTiltCos                                   /tmp/ccGYWBCE.ltrans17.ltrans.o
                                                  obj/main/SPRACINGF3/sensors/sonar.o (symbol from plugin)
                                                  /tmp/ccGYWBCE.ltrans0.ltrans.o
sonarRead                                         /tmp/ccGYWBCE.ltrans24.ltrans.o
                                                  obj/main/SPRACINGF3/sensors/sonar.o (symbol from plugin)
                                                  /tmp/ccGYWBCE.ltrans17.ltrans.o
                                                  /tmp/ccGYWBCE.ltrans9.ltrans.o
                                                  obj/main/SPRACINGF3/flight/altitudehold.o (symbol from plugin)
                                                  obj/main/SPRACINGF3/blackbox/blackbox.o (symbol from plugin)
sonarUpdate                                       obj/main/SPRACINGF3/sensors/sonar.o (symbol from plugin)
                                                  obj/main/SPRACINGF3/mw.o (symbol from plugin)
spekChannelData.lto_priv.299                      /tmp/ccGYWBCE.ltrans8.ltrans.o
                                                  /tmp/ccGYWBCE.ltrans23.ltrans.o
spekFrame.lto_priv.295                            /tmp/ccGYWBCE.ltrans8.ltrans.o
                                                  /tmp/ccGYWBCE.ltrans23.ltrans.o
spekHiRes.lto_priv.177                            /tmp/ccGYWBCE.ltrans16.ltrans.o
                                                  /tmp/ccGYWBCE.ltrans8.ltrans.o
spekShouldBind                                    obj/main/SPRACINGF3/rx/spektrum.o (symbol from plugin)
spek_chan_mask.lto_priv.298                       /tmp/ccGYWBCE.ltrans16.ltrans.o
                                                  /tmp/ccGYWBCE.ltrans23.ltrans.o
spek_chan_shift.lto_priv.296                      /tmp/ccGYWBCE.ltrans16.ltrans.o
                                                  /tmp/ccGYWBCE.ltrans23.ltrans.o
spektrumBind                                      obj/main/SPRACINGF3/rx/spektrum.o (symbol from plugin)
                                                  obj/main/SPRACINGF3/main.o (symbol from plugin)
spektrumDataReceive.lto_priv.173                  /tmp/ccGYWBCE.ltrans8.ltrans.o
                                                  /tmp/ccGYWBCE.ltrans16.ltrans.o
spektrumFrameStatus                               obj/main/SPRACINGF3/rx/spektrum.o (symbol from plugin)
                                                  obj/main/SPRACINGF3/rx/rx.o (symbol from plugin)
spektrumInit                                      obj/main/SPRACINGF3/rx/spektrum.o (symbol from plugin)
                                                  obj/main/SPRACINGF3/rx/rx.o (symbol from plugin)
spektrumInit.constprop.37                         /tmp/ccGYWBCE.ltrans16.ltrans.o
                                                  /tmp/ccGYWBCE.ltrans0.ltrans.o
spektrumReadRawRC.lto_priv.172                    /tmp/ccGYWBCE.ltrans8.ltrans.o
                                                  /tmp/ccGYWBCE.ltrans16.ltrans.o
spiInit                                           obj/main/SPRACINGF3/drivers/bus_spi.o (symbol from plugin)
                                                  obj/main/SPRACINGF3/main.o (symbol from plugin)
spiIsBusBusy                                      obj/main/SPRACINGF3/drivers/bus_spi.o (symbol from plugin)
spiSetDivisor                                     obj/main/SPRACINGF3/drivers/bus_spi.o (symbol from plugin)
                                                  obj/main/SPRACINGF3/drivers/flash_m25p16.o (symbol from plugin)
spiTransfer                                       obj/main/SPRACINGF3/drivers/bus_spi.o (symbol from plugin)
                                                  obj/main/SPRACINGF3/drivers/flash_m25p16.o (symbol from plugin)
spiTransfer.constprop.142                         /tmp/ccGYWBCE.ltrans16.ltrans.o
                                                  /tmp/ccGYWBCE.ltrans15.ltrans.o
                                                  /tmp/ccGYWBCE.ltrans14.ltrans.o
                                                  /tmp/ccGYWBCE.ltrans0.ltrans.o
spiTransferByte                                   obj/main/SPRACINGF3/drivers/bus_spi.o (symbol from plugin)
                                                  obj/main/SPRACINGF3/drivers/flash_m25p16.o (symbol from plugin)
sqrtf                                             /usr/lib/gcc/arm-none-eabi/4.9.3/../../../arm-none-eabi/lib/armv7e-m/fpu/libm.a(lib_a-wf_sqrt.o)
                                                  /tmp/ccGYWBCE.ltrans20.ltrans.o
                                                  /tmp/ccGYWBCE.ltrans11.ltrans.o
                                                  /tmp/ccGYWBCE.ltrans1.ltrans.o
standardBoardAlignment.lto_priv.430               /tmp/ccGYWBCE.ltrans8.ltrans.o
                                                  /tmp/ccGYWBCE.ltrans0.ltrans.o
startBlackbox                                     obj/main/SPRACINGF3/blackbox/blackbox.o (symbol from plugin)
                                                  obj/main/SPRACINGF3/mw.o (symbol from plugin)
stateFlags                                        /tmp/ccGYWBCE.ltrans5.ltrans.o
                                                  obj/main/SPRACINGF3/config/runtime_config.o (symbol from plugin)
                                                  /tmp/ccGYWBCE.ltrans23.ltrans.o
                                                  /tmp/ccGYWBCE.ltrans19.ltrans.o
                                                  /tmp/ccGYWBCE.ltrans18.ltrans.o
                                                  /tmp/ccGYWBCE.ltrans17.ltrans.o
                                                  /tmp/ccGYWBCE.ltrans14.ltrans.o
                                                  /tmp/ccGYWBCE.ltrans11.ltrans.o
                                                  /tmp/ccGYWBCE.ltrans9.ltrans.o
                                                  /tmp/ccGYWBCE.ltrans3.ltrans.o
                                                  /tmp/ccGYWBCE.ltrans2.ltrans.o
                                                  /tmp/ccGYWBCE.ltrans1.ltrans.o
                                                  /tmp/ccGYWBCE.ltrans0.ltrans.o
                                                  obj/main/SPRACINGF3/sensors/compass.o (symbol from plugin)
                                                  obj/main/SPRACINGF3/io/serial_msp.o (symbol from plugin)
                                                  obj/main/SPRACINGF3/io/rc_controls.o (symbol from plugin)
                                                  obj/main/SPRACINGF3/io/beeper.o (symbol from plugin)
                                                  obj/main/SPRACINGF3/flight/mixer.o (symbol from plugin)
                                                  obj/main/SPRACINGF3/flight/imu.o (symbol from plugin)
                                                  obj/main/SPRACINGF3/flight/altitudehold.o (symbol from plugin)
                                                  obj/main/SPRACINGF3/mw.o (symbol from plugin)
                                                  obj/main/SPRACINGF3/main.o (symbol from plugin)
                                                  obj/main/SPRACINGF3/blackbox/blackbox.o (symbol from plugin)
                                                  obj/main/SPRACINGF3/telemetry/ltm.o (symbol from plugin)
                                                  obj/main/SPRACINGF3/telemetry/smartport.o (symbol from plugin)
                                                  obj/main/SPRACINGF3/telemetry/hott.o (symbol from plugin)
                                                  obj/main/SPRACINGF3/telemetry/frsky.o (symbol from plugin)
                                                  obj/main/SPRACINGF3/io/display.o (symbol from plugin)
                                                  obj/main/SPRACINGF3/io/gps.o (symbol from plugin)
                                                  obj/main/SPRACINGF3/flight/navigation.o (symbol from plugin)
stopMotors                                        /tmp/ccGYWBCE.ltrans13.ltrans.o
                                                  obj/main/SPRACINGF3/flight/mixer.o (symbol from plugin)
                                                  /tmp/ccGYWBCE.ltrans22.ltrans.o
                                                  /tmp/ccGYWBCE.ltrans18.ltrans.o
                                                  /tmp/ccGYWBCE.ltrans2.ltrans.o
                                                  obj/main/SPRACINGF3/io/serial_msp.o (symbol from plugin)
                                                  obj/main/SPRACINGF3/io/serial_cli.o (symbol from plugin)
                                                  obj/main/SPRACINGF3/main.o (symbol from plugin)
strcasecmp                                        /usr/lib/gcc/arm-none-eabi/4.9.3/../../../arm-none-eabi/lib/armv7e-m/fpu/libc_nano.a(lib_a-strcasecmp.o)
                                                  /tmp/ccGYWBCE.ltrans22.ltrans.o
                                                  /tmp/ccGYWBCE.ltrans12.ltrans.o
strcat                                            /usr/lib/gcc/arm-none-eabi/4.9.3/../../../arm-none-eabi/lib/armv7e-m/fpu/libc_nano.a(lib_a-strcat.o)
                                                  /tmp/ccGYWBCE.ltrans20.ltrans.o
strchr                                            /usr/lib/gcc/arm-none-eabi/4.9.3/../../../arm-none-eabi/lib/armv7e-m/fpu/libc_nano.a(lib_a-strchr.o)
                                                  /tmp/ccGYWBCE.ltrans22.ltrans.o
                                                  /tmp/ccGYWBCE.ltrans16.ltrans.o
                                                  /tmp/ccGYWBCE.ltrans12.ltrans.o
                                                  /tmp/ccGYWBCE.ltrans7.ltrans.o
                                                  /tmp/ccGYWBCE.ltrans2.ltrans.o
string.8892.lto_priv.517                          /tmp/ccGYWBCE.ltrans16.ltrans.o
                                                  /tmp/ccGYWBCE.ltrans11.ltrans.o
strlen                                            /usr/lib/gcc/arm-none-eabi/4.9.3/../../../arm-none-eabi/lib/armv7e-m/fpu/libc_nano.a(lib_a-strlen.o)
                                                  /tmp/ccGYWBCE.ltrans22.ltrans.o
                                                  /tmp/ccGYWBCE.ltrans20.ltrans.o
                                                  /tmp/ccGYWBCE.ltrans19.ltrans.o
                                                  /tmp/ccGYWBCE.ltrans12.ltrans.o
                                                  /tmp/ccGYWBCE.ltrans10.ltrans.o
                                                  /tmp/ccGYWBCE.ltrans9.ltrans.o
                                                  /tmp/ccGYWBCE.ltrans7.ltrans.o
                                                  /tmp/ccGYWBCE.ltrans2.ltrans.o
strncasecmp                                       /usr/lib/gcc/arm-none-eabi/4.9.3/../../../arm-none-eabi/lib/armv7e-m/fpu/libc_nano.a(lib_a-strncasecmp.o)
                                                  /tmp/ccGYWBCE.ltrans22.ltrans.o
                                                  /tmp/ccGYWBCE.ltrans12.ltrans.o
                                                  /tmp/ccGYWBCE.ltrans7.ltrans.o
                                                  /tmp/ccGYWBCE.ltrans2.ltrans.o
strncpy                                           /usr/lib/gcc/arm-none-eabi/4.9.3/../../../arm-none-eabi/lib/armv7e-m/fpu/libc_nano.a(lib_a-strncpy.o)
                                                  /tmp/ccGYWBCE.ltrans20.ltrans.o
                                                  /tmp/ccGYWBCE.ltrans19.ltrans.o
strstr                                            /usr/lib/gcc/arm-none-eabi/4.9.3/../../../arm-none-eabi/lib/armv7e-m/fpu/libc_nano.a(lib_a-strstr.o)
                                                  /tmp/ccGYWBCE.ltrans22.ltrans.o
strtok                                            /usr/lib/gcc/arm-none-eabi/4.9.3/../../../arm-none-eabi/lib/armv7e-m/fpu/libc_nano.a(lib_a-strtok.o)
                                                  /tmp/ccGYWBCE.ltrans12.ltrans.o
                                                  obj/main/SPRACINGF3/io/serial_cli.o (symbol from plugin)
strtok_r                                          /usr/lib/gcc/arm-none-eabi/4.9.3/../../../arm-none-eabi/lib/armv7e-m/fpu/libc_nano.a(lib_a-strtok_r.o)
                                                  /tmp/ccGYWBCE.ltrans22.ltrans.o
                                                  obj/main/SPRACINGF3/io/serial_cli.o (symbol from plugin)
strtol                                            /usr/lib/gcc/arm-none-eabi/4.9.3/../../../arm-none-eabi/lib/armv7e-m/fpu/libc_nano.a(lib_a-strtol.o)
                                                  /usr/lib/gcc/arm-none-eabi/4.9.3/../../../arm-none-eabi/lib/armv7e-m/fpu/libc_nano.a(lib_a-atoi.o)
sumd.lto_priv.289                                 /tmp/ccGYWBCE.ltrans8.ltrans.o
                                                  /tmp/ccGYWBCE.ltrans23.ltrans.o
sumdChannelCount.lto_priv.288                     /tmp/ccGYWBCE.ltrans8.ltrans.o
                                                  /tmp/ccGYWBCE.ltrans23.ltrans.o
sumdChannels.lto_priv.290                         /tmp/ccGYWBCE.ltrans8.ltrans.o
                                                  /tmp/ccGYWBCE.ltrans23.ltrans.o
sumdDataReceive.lto_priv.402                      /tmp/ccGYWBCE.ltrans8.ltrans.o
                                                  /tmp/ccGYWBCE.ltrans0.ltrans.o
sumdFrameDone.lto_priv.286                        /tmp/ccGYWBCE.ltrans8.ltrans.o
                                                  /tmp/ccGYWBCE.ltrans23.ltrans.o
sumdFrameStatus                                   obj/main/SPRACINGF3/rx/sumd.o (symbol from plugin)
                                                  obj/main/SPRACINGF3/rx/rx.o (symbol from plugin)
sumdInit                                          obj/main/SPRACINGF3/rx/sumd.o (symbol from plugin)
                                                  obj/main/SPRACINGF3/rx/rx.o (symbol from plugin)
sumdReadRawRC.lto_priv.401                        /tmp/ccGYWBCE.ltrans8.ltrans.o
                                                  /tmp/ccGYWBCE.ltrans0.ltrans.o
sumhChannels.lto_priv.285                         /tmp/ccGYWBCE.ltrans8.ltrans.o
                                                  /tmp/ccGYWBCE.ltrans23.ltrans.o
sumhDataReceive.lto_priv.404                      /tmp/ccGYWBCE.ltrans8.ltrans.o
                                                  /tmp/ccGYWBCE.ltrans0.ltrans.o
sumhFrame.lto_priv.284                            /tmp/ccGYWBCE.ltrans8.ltrans.o
                                                  /tmp/ccGYWBCE.ltrans23.ltrans.o
sumhFrameDone.lto_priv.283                        /tmp/ccGYWBCE.ltrans8.ltrans.o
                                                  /tmp/ccGYWBCE.ltrans23.ltrans.o
sumhFrameStatus                                   obj/main/SPRACINGF3/rx/sumh.o (symbol from plugin)
                                                  obj/main/SPRACINGF3/rx/rx.o (symbol from plugin)
sumhInit                                          obj/main/SPRACINGF3/rx/sumh.o (symbol from plugin)
                                                  obj/main/SPRACINGF3/rx/rx.o (symbol from plugin)
sumhReadRawRC.lto_priv.403                        /tmp/ccGYWBCE.ltrans8.ltrans.o
                                                  /tmp/ccGYWBCE.ltrans0.ltrans.o
suspendRxSignal                                   /tmp/ccGYWBCE.ltrans8.ltrans.o
                                                  obj/main/SPRACINGF3/rx/rx.o (symbol from plugin)
                                                  /tmp/ccGYWBCE.ltrans20.ltrans.o
                                                  /tmp/ccGYWBCE.ltrans10.ltrans.o
                                                  obj/main/SPRACINGF3/config/config.o (symbol from plugin)
suspendRxSignalUntil.lto_priv.269                 /tmp/ccGYWBCE.ltrans8.ltrans.o
                                                  /tmp/ccGYWBCE.ltrans3.ltrans.o
sysTickUptime.lto_priv.181                        /tmp/ccGYWBCE.ltrans8.ltrans.o
                                                  /tmp/ccGYWBCE.ltrans26.ltrans.o
                                                  /tmp/ccGYWBCE.ltrans24.ltrans.o
                                                  /tmp/ccGYWBCE.ltrans23.ltrans.o
                                                  /tmp/ccGYWBCE.ltrans22.ltrans.o
                                                  /tmp/ccGYWBCE.ltrans18.ltrans.o
                                                  /tmp/ccGYWBCE.ltrans17.ltrans.o
                                                  /tmp/ccGYWBCE.ltrans15.ltrans.o
                                                  /tmp/ccGYWBCE.ltrans11.ltrans.o
                                                  /tmp/ccGYWBCE.ltrans7.ltrans.o
                                                  /tmp/ccGYWBCE.ltrans5.ltrans.o
                                                  /tmp/ccGYWBCE.ltrans3.ltrans.o
                                                  /tmp/ccGYWBCE.ltrans1.ltrans.o
                                                  /tmp/ccGYWBCE.ltrans0.ltrans.o
systemBeep                                        /tmp/ccGYWBCE.ltrans13.ltrans.o
                                                  obj/main/SPRACINGF3/drivers/sound_beeper.o (symbol from plugin)
                                                  /tmp/ccGYWBCE.ltrans23.ltrans.o
                                                  /tmp/ccGYWBCE.ltrans7.ltrans.o
                                                  /tmp/ccGYWBCE.ltrans0.ltrans.o
                                                  obj/main/SPRACINGF3/io/beeper.o (symbol from plugin)
                                                  obj/main/SPRACINGF3/drivers/system.o (symbol from plugin)
                                                  obj/main/SPRACINGF3/main.o (symbol from plugin)
systemBeepPtr                                     /tmp/ccGYWBCE.ltrans13.ltrans.o
                                                  obj/main/SPRACINGF3/drivers/sound_beeper.o (symbol from plugin)
                                                  /tmp/ccGYWBCE.ltrans0.ltrans.o
systemInit                                        obj/main/SPRACINGF3/drivers/system.o (symbol from plugin)
                                                  obj/main/SPRACINGF3/main.o (symbol from plugin)
systemReset                                       obj/main/SPRACINGF3/drivers/system_stm32f30x.o (symbol from plugin)
                                                  obj/main/SPRACINGF3/io/serial_msp.o (symbol from plugin)
                                                  obj/main/SPRACINGF3/io/serial_cli.o (symbol from plugin)
                                                  obj/main/SPRACINGF3/drivers/system.o (symbol from plugin)
systemResetToBootloader                           obj/main/SPRACINGF3/drivers/system_stm32f30x.o (symbol from plugin)
                                                  obj/main/SPRACINGF3/io/serial.o (symbol from plugin)
systemState.lto_priv.377                          /tmp/ccGYWBCE.ltrans18.ltrans.o
                                                  /tmp/ccGYWBCE.ltrans0.ltrans.o
tailAddress.lto_priv.489                          /tmp/ccGYWBCE.ltrans0.ltrans.o
                                                  /tmp/ccGYWBCE.ltrans14.ltrans.o
                                                  /tmp/ccGYWBCE.ltrans10.ltrans.o
tailSerialReply.lto_priv.330                      /tmp/ccGYWBCE.ltrans8.ltrans.o
                                                  /tmp/ccGYWBCE.ltrans2.ltrans.o
tanf                                              /usr/lib/gcc/arm-none-eabi/4.9.3/../../../arm-none-eabi/lib/armv7e-m/fpu/libm.a(lib_a-sf_tan.o)
                                                  /tmp/ccGYWBCE.ltrans13.ltrans.o
targetLooptime                                    /tmp/ccGYWBCE.ltrans13.ltrans.o
                                                  obj/main/SPRACINGF3/drivers/gyro_sync.o (symbol from plugin)
                                                  /tmp/ccGYWBCE.ltrans26.ltrans.o
                                                  /tmp/ccGYWBCE.ltrans18.ltrans.o
                                                  /tmp/ccGYWBCE.ltrans1.ltrans.o
                                                  /tmp/ccGYWBCE.ltrans0.ltrans.o
                                                  obj/main/SPRACINGF3/sensors/gyro.o (symbol from plugin)
                                                  obj/main/SPRACINGF3/flight/pid.o (symbol from plugin)
                                                  obj/main/SPRACINGF3/mw.o (symbol from plugin)
                                                  obj/main/SPRACINGF3/main.o (symbol from plugin)
                                                  obj/main/SPRACINGF3/blackbox/blackbox_io.o (symbol from plugin)
targetName                                        /tmp/ccGYWBCE.ltrans8.ltrans.o
                                                  obj/main/SPRACINGF3/version.o (symbol from plugin)
                                                  obj/main/SPRACINGF3/io/serial_cli.o (symbol from plugin)
                                                  obj/main/SPRACINGF3/io/display.o (symbol from plugin)
target_bearing.lto_priv.520                       /tmp/ccGYWBCE.ltrans11.ltrans.o
                                                  /tmp/ccGYWBCE.ltrans14.ltrans.o
taskCalculateAltitude                             /tmp/ccGYWBCE.ltrans17.ltrans.o
                                                  obj/main/SPRACINGF3/mw.o (symbol from plugin)
                                                  /tmp/ccGYWBCE.ltrans8.ltrans.o
                                                  obj/main/SPRACINGF3/scheduler_tasks.o (symbol from plugin)
taskHandleSerial                                  /tmp/ccGYWBCE.ltrans2.ltrans.o
                                                  obj/main/SPRACINGF3/mw.o (symbol from plugin)
                                                  /tmp/ccGYWBCE.ltrans8.ltrans.o
                                                  obj/main/SPRACINGF3/scheduler_tasks.o (symbol from plugin)
taskLedStrip                                      /tmp/ccGYWBCE.ltrans6.ltrans.o
                                                  obj/main/SPRACINGF3/mw.o (symbol from plugin)
                                                  /tmp/ccGYWBCE.ltrans8.ltrans.o
                                                  obj/main/SPRACINGF3/scheduler_tasks.o (symbol from plugin)
taskMainPidLoop                                   obj/main/SPRACINGF3/mw.o (symbol from plugin)
taskMainPidLoopChecker                            /tmp/ccGYWBCE.ltrans1.ltrans.o
                                                  obj/main/SPRACINGF3/mw.o (symbol from plugin)
                                                  /tmp/ccGYWBCE.ltrans8.ltrans.o
                                                  obj/main/SPRACINGF3/scheduler_tasks.o (symbol from plugin)
taskProcessGPS                                    /tmp/ccGYWBCE.ltrans17.ltrans.o
                                                  obj/main/SPRACINGF3/mw.o (symbol from plugin)
                                                  /tmp/ccGYWBCE.ltrans8.ltrans.o
                                                  obj/main/SPRACINGF3/scheduler_tasks.o (symbol from plugin)
taskSystem                                        /tmp/ccGYWBCE.ltrans20.ltrans.o
                                                  obj/main/SPRACINGF3/scheduler.o (symbol from plugin)
                                                  /tmp/ccGYWBCE.ltrans8.ltrans.o
                                                  obj/main/SPRACINGF3/scheduler_tasks.o (symbol from plugin)
taskTelemetry                                     /tmp/ccGYWBCE.ltrans5.ltrans.o
                                                  obj/main/SPRACINGF3/mw.o (symbol from plugin)
                                                  /tmp/ccGYWBCE.ltrans8.ltrans.o
                                                  obj/main/SPRACINGF3/scheduler_tasks.o (symbol from plugin)
taskUpdateAccelerometer                           /tmp/ccGYWBCE.ltrans25.ltrans.o
                                                  obj/main/SPRACINGF3/mw.o (symbol from plugin)
                                                  /tmp/ccGYWBCE.ltrans8.ltrans.o
                                                  obj/main/SPRACINGF3/scheduler_tasks.o (symbol from plugin)
taskUpdateBaro                                    /tmp/ccGYWBCE.ltrans17.ltrans.o
                                                  obj/main/SPRACINGF3/mw.o (symbol from plugin)
                                                  /tmp/ccGYWBCE.ltrans8.ltrans.o
                                                  obj/main/SPRACINGF3/scheduler_tasks.o (symbol from plugin)
taskUpdateBattery                                 /tmp/ccGYWBCE.ltrans23.ltrans.o
                                                  obj/main/SPRACINGF3/mw.o (symbol from plugin)
                                                  /tmp/ccGYWBCE.ltrans8.ltrans.o
                                                  obj/main/SPRACINGF3/scheduler_tasks.o (symbol from plugin)
taskUpdateBeeper                                  /tmp/ccGYWBCE.ltrans23.ltrans.o
                                                  obj/main/SPRACINGF3/mw.o (symbol from plugin)
                                                  /tmp/ccGYWBCE.ltrans8.ltrans.o
                                                  obj/main/SPRACINGF3/scheduler_tasks.o (symbol from plugin)
taskUpdateCompass                                 /tmp/ccGYWBCE.ltrans17.ltrans.o
                                                  obj/main/SPRACINGF3/mw.o (symbol from plugin)
                                                  /tmp/ccGYWBCE.ltrans8.ltrans.o
                                                  obj/main/SPRACINGF3/scheduler_tasks.o (symbol from plugin)
taskUpdateDisplay                                 /tmp/ccGYWBCE.ltrans17.ltrans.o
                                                  obj/main/SPRACINGF3/mw.o (symbol from plugin)
                                                  /tmp/ccGYWBCE.ltrans8.ltrans.o
                                                  obj/main/SPRACINGF3/scheduler_tasks.o (symbol from plugin)
taskUpdateRxCheck                                 /tmp/ccGYWBCE.ltrans23.ltrans.o
                                                  obj/main/SPRACINGF3/mw.o (symbol from plugin)
                                                  /tmp/ccGYWBCE.ltrans8.ltrans.o
                                                  obj/main/SPRACINGF3/scheduler_tasks.o (symbol from plugin)
taskUpdateRxMain                                  /tmp/ccGYWBCE.ltrans3.ltrans.o
                                                  obj/main/SPRACINGF3/mw.o (symbol from plugin)
                                                  /tmp/ccGYWBCE.ltrans8.ltrans.o
                                                  obj/main/SPRACINGF3/scheduler_tasks.o (symbol from plugin)
taskUpdateSonar                                   /tmp/ccGYWBCE.ltrans17.ltrans.o
                                                  obj/main/SPRACINGF3/mw.o (symbol from plugin)
                                                  /tmp/ccGYWBCE.ltrans8.ltrans.o
                                                  obj/main/SPRACINGF3/scheduler_tasks.o (symbol from plugin)
telemTemperature1                                 obj/main/SPRACINGF3/mw.o (symbol from plugin)
telemetryCheckState                               /tmp/ccGYWBCE.ltrans24.ltrans.o
                                                  obj/main/SPRACINGF3/telemetry/telemetry.o (symbol from plugin)
                                                  /tmp/ccGYWBCE.ltrans5.ltrans.o
                                                  /tmp/ccGYWBCE.ltrans3.ltrans.o
                                                  /tmp/ccGYWBCE.ltrans0.ltrans.o
                                                  obj/main/SPRACINGF3/mw.o (symbol from plugin)
telemetryConfig.lto_priv.237                      /tmp/ccGYWBCE.ltrans5.ltrans.o
                                                  /tmp/ccGYWBCE.ltrans24.ltrans.o
                                                  /tmp/ccGYWBCE.ltrans0.ltrans.o
telemetryConfig.lto_priv.238                      /tmp/ccGYWBCE.ltrans5.ltrans.o
                                                  /tmp/ccGYWBCE.ltrans0.ltrans.o
telemetryConfig.lto_priv.381                      /tmp/ccGYWBCE.ltrans0.ltrans.o
                                                  /tmp/ccGYWBCE.ltrans24.ltrans.o
                                                  /tmp/ccGYWBCE.ltrans10.ltrans.o
telemetryConfig.lto_priv.382                      /tmp/ccGYWBCE.ltrans0.ltrans.o
                                                  /tmp/ccGYWBCE.ltrans24.ltrans.o
telemetryDetermineEnabledState                    obj/main/SPRACINGF3/telemetry/telemetry.o (symbol from plugin)
                                                  obj/main/SPRACINGF3/telemetry/ltm.o (symbol from plugin)
                                                  obj/main/SPRACINGF3/telemetry/smartport.o (symbol from plugin)
                                                  obj/main/SPRACINGF3/telemetry/hott.o (symbol from plugin)
                                                  obj/main/SPRACINGF3/telemetry/frsky.o (symbol from plugin)
telemetryInit                                     obj/main/SPRACINGF3/telemetry/telemetry.o (symbol from plugin)
                                                  obj/main/SPRACINGF3/main.o (symbol from plugin)
telemetryProcess                                  obj/main/SPRACINGF3/telemetry/telemetry.o (symbol from plugin)
                                                  obj/main/SPRACINGF3/mw.o (symbol from plugin)
telemetryUseConfig                                obj/main/SPRACINGF3/telemetry/telemetry.o (symbol from plugin)
                                                  obj/main/SPRACINGF3/config/config.o (symbol from plugin)
tfp_format                                        /tmp/ccGYWBCE.ltrans20.ltrans.o
                                                  obj/main/SPRACINGF3/common/printf.o (symbol from plugin)
                                                  /tmp/ccGYWBCE.ltrans22.ltrans.o
                                                  /tmp/ccGYWBCE.ltrans10.ltrans.o
                                                  obj/main/SPRACINGF3/io/serial_cli.o (symbol from plugin)
                                                  obj/main/SPRACINGF3/blackbox/blackbox_io.o (symbol from plugin)
tfp_printf                                        obj/main/SPRACINGF3/common/printf.o (symbol from plugin)
tfp_sprintf                                       /tmp/ccGYWBCE.ltrans20.ltrans.o
                                                  obj/main/SPRACINGF3/common/printf.o (symbol from plugin)
                                                  /tmp/ccGYWBCE.ltrans19.ltrans.o
                                                  /tmp/ccGYWBCE.ltrans12.ltrans.o
                                                  obj/main/SPRACINGF3/io/display.o (symbol from plugin)
                                                  obj/main/SPRACINGF3/io/ledstrip.o (symbol from plugin)
throttleAngleScale                                /tmp/ccGYWBCE.ltrans1.ltrans.o
                                                  obj/main/SPRACINGF3/flight/imu.o (symbol from plugin)
                                                  /tmp/ccGYWBCE.ltrans10.ltrans.o
timerChCCHandlerInit                              obj/main/SPRACINGF3/drivers/timer.o (symbol from plugin)
                                                  obj/main/SPRACINGF3/drivers/serial_softserial.o (symbol from plugin)
                                                  obj/main/SPRACINGF3/drivers/pwm_rx.o (symbol from plugin)
timerChCCR                                        obj/main/SPRACINGF3/drivers/timer.o (symbol from plugin)
timerChCCRHi                                      obj/main/SPRACINGF3/drivers/timer.o (symbol from plugin)
timerChCCRLo                                      obj/main/SPRACINGF3/drivers/timer.o (symbol from plugin)
timerChClearCCFlag                                obj/main/SPRACINGF3/drivers/timer.o (symbol from plugin)
timerChConfigCallbacks                            /tmp/ccGYWBCE.ltrans21.ltrans.o
                                                  obj/main/SPRACINGF3/drivers/timer.o (symbol from plugin)
                                                  /tmp/ccGYWBCE.ltrans14.ltrans.o
                                                  /tmp/ccGYWBCE.ltrans0.ltrans.o
                                                  obj/main/SPRACINGF3/drivers/serial_softserial.o (symbol from plugin)
                                                  obj/main/SPRACINGF3/drivers/pwm_rx.o (symbol from plugin)
timerChConfigCallbacksDual                        obj/main/SPRACINGF3/drivers/timer.o (symbol from plugin)
timerChConfigGPIO                                 obj/main/SPRACINGF3/drivers/timer.o (symbol from plugin)
timerChConfigIC                                   obj/main/SPRACINGF3/drivers/timer.o (symbol from plugin)
timerChConfigICDual                               obj/main/SPRACINGF3/drivers/timer.o (symbol from plugin)
timerChConfigOC                                   obj/main/SPRACINGF3/drivers/timer.o (symbol from plugin)
timerChICPolarity                                 obj/main/SPRACINGF3/drivers/timer.o (symbol from plugin)
timerChITConfig                                   obj/main/SPRACINGF3/drivers/timer.o (symbol from plugin)
timerChITConfigDualLo                             obj/main/SPRACINGF3/drivers/timer.o (symbol from plugin)
timerChInit                                       obj/main/SPRACINGF3/drivers/timer.o (symbol from plugin)
timerChOvrHandlerInit                             obj/main/SPRACINGF3/drivers/timer.o (symbol from plugin)
                                                  obj/main/SPRACINGF3/drivers/pwm_rx.o (symbol from plugin)
timerChannelInfo                                  obj/main/SPRACINGF3/drivers/timer.o (symbol from plugin)
timerConfig                                       /tmp/ccGYWBCE.ltrans13.ltrans.o
                                                  obj/main/SPRACINGF3/drivers/timer.o (symbol from plugin)
                                                  /tmp/ccGYWBCE.ltrans21.ltrans.o
                                                  /tmp/ccGYWBCE.ltrans0.ltrans.o
timerConfigure                                    /tmp/ccGYWBCE.ltrans21.ltrans.o
                                                  obj/main/SPRACINGF3/drivers/timer.o (symbol from plugin)
                                                  /tmp/ccGYWBCE.ltrans14.ltrans.o
                                                  /tmp/ccGYWBCE.ltrans0.ltrans.o
                                                  obj/main/SPRACINGF3/drivers/serial_softserial.o (symbol from plugin)
                                                  obj/main/SPRACINGF3/drivers/pwm_rx.o (symbol from plugin)
timerForceOverflow                                obj/main/SPRACINGF3/drivers/timer.o (symbol from plugin)
                                                  obj/main/SPRACINGF3/drivers/pwm_output.o (symbol from plugin)
timerHardware                                     /tmp/ccGYWBCE.ltrans0.ltrans.o
                                                  obj/main/SPRACINGF3/drivers/timer.o (symbol from plugin)
                                                  /tmp/ccGYWBCE.ltrans14.ltrans.o
                                                  obj/main/SPRACINGF3/drivers/serial_softserial.o (symbol from plugin)
                                                  obj/main/SPRACINGF3/drivers/pwm_mapping.o (symbol from plugin)
timerInfo                                         obj/main/SPRACINGF3/drivers/timer.o (symbol from plugin)
timerInit                                         obj/main/SPRACINGF3/drivers/timer.o (symbol from plugin)
                                                  obj/main/SPRACINGF3/main.o (symbol from plugin)
timerNVICConfigure                                obj/main/SPRACINGF3/drivers/timer.o (symbol from plugin)
timerStart                                        obj/main/SPRACINGF3/drivers/timer.o (symbol from plugin)
                                                  obj/main/SPRACINGF3/main.o (symbol from plugin)
totalWaitingTasks.lto_priv.476                    /tmp/ccGYWBCE.ltrans18.ltrans.o
                                                  /tmp/ccGYWBCE.ltrans20.ltrans.o
totalWaitingTasksSamples.lto_priv.475             /tmp/ccGYWBCE.ltrans18.ltrans.o
                                                  /tmp/ccGYWBCE.ltrans20.ltrans.o
uartOpen                                          /tmp/ccGYWBCE.ltrans4.ltrans.o
                                                  obj/main/SPRACINGF3/drivers/serial_uart.o (symbol from plugin)
                                                  /tmp/ccGYWBCE.ltrans7.ltrans.o
                                                  obj/main/SPRACINGF3/io/serial.o (symbol from plugin)
uartPort1.lto_priv.543                            /tmp/ccGYWBCE.ltrans21.ltrans.o
                                                  /tmp/ccGYWBCE.ltrans4.ltrans.o
uartPort2.lto_priv.542                            /tmp/ccGYWBCE.ltrans21.ltrans.o
                                                  /tmp/ccGYWBCE.ltrans4.ltrans.o
uartPort3.lto_priv.541                            /tmp/ccGYWBCE.ltrans21.ltrans.o
                                                  /tmp/ccGYWBCE.ltrans4.ltrans.o
uartRead                                          /tmp/ccGYWBCE.ltrans21.ltrans.o
                                                  obj/main/SPRACINGF3/drivers/serial_uart.o (symbol from plugin)
                                                  /tmp/ccGYWBCE.ltrans4.ltrans.o
uartReconfigure.lto_priv.540                      /tmp/ccGYWBCE.ltrans4.ltrans.o
                                                  /tmp/ccGYWBCE.ltrans21.ltrans.o
uartSetBaudRate                                   /tmp/ccGYWBCE.ltrans21.ltrans.o
                                                  obj/main/SPRACINGF3/drivers/serial_uart.o (symbol from plugin)
                                                  /tmp/ccGYWBCE.ltrans4.ltrans.o
uartSetMode                                       /tmp/ccGYWBCE.ltrans21.ltrans.o
                                                  obj/main/SPRACINGF3/drivers/serial_uart.o (symbol from plugin)
                                                  /tmp/ccGYWBCE.ltrans4.ltrans.o
uartStartTxDMA                                    obj/main/SPRACINGF3/drivers/serial_uart.o (symbol from plugin)
                                                  obj/main/SPRACINGF3/drivers/serial_uart_stm32f30x.o (symbol from plugin)
uartTotalRxBytesWaiting                           /tmp/ccGYWBCE.ltrans21.ltrans.o
                                                  obj/main/SPRACINGF3/drivers/serial_uart.o (symbol from plugin)
                                                  /tmp/ccGYWBCE.ltrans4.ltrans.o
uartTotalTxBytesFree                              /tmp/ccGYWBCE.ltrans21.ltrans.o
                                                  obj/main/SPRACINGF3/drivers/serial_uart.o (symbol from plugin)
                                                  /tmp/ccGYWBCE.ltrans4.ltrans.o
uartVTable                                        obj/main/SPRACINGF3/drivers/serial_uart.o (symbol from plugin)
                                                  obj/main/SPRACINGF3/drivers/serial_uart_stm32f30x.o (symbol from plugin)
uartWrite                                         /tmp/ccGYWBCE.ltrans21.ltrans.o
                                                  obj/main/SPRACINGF3/drivers/serial_uart.o (symbol from plugin)
                                                  /tmp/ccGYWBCE.ltrans4.ltrans.o
ubs_nav_fix_type                                  obj/main/SPRACINGF3/io/gps.o (symbol from plugin)
ubx_nav_status_bits                               obj/main/SPRACINGF3/io/gps.o (symbol from plugin)
ubx_protocol_bytes                                obj/main/SPRACINGF3/io/gps.o (symbol from plugin)
ug2864hsweg01InitI2C                              obj/main/SPRACINGF3/drivers/display_ug2864hsweg01.o (symbol from plugin)
                                                  obj/main/SPRACINGF3/io/display.o (symbol from plugin)
ug2864hsweg01InitI2C.part.0.lto_priv.471          /tmp/ccGYWBCE.ltrans4.ltrans.o
                                                  /tmp/ccGYWBCE.ltrans19.ltrans.o
                                                  /tmp/ccGYWBCE.ltrans0.ltrans.o
ui2a                                              obj/main/SPRACINGF3/common/typeconversion.o (symbol from plugin)
                                                  obj/main/SPRACINGF3/common/printf.o (symbol from plugin)
uli2a                                             obj/main/SPRACINGF3/common/typeconversion.o (symbol from plugin)
                                                  obj/main/SPRACINGF3/common/printf.o (symbol from plugin)
unregisterExtiCallbackHandler                     obj/main/SPRACINGF3/drivers/system.o (symbol from plugin)
updateAccelerationReadings                        obj/main/SPRACINGF3/sensors/acceleration.o (symbol from plugin)
                                                  obj/main/SPRACINGF3/flight/imu.o (symbol from plugin)
updateActivatedModes                              obj/main/SPRACINGF3/io/rc_controls.o (symbol from plugin)
                                                  obj/main/SPRACINGF3/mw.o (symbol from plugin)
updateAdjustmentStates                            obj/main/SPRACINGF3/io/rc_controls.o (symbol from plugin)
                                                  obj/main/SPRACINGF3/mw.o (symbol from plugin)
updateAltHoldState                                obj/main/SPRACINGF3/flight/altitudehold.o (symbol from plugin)
                                                  obj/main/SPRACINGF3/mw.o (symbol from plugin)
updateBattery                                     obj/main/SPRACINGF3/sensors/battery.o (symbol from plugin)
                                                  obj/main/SPRACINGF3/mw.o (symbol from plugin)
updateBatteryVoltage.lto_priv.304                 /tmp/ccGYWBCE.ltrans8.ltrans.o
                                                  /tmp/ccGYWBCE.ltrans23.ltrans.o
updateCompass                                     obj/main/SPRACINGF3/sensors/compass.o (symbol from plugin)
                                                  obj/main/SPRACINGF3/mw.o (symbol from plugin)
updateCurrentMeter                                obj/main/SPRACINGF3/sensors/battery.o (symbol from plugin)
                                                  obj/main/SPRACINGF3/mw.o (symbol from plugin)
updateDelayCycles                                 obj/main/SPRACINGF3/flight/gtune.o (symbol from plugin)
updateDisplay                                     /tmp/ccGYWBCE.ltrans19.ltrans.o
                                                  obj/main/SPRACINGF3/io/display.o (symbol from plugin)
                                                  /tmp/ccGYWBCE.ltrans22.ltrans.o
                                                  /tmp/ccGYWBCE.ltrans17.ltrans.o
                                                  /tmp/ccGYWBCE.ltrans0.ltrans.o
                                                  obj/main/SPRACINGF3/mw.o (symbol from plugin)
                                                  obj/main/SPRACINGF3/io/gps.o (symbol from plugin)
updateFailsafeStatus                              obj/main/SPRACINGF3/io/display.o (symbol from plugin)
updateGpsIndicator                                obj/main/SPRACINGF3/io/gps.o (symbol from plugin)
                                                  obj/main/SPRACINGF3/mw.o (symbol from plugin)
updateGpsStateForHomeAndHoldMode                  obj/main/SPRACINGF3/flight/navigation.o (symbol from plugin)
                                                  obj/main/SPRACINGF3/mw.o (symbol from plugin)
updateGpsWaypointsAndMode                         obj/main/SPRACINGF3/flight/navigation.o (symbol from plugin)
                                                  obj/main/SPRACINGF3/mw.o (symbol from plugin)
updateGtuneState                                  obj/main/SPRACINGF3/mw.o (symbol from plugin)
updateInflightCalibrationState                    obj/main/SPRACINGF3/mw.o (symbol from plugin)
updateLedCount                                    obj/main/SPRACINGF3/io/ledstrip.o (symbol from plugin)
updateLedStrip                                    obj/main/SPRACINGF3/io/ledstrip.o (symbol from plugin)
                                                  obj/main/SPRACINGF3/mw.o (symbol from plugin)
updateMagHold                                     obj/main/SPRACINGF3/mw.o (symbol from plugin)
updateRSSI                                        obj/main/SPRACINGF3/rx/rx.o (symbol from plugin)
                                                  obj/main/SPRACINGF3/mw.o (symbol from plugin)
updateRSSIADC                                     obj/main/SPRACINGF3/rx/rx.o (symbol from plugin)
updateRSSIPWM                                     obj/main/SPRACINGF3/rx/rx.o (symbol from plugin)
updateRx                                          obj/main/SPRACINGF3/rx/rx.o (symbol from plugin)
                                                  obj/main/SPRACINGF3/mw.o (symbol from plugin)
updateRxStatus                                    obj/main/SPRACINGF3/io/display.o (symbol from plugin)
updateSonarAltHoldState                           obj/main/SPRACINGF3/flight/altitudehold.o (symbol from plugin)
                                                  obj/main/SPRACINGF3/mw.o (symbol from plugin)
updateTicker                                      obj/main/SPRACINGF3/io/display.o (symbol from plugin)
usTicks.lto_priv.446                              /tmp/ccGYWBCE.ltrans7.ltrans.o
                                                  /tmp/ccGYWBCE.ltrans0.ltrans.o
usartIrqHandler                                   obj/main/SPRACINGF3/drivers/serial_uart_stm32f30x.o (symbol from plugin)
usb1WireInitialize                                obj/main/SPRACINGF3/io/serial_1wire.o (symbol from plugin)
                                                  obj/main/SPRACINGF3/io/serial_msp.o (symbol from plugin)
usb1WirePassthrough                               obj/main/SPRACINGF3/io/serial_1wire.o (symbol from plugin)
                                                  obj/main/SPRACINGF3/io/serial_msp.o (symbol from plugin)
useBarometerConfig                                obj/main/SPRACINGF3/sensors/barometer.o (symbol from plugin)
                                                  obj/main/SPRACINGF3/config/config.o (symbol from plugin)
useFailsafeConfig                                 obj/main/SPRACINGF3/flight/failsafe.o (symbol from plugin)
                                                  obj/main/SPRACINGF3/config/config.o (symbol from plugin)
useGyroConfig                                     obj/main/SPRACINGF3/sensors/gyro.o (symbol from plugin)
                                                  obj/main/SPRACINGF3/config/config.o (symbol from plugin)
useRcControlsConfig                               obj/main/SPRACINGF3/io/rc_controls.o (symbol from plugin)
                                                  obj/main/SPRACINGF3/io/serial_msp.o (symbol from plugin)
                                                  obj/main/SPRACINGF3/config/config.o (symbol from plugin)
useRxConfig                                       obj/main/SPRACINGF3/rx/rx.o (symbol from plugin)
                                                  obj/main/SPRACINGF3/config/config.o (symbol from plugin)
usedTimers                                        obj/main/SPRACINGF3/drivers/timer.o (symbol from plugin)
validateAndFixConfig                              obj/main/SPRACINGF3/config/config.o (symbol from plugin)
valueTable                                        /tmp/ccGYWBCE.ltrans22.ltrans.o
                                                  obj/main/SPRACINGF3/io/serial_cli.o (symbol from plugin)
                                                  /tmp/ccGYWBCE.ltrans12.ltrans.o
vario                                             /tmp/ccGYWBCE.ltrans5.ltrans.o
                                                  obj/main/SPRACINGF3/flight/altitudehold.o (symbol from plugin)
                                                  /tmp/ccGYWBCE.ltrans17.ltrans.o
                                                  /tmp/ccGYWBCE.ltrans2.ltrans.o
                                                  obj/main/SPRACINGF3/io/serial_msp.o (symbol from plugin)
                                                  obj/main/SPRACINGF3/telemetry/smartport.o (symbol from plugin)
                                                  obj/main/SPRACINGF3/telemetry/frsky.o (symbol from plugin)
vbat                                              /tmp/ccGYWBCE.ltrans8.ltrans.o
                                                  obj/main/SPRACINGF3/sensors/battery.o (symbol from plugin)
                                                  /tmp/ccGYWBCE.ltrans23.ltrans.o
                                                  /tmp/ccGYWBCE.ltrans22.ltrans.o
                                                  /tmp/ccGYWBCE.ltrans19.ltrans.o
                                                  /tmp/ccGYWBCE.ltrans5.ltrans.o
                                                  /tmp/ccGYWBCE.ltrans2.ltrans.o
                                                  obj/main/SPRACINGF3/io/serial_msp.o (symbol from plugin)
                                                  obj/main/SPRACINGF3/io/serial_cli.o (symbol from plugin)
                                                  obj/main/SPRACINGF3/telemetry/ltm.o (symbol from plugin)
                                                  obj/main/SPRACINGF3/telemetry/smartport.o (symbol from plugin)
                                                  obj/main/SPRACINGF3/telemetry/hott.o (symbol from plugin)
                                                  obj/main/SPRACINGF3/telemetry/frsky.o (symbol from plugin)
                                                  obj/main/SPRACINGF3/io/display.o (symbol from plugin)
vbatLatestADC                                     /tmp/ccGYWBCE.ltrans8.ltrans.o
                                                  obj/main/SPRACINGF3/sensors/battery.o (symbol from plugin)
                                                  /tmp/ccGYWBCE.ltrans23.ltrans.o
                                                  /tmp/ccGYWBCE.ltrans18.ltrans.o
                                                  /tmp/ccGYWBCE.ltrans9.ltrans.o
                                                  obj/main/SPRACINGF3/blackbox/blackbox.o (symbol from plugin)
vbatReference.lto_priv.365                        /tmp/ccGYWBCE.ltrans1.ltrans.o
                                                  /tmp/ccGYWBCE.ltrans18.ltrans.o
                                                  /tmp/ccGYWBCE.ltrans9.ltrans.o
velocityControl                                   /tmp/ccGYWBCE.ltrans17.ltrans.o
                                                  obj/main/SPRACINGF3/flight/altitudehold.o (symbol from plugin)
                                                  /tmp/ccGYWBCE.ltrans1.ltrans.o
waitForSerialPortToFinishTransmitting             /tmp/ccGYWBCE.ltrans7.ltrans.o
                                                  obj/main/SPRACINGF3/io/serial.o (symbol from plugin)
                                                  /tmp/ccGYWBCE.ltrans22.ltrans.o
                                                  /tmp/ccGYWBCE.ltrans2.ltrans.o
                                                  obj/main/SPRACINGF3/io/serial_msp.o (symbol from plugin)
                                                  obj/main/SPRACINGF3/io/serial_cli.o (symbol from plugin)
                                                  obj/main/SPRACINGF3/io/gps.o (symbol from plugin)
warningLedDisable                                 obj/main/SPRACINGF3/io/statusindicator.o (symbol from plugin)
                                                  obj/main/SPRACINGF3/io/beeper.o (symbol from plugin)
                                                  obj/main/SPRACINGF3/mw.o (symbol from plugin)
warningLedEnable                                  obj/main/SPRACINGF3/io/statusindicator.o (symbol from plugin)
                                                  obj/main/SPRACINGF3/io/beeper.o (symbol from plugin)
warningLedFlash                                   obj/main/SPRACINGF3/io/statusindicator.o (symbol from plugin)
                                                  obj/main/SPRACINGF3/mw.o (symbol from plugin)
warningLedRefresh                                 /tmp/ccGYWBCE.ltrans8.ltrans.o
                                                  obj/main/SPRACINGF3/io/statusindicator.o (symbol from plugin)
                                                  /tmp/ccGYWBCE.ltrans23.ltrans.o
                                                  /tmp/ccGYWBCE.ltrans7.ltrans.o
                                                  /tmp/ccGYWBCE.ltrans1.ltrans.o
                                                  obj/main/SPRACINGF3/io/beeper.o (symbol from plugin)
warningLedResetTimer                              obj/main/SPRACINGF3/io/statusindicator.o (symbol from plugin)
warningLedState.lto_priv.214                      /tmp/ccGYWBCE.ltrans8.ltrans.o
                                                  /tmp/ccGYWBCE.ltrans23.ltrans.o
                                                  /tmp/ccGYWBCE.ltrans7.ltrans.o
                                                  /tmp/ccGYWBCE.ltrans1.ltrans.o
warningLedTimer.lto_priv.352                      /tmp/ccGYWBCE.ltrans8.ltrans.o
                                                  /tmp/ccGYWBCE.ltrans1.ltrans.o
warningLedUpdate                                  obj/main/SPRACINGF3/io/statusindicator.o (symbol from plugin)
                                                  obj/main/SPRACINGF3/mw.o (symbol from plugin)
waypoint_speed_gov.lto_priv.523                   /tmp/ccGYWBCE.ltrans11.ltrans.o
                                                  /tmp/ccGYWBCE.ltrans14.ltrans.o
workAroundForHottTelemetryOnUsart.isra.0.lto_priv.245 /tmp/ccGYWBCE.ltrans24.ltrans.o
                                                  /tmp/ccGYWBCE.ltrans5.ltrans.o
wp_distance.lto_priv.519                          /tmp/ccGYWBCE.ltrans11.ltrans.o
                                                  /tmp/ccGYWBCE.ltrans14.ltrans.o
wrap_18000.lto_priv.362                           /tmp/ccGYWBCE.ltrans14.ltrans.o
                                                  /tmp/ccGYWBCE.ltrans11.ltrans.o
                                                  /tmp/ccGYWBCE.ltrans1.ltrans.o
writeAllMotors                                    obj/main/SPRACINGF3/flight/mixer.o (symbol from plugin)
writeEEPROM                                       /tmp/ccGYWBCE.ltrans20.ltrans.o
                                                  obj/main/SPRACINGF3/config/config.o (symbol from plugin)
                                                  /tmp/ccGYWBCE.ltrans22.ltrans.o
                                                  /tmp/ccGYWBCE.ltrans3.ltrans.o
                                                  /tmp/ccGYWBCE.ltrans2.ltrans.o
                                                  /tmp/ccGYWBCE.ltrans0.ltrans.o
                                                  obj/main/SPRACINGF3/io/serial_msp.o (symbol from plugin)
                                                  obj/main/SPRACINGF3/io/serial_cli.o (symbol from plugin)
writeMotors                                       /tmp/ccGYWBCE.ltrans13.ltrans.o
                                                  obj/main/SPRACINGF3/flight/mixer.o (symbol from plugin)
                                                  /tmp/ccGYWBCE.ltrans1.ltrans.o
                                                  obj/main/SPRACINGF3/mw.o (symbol from plugin)
writeServos                                       obj/main/SPRACINGF3/flight/mixer.o (symbol from plugin)
                                                  obj/main/SPRACINGF3/mw.o (symbol from plugin)
writer.lto_priv.306                               /tmp/ccGYWBCE.ltrans8.ltrans.o
                                                  /tmp/ccGYWBCE.ltrans2.ltrans.o
ws2811DMAHandler                                  /tmp/ccGYWBCE.ltrans15.ltrans.o
                                                  obj/main/SPRACINGF3/drivers/light_ws2811strip.o (symbol from plugin)
                                                  /tmp/ccGYWBCE.ltrans0.ltrans.o
ws2811LedDataTransferInProgress                   /tmp/ccGYWBCE.ltrans6.ltrans.o
                                                  obj/main/SPRACINGF3/drivers/light_ws2811strip.o (symbol from plugin)
                                                  /tmp/ccGYWBCE.ltrans15.ltrans.o
ws2811LedStripDMAEnable                           obj/main/SPRACINGF3/drivers/light_ws2811strip_stm32f30x.o (symbol from plugin)
                                                  obj/main/SPRACINGF3/drivers/light_ws2811strip.o (symbol from plugin)
ws2811LedStripHardwareInit                        obj/main/SPRACINGF3/drivers/light_ws2811strip_stm32f30x.o (symbol from plugin)
                                                  obj/main/SPRACINGF3/drivers/light_ws2811strip.o (symbol from plugin)
ws2811LedStripInit                                obj/main/SPRACINGF3/drivers/light_ws2811strip.o (symbol from plugin)
                                                  obj/main/SPRACINGF3/io/ledstrip.o (symbol from plugin)
ws2811UpdateStrip                                 /tmp/ccGYWBCE.ltrans15.ltrans.o
                                                  obj/main/SPRACINGF3/drivers/light_ws2811strip.o (symbol from plugin)
                                                  /tmp/ccGYWBCE.ltrans6.ltrans.o
                                                  /tmp/ccGYWBCE.ltrans0.ltrans.o
                                                  obj/main/SPRACINGF3/io/ledstrip.o (symbol from plugin)
                                                  obj/main/SPRACINGF3/drivers/light_ws2811strip_stm32f30x.o (symbol from plugin)
xBusChannelCount.lto_priv.408                     /tmp/ccGYWBCE.ltrans8.ltrans.o
                                                  /tmp/ccGYWBCE.ltrans0.ltrans.o
xBusDataIncoming.lto_priv.405                     /tmp/ccGYWBCE.ltrans8.ltrans.o
                                                  /tmp/ccGYWBCE.ltrans0.ltrans.o
xBusDataReceive.lto_priv.411                      /tmp/ccGYWBCE.ltrans8.ltrans.o
                                                  /tmp/ccGYWBCE.ltrans0.ltrans.o
xBusFrameLength.lto_priv.407                      /tmp/ccGYWBCE.ltrans8.ltrans.o
                                                  /tmp/ccGYWBCE.ltrans0.ltrans.o
xBusFramePosition.lto_priv.406                    /tmp/ccGYWBCE.ltrans8.ltrans.o
                                                  /tmp/ccGYWBCE.ltrans0.ltrans.o
xBusFrameReceived.lto_priv.282                    /tmp/ccGYWBCE.ltrans8.ltrans.o
                                                  /tmp/ccGYWBCE.ltrans23.ltrans.o
                                                  /tmp/ccGYWBCE.ltrans0.ltrans.o
xBusFrameStatus                                   obj/main/SPRACINGF3/rx/xbus.o (symbol from plugin)
                                                  obj/main/SPRACINGF3/rx/rx.o (symbol from plugin)
xBusInit                                          obj/main/SPRACINGF3/rx/xbus.o (symbol from plugin)
                                                  obj/main/SPRACINGF3/rx/rx.o (symbol from plugin)
xBusProvider.lto_priv.409                         /tmp/ccGYWBCE.ltrans8.ltrans.o
                                                  /tmp/ccGYWBCE.ltrans0.ltrans.o
xBusReadRawRC.lto_priv.410                        /tmp/ccGYWBCE.ltrans8.ltrans.o
                                                  /tmp/ccGYWBCE.ltrans0.ltrans.o
xBusRj01CRC8                                      obj/main/SPRACINGF3/rx/xbus.o (symbol from plugin)
xmitState.lto_priv.372                            /tmp/ccGYWBCE.ltrans1.ltrans.o
                                                  /tmp/ccGYWBCE.ltrans18.ltrans.o
                                                  /tmp/ccGYWBCE.ltrans9.ltrans.o
zigzagEncode                                      obj/main/SPRACINGF3/common/encoding.o (symbol from plugin)
                                                  obj/main/SPRACINGF3/blackbox/blackbox_io.o (symbol from plugin)
